

Microchip MPLAB XC8 Assembler V2.36 build 20220127204148 
                                                                                               Wed Jun 15 14:27:43 2022

Microchip MPLAB XC8 C Compiler v2.36 (Free license) build 20220127204148 Og1 
     1                           	processor	16F1823
     2                           	pagewidth 120
     3                           	opt	flic
     4                           	psect	stringtext1,global,class=STRCODE,delta=2,noexec
     5                           	psect	stringtext2,global,class=STRCODE,delta=2,noexec
     6                           	psect	stringtext3,global,class=STRCODE,delta=2,noexec
     7                           	psect	stringtext4,global,class=STRCODE,delta=2,noexec
     8                           	psect	stringtext5,global,class=STRCODE,delta=2,noexec
     9                           	psect	stringtext6,global,class=STRCODE,delta=2,noexec
    10                           	psect	stringtext7,global,class=STRCODE,delta=2,noexec
    11                           	psect	stringtext8,global,class=STRCODE,delta=2,noexec
    12                           	psect	stringtext9,global,class=STRCODE,delta=2,noexec
    13                           	psect	stringtext10,global,class=STRCODE,delta=2,noexec
    14                           	psect	stringtext11,global,class=STRCODE,delta=2,noexec
    15                           	psect	stringtext12,global,class=STRCODE,delta=2,noexec
    16                           	psect	stringtext13,global,class=STRCODE,delta=2,noexec
    17                           	psect	stringtext14,global,class=STRCODE,delta=2,noexec
    18                           	psect	stringtext15,global,class=STRCODE,delta=2,noexec
    19                           	psect	stringtext16,global,class=STRCODE,delta=2,noexec
    20                           	psect	stringtext17,global,class=STRCODE,delta=2,noexec
    21                           	psect	stringtext18,global,class=STRCODE,delta=2,noexec
    22                           	psect	nvBANK0,global,class=BANK0,space=1,delta=1,noexec
    23                           	psect	cinit,global,class=CODE,merge=1,delta=2
    24                           	psect	bitbssCOMMON,global,bit,class=COMMON,space=1,delta=1,noexec
    25                           	psect	bssCOMMON,global,class=COMMON,space=1,delta=1,noexec
    26                           	psect	bitbssBANK0,global,bit,class=BANK0,space=1,delta=1,noexec
    27                           	psect	bssBANK0,global,class=BANK0,space=1,delta=1,noexec
    28                           	psect	clrtext,global,class=CODE,delta=2
    29                           	psect	cstackCOMMON,global,class=COMMON,space=1,delta=1,noexec
    30                           	psect	cstackBANK0,global,class=BANK0,space=1,delta=1,noexec
    31                           	psect	maintext,global,class=CODE,merge=1,split=1,delta=2,codecov
    32                           	psect	text1,local,class=CODE,merge=1,delta=2,codecov
    33                           	psect	text2,local,class=CODE,merge=1,delta=2,codecov
    34                           	psect	text3,local,class=CODE,merge=1,delta=2,codecov
    35                           	psect	text4,local,class=CODE,merge=1,delta=2,codecov
    36                           	psect	text5,local,class=CODE,merge=1,delta=2,codecov
    37                           	psect	text6,local,class=CODE,merge=1,delta=2,codecov
    38                           	psect	text7,local,class=CODE,merge=1,delta=2,codecov
    39                           	psect	text8,local,class=CODE,merge=1,delta=2,codecov
    40                           	psect	text9,local,class=CODE,merge=1,delta=2,codecov
    41                           	psect	text10,local,class=CODE,merge=1,delta=2,codecov
    42                           	psect	text11,local,class=CODE,merge=1,delta=2,codecov
    43                           	psect	text12,local,class=CODE,merge=1,delta=2,codecov
    44                           	psect	text13,local,class=CODE,merge=1,delta=2,codecov
    45                           	psect	text14,local,class=CODE,merge=1,delta=2,codecov
    46                           	psect	text15,local,class=CODE,merge=1,delta=2,codecov
    47                           	psect	text16,local,class=CODE,merge=1,delta=2,codecov
    48                           	psect	text17,local,class=CODE,merge=1,delta=2,codecov
    49                           	psect	text18,local,class=CODE,merge=1,delta=2,codecov
    50                           	psect	text19,local,class=CODE,merge=1,delta=2,codecov
    51                           	psect	text20,local,class=CODE,merge=1,delta=2,codecov
    52                           	psect	text21,local,class=CODE,merge=1,delta=2,codecov
    53                           	psect	text22,local,class=CODE,merge=1,delta=2,codecov
    54                           	psect	text23,local,class=CODE,merge=1,delta=2,codecov
    55                           	psect	text24,local,class=CODE,merge=1,delta=2,codecov
    56                           	psect	text25,local,class=CODE,merge=1,delta=2,codecov
    57                           	psect	text26,local,class=CODE,merge=1,delta=2,codecov
    58                           	psect	text27,local,class=CODE,merge=1,delta=2,codecov
    59                           	psect	text28,local,class=CODE,merge=1,delta=2,codecov
    60                           	psect	text29,local,class=CODE,merge=1,delta=2,codecov
    61                           	psect	text30,local,class=CODE,merge=1,delta=2,codecov
    62                           	psect	text31,local,class=CODE,merge=1,delta=2,codecov
    63                           	psect	text32,local,class=CODE,merge=1,delta=2,codecov
    64                           	psect	intentry,global,class=CODE,delta=2
    65                           	psect	text34,local,class=CODE,merge=1,delta=2,codecov
    66                           	psect	text35,local,class=CODE,merge=1,delta=2,codecov
    67                           	psect	text36,local,class=CODE,merge=1,delta=2,codecov
    68                           	psect	text37,local,class=CODE,merge=1,delta=2,codecov
    69                           	psect	text38,local,class=CODE,merge=1,delta=2,codecov
    70                           	psect	text39,local,class=CODE,merge=1,delta=2,codecov
    71                           	psect	text40,local,class=CODE,merge=1,delta=2,codecov
    72                           	psect	text41,local,class=CODE,merge=1,delta=2,codecov
    73                           	psect	text42,local,class=CODE,merge=1,delta=2,codecov
    74                           	psect	text43,local,class=CODE,merge=1,delta=2,codecov
    75                           	psect	text44,local,class=CODE,merge=1,delta=2,codecov
    76                           	psect	text45,local,class=CODE,merge=1,delta=2,codecov
    77                           	psect	text46,local,class=CODE,merge=1,delta=2,codecov
    78                           	psect	text47,local,class=CODE,merge=1,delta=2,codecov
    79                           	psect	text48,local,class=CODE,merge=1,delta=2,codecov
    80                           	psect	text49,local,class=CODE,merge=1,delta=2,codecov
    81                           	psect	text50,local,class=CODE,merge=1,delta=2,codecov
    82                           	psect	codecov_info_hdr,global,note,abs,reloc=1,space=6,split=0,delta=1,noexec
    83                           	psect	codecov_info,global,note,abs,reloc=1,space=6,split=0,delta=1,noexec
    84                           	psect	idloc,global,abs,ovrld,class=IDLOC,space=5,delta=2,noexec
    85                           	psect	config,global,abs,ovrld,class=CONFIG,space=4,delta=2,noexec
    86                           	dabs	1,0x7E,2
    87  0000                     
    88                           ; Version 2.40
    89                           ; Generated 17/11/2021 GMT
    90                           ; 
    91                           ; Copyright © 2021, Microchip Technology Inc. and its subsidiaries ("Microchip")
    92                           ; All rights reserved.
    93                           ; 
    94                           ; This software is developed by Microchip Technology Inc. and its subsidiaries ("Microch
      +                          ip").
    95                           ; 
    96                           ; Redistribution and use in source and binary forms, with or without modification, are
    97                           ; permitted provided that the following conditions are met:
    98                           ; 
    99                           ;     1. Redistributions of source code must retain the above copyright notice, this lis
      +                          t of
   100                           ;        conditions and the following disclaimer.
   101                           ; 
   102                           ;     2. Redistributions in binary form must reproduce the above copyright notice, this 
      +                          list
   103                           ;        of conditions and the following disclaimer in the documentation and/or other
   104                           ;        materials provided with the distribution. Publication is not required when
   105                           ;        this file is used in an embedded application.
   106                           ; 
   107                           ;     3. Microchip's name may not be used to endorse or promote products derived from th
      +                          is
   108                           ;        software without specific prior written permission.
   109                           ; 
   110                           ; THIS SOFTWARE IS PROVIDED BY MICROCHIP "AS IS" AND ANY EXPRESS OR IMPLIED WARRANTIES,
   111                           ; INCLUDING, BUT NOT LIMITED TO, THE IMPLIED WARRANTIES OF MERCHANTABILITY AND FITNESS F
      +                          OR
   112                           ; PURPOSE ARE DISCLAIMED.  IN NO EVENT SHALL MICROCHIP BE LIABLE FOR ANY DIRECT, INDIREC
      +                          T,
   113                           ; INCIDENTAL, SPECIAL, EXEMPLARY, OR CONSEQUENTIAL DAMAGES (INCLUDING BUT NOT LIMITED TO
   114                           ; PROCUREMENT OF SUBSTITUTE GOODS OR SERVICES; LOSS OF USE, DATA OR PROFITS; OR BUSINESS
   115                           ; INTERRUPTION) HOWSOEVER CAUSED AND ON ANY THEORY OF LIABILITY, WHETHER IN CONTRACT, ST
      +                          RICT
   116                           ; LIABILITY, OR TORT (INCLUDING NEGLIGENCE OR OTHERWISE) ARISING IN ANY WAY OUT OF THE U
      +                          SE OF
   117                           ; THIS SOFTWARE, EVEN IF ADVISED OF THE POSSIBILITY OF SUCH DAMAGE.
   118                           ; 
   119                           ; 
   120                           ; Code-generator required, PIC16F1823 Definitions
   121                           ; 
   122                           ; SFR Addresses
   123  0000                     	;# 
   124  0001                     	;# 
   125  0002                     	;# 
   126  0003                     	;# 
   127  0004                     	;# 
   128  0005                     	;# 
   129  0006                     	;# 
   130  0007                     	;# 
   131  0008                     	;# 
   132  0009                     	;# 
   133  000A                     	;# 
   134  000B                     	;# 
   135  000C                     	;# 
   136  000E                     	;# 
   137  0011                     	;# 
   138  0012                     	;# 
   139  0015                     	;# 
   140  0016                     	;# 
   141  0016                     	;# 
   142  0017                     	;# 
   143  0018                     	;# 
   144  0019                     	;# 
   145  001A                     	;# 
   146  001B                     	;# 
   147  001C                     	;# 
   148  001E                     	;# 
   149  001F                     	;# 
   150  008C                     	;# 
   151  008E                     	;# 
   152  0091                     	;# 
   153  0092                     	;# 
   154  0095                     	;# 
   155  0096                     	;# 
   156  0097                     	;# 
   157  0098                     	;# 
   158  0099                     	;# 
   159  009A                     	;# 
   160  009B                     	;# 
   161  009B                     	;# 
   162  009C                     	;# 
   163  009D                     	;# 
   164  009E                     	;# 
   165  010C                     	;# 
   166  010E                     	;# 
   167  0111                     	;# 
   168  0112                     	;# 
   169  0113                     	;# 
   170  0114                     	;# 
   171  0115                     	;# 
   172  0116                     	;# 
   173  0117                     	;# 
   174  0118                     	;# 
   175  0119                     	;# 
   176  011A                     	;# 
   177  011B                     	;# 
   178  011D                     	;# 
   179  011D                     	;# 
   180  018C                     	;# 
   181  018E                     	;# 
   182  0191                     	;# 
   183  0191                     	;# 
   184  0192                     	;# 
   185  0193                     	;# 
   186  0193                     	;# 
   187  0193                     	;# 
   188  0194                     	;# 
   189  0195                     	;# 
   190  0196                     	;# 
   191  0199                     	;# 
   192  019A                     	;# 
   193  019B                     	;# 
   194  019B                     	;# 
   195  019B                     	;# 
   196  019B                     	;# 
   197  019C                     	;# 
   198  019C                     	;# 
   199  019D                     	;# 
   200  019E                     	;# 
   201  019F                     	;# 
   202  020C                     	;# 
   203  020E                     	;# 
   204  0211                     	;# 
   205  0211                     	;# 
   206  0212                     	;# 
   207  0212                     	;# 
   208  0213                     	;# 
   209  0213                     	;# 
   210  0214                     	;# 
   211  0214                     	;# 
   212  0215                     	;# 
   213  0215                     	;# 
   214  0215                     	;# 
   215  0216                     	;# 
   216  0216                     	;# 
   217  0217                     	;# 
   218  0217                     	;# 
   219  0291                     	;# 
   220  0291                     	;# 
   221  0292                     	;# 
   222  0293                     	;# 
   223  0294                     	;# 
   224  0295                     	;# 
   225  0295                     	;# 
   226  0296                     	;# 
   227  0391                     	;# 
   228  0392                     	;# 
   229  0393                     	;# 
   230  039A                     	;# 
   231  039C                     	;# 
   232  039D                     	;# 
   233  039E                     	;# 
   234  039F                     	;# 
   235  0FE4                     	;# 
   236  0FE5                     	;# 
   237  0FE6                     	;# 
   238  0FE7                     	;# 
   239  0FE8                     	;# 
   240  0FE9                     	;# 
   241  0FEA                     	;# 
   242  0FEB                     	;# 
   243  0FED                     	;# 
   244  0FEE                     	;# 
   245  0FEF                     	;# 
   246  0000                     	;# 
   247  0001                     	;# 
   248  0002                     	;# 
   249  0003                     	;# 
   250  0004                     	;# 
   251  0005                     	;# 
   252  0006                     	;# 
   253  0007                     	;# 
   254  0008                     	;# 
   255  0009                     	;# 
   256  000A                     	;# 
   257  000B                     	;# 
   258  000C                     	;# 
   259  000E                     	;# 
   260  0011                     	;# 
   261  0012                     	;# 
   262  0015                     	;# 
   263  0016                     	;# 
   264  0016                     	;# 
   265  0017                     	;# 
   266  0018                     	;# 
   267  0019                     	;# 
   268  001A                     	;# 
   269  001B                     	;# 
   270  001C                     	;# 
   271  001E                     	;# 
   272  001F                     	;# 
   273  008C                     	;# 
   274  008E                     	;# 
   275  0091                     	;# 
   276  0092                     	;# 
   277  0095                     	;# 
   278  0096                     	;# 
   279  0097                     	;# 
   280  0098                     	;# 
   281  0099                     	;# 
   282  009A                     	;# 
   283  009B                     	;# 
   284  009B                     	;# 
   285  009C                     	;# 
   286  009D                     	;# 
   287  009E                     	;# 
   288  010C                     	;# 
   289  010E                     	;# 
   290  0111                     	;# 
   291  0112                     	;# 
   292  0113                     	;# 
   293  0114                     	;# 
   294  0115                     	;# 
   295  0116                     	;# 
   296  0117                     	;# 
   297  0118                     	;# 
   298  0119                     	;# 
   299  011A                     	;# 
   300  011B                     	;# 
   301  011D                     	;# 
   302  011D                     	;# 
   303  018C                     	;# 
   304  018E                     	;# 
   305  0191                     	;# 
   306  0191                     	;# 
   307  0192                     	;# 
   308  0193                     	;# 
   309  0193                     	;# 
   310  0193                     	;# 
   311  0194                     	;# 
   312  0195                     	;# 
   313  0196                     	;# 
   314  0199                     	;# 
   315  019A                     	;# 
   316  019B                     	;# 
   317  019B                     	;# 
   318  019B                     	;# 
   319  019B                     	;# 
   320  019C                     	;# 
   321  019C                     	;# 
   322  019D                     	;# 
   323  019E                     	;# 
   324  019F                     	;# 
   325  020C                     	;# 
   326  020E                     	;# 
   327  0211                     	;# 
   328  0211                     	;# 
   329  0212                     	;# 
   330  0212                     	;# 
   331  0213                     	;# 
   332  0213                     	;# 
   333  0214                     	;# 
   334  0214                     	;# 
   335  0215                     	;# 
   336  0215                     	;# 
   337  0215                     	;# 
   338  0216                     	;# 
   339  0216                     	;# 
   340  0217                     	;# 
   341  0217                     	;# 
   342  0291                     	;# 
   343  0291                     	;# 
   344  0292                     	;# 
   345  0293                     	;# 
   346  0294                     	;# 
   347  0295                     	;# 
   348  0295                     	;# 
   349  0296                     	;# 
   350  0391                     	;# 
   351  0392                     	;# 
   352  0393                     	;# 
   353  039A                     	;# 
   354  039C                     	;# 
   355  039D                     	;# 
   356  039E                     	;# 
   357  039F                     	;# 
   358  0FE4                     	;# 
   359  0FE5                     	;# 
   360  0FE6                     	;# 
   361  0FE7                     	;# 
   362  0FE8                     	;# 
   363  0FE9                     	;# 
   364  0FEA                     	;# 
   365  0FEB                     	;# 
   366  0FED                     	;# 
   367  0FEE                     	;# 
   368  0FEF                     	;# 
   369  0000                     	;# 
   370  0001                     	;# 
   371  0002                     	;# 
   372  0003                     	;# 
   373  0004                     	;# 
   374  0005                     	;# 
   375  0006                     	;# 
   376  0007                     	;# 
   377  0008                     	;# 
   378  0009                     	;# 
   379  000A                     	;# 
   380  000B                     	;# 
   381  000C                     	;# 
   382  000E                     	;# 
   383  0011                     	;# 
   384  0012                     	;# 
   385  0015                     	;# 
   386  0016                     	;# 
   387  0016                     	;# 
   388  0017                     	;# 
   389  0018                     	;# 
   390  0019                     	;# 
   391  001A                     	;# 
   392  001B                     	;# 
   393  001C                     	;# 
   394  001E                     	;# 
   395  001F                     	;# 
   396  008C                     	;# 
   397  008E                     	;# 
   398  0091                     	;# 
   399  0092                     	;# 
   400  0095                     	;# 
   401  0096                     	;# 
   402  0097                     	;# 
   403  0098                     	;# 
   404  0099                     	;# 
   405  009A                     	;# 
   406  009B                     	;# 
   407  009B                     	;# 
   408  009C                     	;# 
   409  009D                     	;# 
   410  009E                     	;# 
   411  010C                     	;# 
   412  010E                     	;# 
   413  0111                     	;# 
   414  0112                     	;# 
   415  0113                     	;# 
   416  0114                     	;# 
   417  0115                     	;# 
   418  0116                     	;# 
   419  0117                     	;# 
   420  0118                     	;# 
   421  0119                     	;# 
   422  011A                     	;# 
   423  011B                     	;# 
   424  011D                     	;# 
   425  011D                     	;# 
   426  018C                     	;# 
   427  018E                     	;# 
   428  0191                     	;# 
   429  0191                     	;# 
   430  0192                     	;# 
   431  0193                     	;# 
   432  0193                     	;# 
   433  0193                     	;# 
   434  0194                     	;# 
   435  0195                     	;# 
   436  0196                     	;# 
   437  0199                     	;# 
   438  019A                     	;# 
   439  019B                     	;# 
   440  019B                     	;# 
   441  019B                     	;# 
   442  019B                     	;# 
   443  019C                     	;# 
   444  019C                     	;# 
   445  019D                     	;# 
   446  019E                     	;# 
   447  019F                     	;# 
   448  020C                     	;# 
   449  020E                     	;# 
   450  0211                     	;# 
   451  0211                     	;# 
   452  0212                     	;# 
   453  0212                     	;# 
   454  0213                     	;# 
   455  0213                     	;# 
   456  0214                     	;# 
   457  0214                     	;# 
   458  0215                     	;# 
   459  0215                     	;# 
   460  0215                     	;# 
   461  0216                     	;# 
   462  0216                     	;# 
   463  0217                     	;# 
   464  0217                     	;# 
   465  0291                     	;# 
   466  0291                     	;# 
   467  0292                     	;# 
   468  0293                     	;# 
   469  0294                     	;# 
   470  0295                     	;# 
   471  0295                     	;# 
   472  0296                     	;# 
   473  0391                     	;# 
   474  0392                     	;# 
   475  0393                     	;# 
   476  039A                     	;# 
   477  039C                     	;# 
   478  039D                     	;# 
   479  039E                     	;# 
   480  039F                     	;# 
   481  0FE4                     	;# 
   482  0FE5                     	;# 
   483  0FE6                     	;# 
   484  0FE7                     	;# 
   485  0FE8                     	;# 
   486  0FE9                     	;# 
   487  0FEA                     	;# 
   488  0FEB                     	;# 
   489  0FED                     	;# 
   490  0FEE                     	;# 
   491  0FEF                     	;# 
   492  0000                     	;# 
   493  0001                     	;# 
   494  0002                     	;# 
   495  0003                     	;# 
   496  0004                     	;# 
   497  0005                     	;# 
   498  0006                     	;# 
   499  0007                     	;# 
   500  0008                     	;# 
   501  0009                     	;# 
   502  000A                     	;# 
   503  000B                     	;# 
   504  000C                     	;# 
   505  000E                     	;# 
   506  0011                     	;# 
   507  0012                     	;# 
   508  0015                     	;# 
   509  0016                     	;# 
   510  0016                     	;# 
   511  0017                     	;# 
   512  0018                     	;# 
   513  0019                     	;# 
   514  001A                     	;# 
   515  001B                     	;# 
   516  001C                     	;# 
   517  001E                     	;# 
   518  001F                     	;# 
   519  008C                     	;# 
   520  008E                     	;# 
   521  0091                     	;# 
   522  0092                     	;# 
   523  0095                     	;# 
   524  0096                     	;# 
   525  0097                     	;# 
   526  0098                     	;# 
   527  0099                     	;# 
   528  009A                     	;# 
   529  009B                     	;# 
   530  009B                     	;# 
   531  009C                     	;# 
   532  009D                     	;# 
   533  009E                     	;# 
   534  010C                     	;# 
   535  010E                     	;# 
   536  0111                     	;# 
   537  0112                     	;# 
   538  0113                     	;# 
   539  0114                     	;# 
   540  0115                     	;# 
   541  0116                     	;# 
   542  0117                     	;# 
   543  0118                     	;# 
   544  0119                     	;# 
   545  011A                     	;# 
   546  011B                     	;# 
   547  011D                     	;# 
   548  011D                     	;# 
   549  018C                     	;# 
   550  018E                     	;# 
   551  0191                     	;# 
   552  0191                     	;# 
   553  0192                     	;# 
   554  0193                     	;# 
   555  0193                     	;# 
   556  0193                     	;# 
   557  0194                     	;# 
   558  0195                     	;# 
   559  0196                     	;# 
   560  0199                     	;# 
   561  019A                     	;# 
   562  019B                     	;# 
   563  019B                     	;# 
   564  019B                     	;# 
   565  019B                     	;# 
   566  019C                     	;# 
   567  019C                     	;# 
   568  019D                     	;# 
   569  019E                     	;# 
   570  019F                     	;# 
   571  020C                     	;# 
   572  020E                     	;# 
   573  0211                     	;# 
   574  0211                     	;# 
   575  0212                     	;# 
   576  0212                     	;# 
   577  0213                     	;# 
   578  0213                     	;# 
   579  0214                     	;# 
   580  0214                     	;# 
   581  0215                     	;# 
   582  0215                     	;# 
   583  0215                     	;# 
   584  0216                     	;# 
   585  0216                     	;# 
   586  0217                     	;# 
   587  0217                     	;# 
   588  0291                     	;# 
   589  0291                     	;# 
   590  0292                     	;# 
   591  0293                     	;# 
   592  0294                     	;# 
   593  0295                     	;# 
   594  0295                     	;# 
   595  0296                     	;# 
   596  0391                     	;# 
   597  0392                     	;# 
   598  0393                     	;# 
   599  039A                     	;# 
   600  039C                     	;# 
   601  039D                     	;# 
   602  039E                     	;# 
   603  039F                     	;# 
   604  0FE4                     	;# 
   605  0FE5                     	;# 
   606  0FE6                     	;# 
   607  0FE7                     	;# 
   608  0FE8                     	;# 
   609  0FE9                     	;# 
   610  0FEA                     	;# 
   611  0FEB                     	;# 
   612  0FED                     	;# 
   613  0FEE                     	;# 
   614  0FEF                     	;# 
   615  0000                     	;# 
   616  0001                     	;# 
   617  0002                     	;# 
   618  0003                     	;# 
   619  0004                     	;# 
   620  0005                     	;# 
   621  0006                     	;# 
   622  0007                     	;# 
   623  0008                     	;# 
   624  0009                     	;# 
   625  000A                     	;# 
   626  000B                     	;# 
   627  000C                     	;# 
   628  000E                     	;# 
   629  0011                     	;# 
   630  0012                     	;# 
   631  0015                     	;# 
   632  0016                     	;# 
   633  0016                     	;# 
   634  0017                     	;# 
   635  0018                     	;# 
   636  0019                     	;# 
   637  001A                     	;# 
   638  001B                     	;# 
   639  001C                     	;# 
   640  001E                     	;# 
   641  001F                     	;# 
   642  008C                     	;# 
   643  008E                     	;# 
   644  0091                     	;# 
   645  0092                     	;# 
   646  0095                     	;# 
   647  0096                     	;# 
   648  0097                     	;# 
   649  0098                     	;# 
   650  0099                     	;# 
   651  009A                     	;# 
   652  009B                     	;# 
   653  009B                     	;# 
   654  009C                     	;# 
   655  009D                     	;# 
   656  009E                     	;# 
   657  010C                     	;# 
   658  010E                     	;# 
   659  0111                     	;# 
   660  0112                     	;# 
   661  0113                     	;# 
   662  0114                     	;# 
   663  0115                     	;# 
   664  0116                     	;# 
   665  0117                     	;# 
   666  0118                     	;# 
   667  0119                     	;# 
   668  011A                     	;# 
   669  011B                     	;# 
   670  011D                     	;# 
   671  011D                     	;# 
   672  018C                     	;# 
   673  018E                     	;# 
   674  0191                     	;# 
   675  0191                     	;# 
   676  0192                     	;# 
   677  0193                     	;# 
   678  0193                     	;# 
   679  0193                     	;# 
   680  0194                     	;# 
   681  0195                     	;# 
   682  0196                     	;# 
   683  0199                     	;# 
   684  019A                     	;# 
   685  019B                     	;# 
   686  019B                     	;# 
   687  019B                     	;# 
   688  019B                     	;# 
   689  019C                     	;# 
   690  019C                     	;# 
   691  019D                     	;# 
   692  019E                     	;# 
   693  019F                     	;# 
   694  020C                     	;# 
   695  020E                     	;# 
   696  0211                     	;# 
   697  0211                     	;# 
   698  0212                     	;# 
   699  0212                     	;# 
   700  0213                     	;# 
   701  0213                     	;# 
   702  0214                     	;# 
   703  0214                     	;# 
   704  0215                     	;# 
   705  0215                     	;# 
   706  0215                     	;# 
   707  0216                     	;# 
   708  0216                     	;# 
   709  0217                     	;# 
   710  0217                     	;# 
   711  0291                     	;# 
   712  0291                     	;# 
   713  0292                     	;# 
   714  0293                     	;# 
   715  0294                     	;# 
   716  0295                     	;# 
   717  0295                     	;# 
   718  0296                     	;# 
   719  0391                     	;# 
   720  0392                     	;# 
   721  0393                     	;# 
   722  039A                     	;# 
   723  039C                     	;# 
   724  039D                     	;# 
   725  039E                     	;# 
   726  039F                     	;# 
   727  0FE4                     	;# 
   728  0FE5                     	;# 
   729  0FE6                     	;# 
   730  0FE7                     	;# 
   731  0FE8                     	;# 
   732  0FE9                     	;# 
   733  0FEA                     	;# 
   734  0FEB                     	;# 
   735  0FED                     	;# 
   736  0FEE                     	;# 
   737  0FEF                     	;# 
   738  0000                     	;# 
   739  0001                     	;# 
   740  0002                     	;# 
   741  0003                     	;# 
   742  0004                     	;# 
   743  0005                     	;# 
   744  0006                     	;# 
   745  0007                     	;# 
   746  0008                     	;# 
   747  0009                     	;# 
   748  000A                     	;# 
   749  000B                     	;# 
   750  000C                     	;# 
   751  000E                     	;# 
   752  0011                     	;# 
   753  0012                     	;# 
   754  0015                     	;# 
   755  0016                     	;# 
   756  0016                     	;# 
   757  0017                     	;# 
   758  0018                     	;# 
   759  0019                     	;# 
   760  001A                     	;# 
   761  001B                     	;# 
   762  001C                     	;# 
   763  001E                     	;# 
   764  001F                     	;# 
   765  008C                     	;# 
   766  008E                     	;# 
   767  0091                     	;# 
   768  0092                     	;# 
   769  0095                     	;# 
   770  0096                     	;# 
   771  0097                     	;# 
   772  0098                     	;# 
   773  0099                     	;# 
   774  009A                     	;# 
   775  009B                     	;# 
   776  009B                     	;# 
   777  009C                     	;# 
   778  009D                     	;# 
   779  009E                     	;# 
   780  010C                     	;# 
   781  010E                     	;# 
   782  0111                     	;# 
   783  0112                     	;# 
   784  0113                     	;# 
   785  0114                     	;# 
   786  0115                     	;# 
   787  0116                     	;# 
   788  0117                     	;# 
   789  0118                     	;# 
   790  0119                     	;# 
   791  011A                     	;# 
   792  011B                     	;# 
   793  011D                     	;# 
   794  011D                     	;# 
   795  018C                     	;# 
   796  018E                     	;# 
   797  0191                     	;# 
   798  0191                     	;# 
   799  0192                     	;# 
   800  0193                     	;# 
   801  0193                     	;# 
   802  0193                     	;# 
   803  0194                     	;# 
   804  0195                     	;# 
   805  0196                     	;# 
   806  0199                     	;# 
   807  019A                     	;# 
   808  019B                     	;# 
   809  019B                     	;# 
   810  019B                     	;# 
   811  019B                     	;# 
   812  019C                     	;# 
   813  019C                     	;# 
   814  019D                     	;# 
   815  019E                     	;# 
   816  019F                     	;# 
   817  020C                     	;# 
   818  020E                     	;# 
   819  0211                     	;# 
   820  0211                     	;# 
   821  0212                     	;# 
   822  0212                     	;# 
   823  0213                     	;# 
   824  0213                     	;# 
   825  0214                     	;# 
   826  0214                     	;# 
   827  0215                     	;# 
   828  0215                     	;# 
   829  0215                     	;# 
   830  0216                     	;# 
   831  0216                     	;# 
   832  0217                     	;# 
   833  0217                     	;# 
   834  0291                     	;# 
   835  0291                     	;# 
   836  0292                     	;# 
   837  0293                     	;# 
   838  0294                     	;# 
   839  0295                     	;# 
   840  0295                     	;# 
   841  0296                     	;# 
   842  0391                     	;# 
   843  0392                     	;# 
   844  0393                     	;# 
   845  039A                     	;# 
   846  039C                     	;# 
   847  039D                     	;# 
   848  039E                     	;# 
   849  039F                     	;# 
   850  0FE4                     	;# 
   851  0FE5                     	;# 
   852  0FE6                     	;# 
   853  0FE7                     	;# 
   854  0FE8                     	;# 
   855  0FE9                     	;# 
   856  0FEA                     	;# 
   857  0FEB                     	;# 
   858  0FED                     	;# 
   859  0FEE                     	;# 
   860  0FEF                     	;# 
   861  0000                     	;# 
   862  0001                     	;# 
   863  0002                     	;# 
   864  0003                     	;# 
   865  0004                     	;# 
   866  0005                     	;# 
   867  0006                     	;# 
   868  0007                     	;# 
   869  0008                     	;# 
   870  0009                     	;# 
   871  000A                     	;# 
   872  000B                     	;# 
   873  000C                     	;# 
   874  000E                     	;# 
   875  0011                     	;# 
   876  0012                     	;# 
   877  0015                     	;# 
   878  0016                     	;# 
   879  0016                     	;# 
   880  0017                     	;# 
   881  0018                     	;# 
   882  0019                     	;# 
   883  001A                     	;# 
   884  001B                     	;# 
   885  001C                     	;# 
   886  001E                     	;# 
   887  001F                     	;# 
   888  008C                     	;# 
   889  008E                     	;# 
   890  0091                     	;# 
   891  0092                     	;# 
   892  0095                     	;# 
   893  0096                     	;# 
   894  0097                     	;# 
   895  0098                     	;# 
   896  0099                     	;# 
   897  009A                     	;# 
   898  009B                     	;# 
   899  009B                     	;# 
   900  009C                     	;# 
   901  009D                     	;# 
   902  009E                     	;# 
   903  010C                     	;# 
   904  010E                     	;# 
   905  0111                     	;# 
   906  0112                     	;# 
   907  0113                     	;# 
   908  0114                     	;# 
   909  0115                     	;# 
   910  0116                     	;# 
   911  0117                     	;# 
   912  0118                     	;# 
   913  0119                     	;# 
   914  011A                     	;# 
   915  011B                     	;# 
   916  011D                     	;# 
   917  011D                     	;# 
   918  018C                     	;# 
   919  018E                     	;# 
   920  0191                     	;# 
   921  0191                     	;# 
   922  0192                     	;# 
   923  0193                     	;# 
   924  0193                     	;# 
   925  0193                     	;# 
   926  0194                     	;# 
   927  0195                     	;# 
   928  0196                     	;# 
   929  0199                     	;# 
   930  019A                     	;# 
   931  019B                     	;# 
   932  019B                     	;# 
   933  019B                     	;# 
   934  019B                     	;# 
   935  019C                     	;# 
   936  019C                     	;# 
   937  019D                     	;# 
   938  019E                     	;# 
   939  019F                     	;# 
   940  020C                     	;# 
   941  020E                     	;# 
   942  0211                     	;# 
   943  0211                     	;# 
   944  0212                     	;# 
   945  0212                     	;# 
   946  0213                     	;# 
   947  0213                     	;# 
   948  0214                     	;# 
   949  0214                     	;# 
   950  0215                     	;# 
   951  0215                     	;# 
   952  0215                     	;# 
   953  0216                     	;# 
   954  0216                     	;# 
   955  0217                     	;# 
   956  0217                     	;# 
   957  0291                     	;# 
   958  0291                     	;# 
   959  0292                     	;# 
   960  0293                     	;# 
   961  0294                     	;# 
   962  0295                     	;# 
   963  0295                     	;# 
   964  0296                     	;# 
   965  0391                     	;# 
   966  0392                     	;# 
   967  0393                     	;# 
   968  039A                     	;# 
   969  039C                     	;# 
   970  039D                     	;# 
   971  039E                     	;# 
   972  039F                     	;# 
   973  0FE4                     	;# 
   974  0FE5                     	;# 
   975  0FE6                     	;# 
   976  0FE7                     	;# 
   977  0FE8                     	;# 
   978  0FE9                     	;# 
   979  0FEA                     	;# 
   980  0FEB                     	;# 
   981  0FED                     	;# 
   982  0FEE                     	;# 
   983  0FEF                     	;# 
   984  0000                     	;# 
   985  0001                     	;# 
   986  0002                     	;# 
   987  0003                     	;# 
   988  0004                     	;# 
   989  0005                     	;# 
   990  0006                     	;# 
   991  0007                     	;# 
   992  0008                     	;# 
   993  0009                     	;# 
   994  000A                     	;# 
   995  000B                     	;# 
   996  000C                     	;# 
   997  000E                     	;# 
   998  0011                     	;# 
   999  0012                     	;# 
  1000  0015                     	;# 
  1001  0016                     	;# 
  1002  0016                     	;# 
  1003  0017                     	;# 
  1004  0018                     	;# 
  1005  0019                     	;# 
  1006  001A                     	;# 
  1007  001B                     	;# 
  1008  001C                     	;# 
  1009  001E                     	;# 
  1010  001F                     	;# 
  1011  008C                     	;# 
  1012  008E                     	;# 
  1013  0091                     	;# 
  1014  0092                     	;# 
  1015  0095                     	;# 
  1016  0096                     	;# 
  1017  0097                     	;# 
  1018  0098                     	;# 
  1019  0099                     	;# 
  1020  009A                     	;# 
  1021  009B                     	;# 
  1022  009B                     	;# 
  1023  009C                     	;# 
  1024  009D                     	;# 
  1025  009E                     	;# 
  1026  010C                     	;# 
  1027  010E                     	;# 
  1028  0111                     	;# 
  1029  0112                     	;# 
  1030  0113                     	;# 
  1031  0114                     	;# 
  1032  0115                     	;# 
  1033  0116                     	;# 
  1034  0117                     	;# 
  1035  0118                     	;# 
  1036  0119                     	;# 
  1037  011A                     	;# 
  1038  011B                     	;# 
  1039  011D                     	;# 
  1040  011D                     	;# 
  1041  018C                     	;# 
  1042  018E                     	;# 
  1043  0191                     	;# 
  1044  0191                     	;# 
  1045  0192                     	;# 
  1046  0193                     	;# 
  1047  0193                     	;# 
  1048  0193                     	;# 
  1049  0194                     	;# 
  1050  0195                     	;# 
  1051  0196                     	;# 
  1052  0199                     	;# 
  1053  019A                     	;# 
  1054  019B                     	;# 
  1055  019B                     	;# 
  1056  019B                     	;# 
  1057  019B                     	;# 
  1058  019C                     	;# 
  1059  019C                     	;# 
  1060  019D                     	;# 
  1061  019E                     	;# 
  1062  019F                     	;# 
  1063  020C                     	;# 
  1064  020E                     	;# 
  1065  0211                     	;# 
  1066  0211                     	;# 
  1067  0212                     	;# 
  1068  0212                     	;# 
  1069  0213                     	;# 
  1070  0213                     	;# 
  1071  0214                     	;# 
  1072  0214                     	;# 
  1073  0215                     	;# 
  1074  0215                     	;# 
  1075  0215                     	;# 
  1076  0216                     	;# 
  1077  0216                     	;# 
  1078  0217                     	;# 
  1079  0217                     	;# 
  1080  0291                     	;# 
  1081  0291                     	;# 
  1082  0292                     	;# 
  1083  0293                     	;# 
  1084  0294                     	;# 
  1085  0295                     	;# 
  1086  0295                     	;# 
  1087  0296                     	;# 
  1088  0391                     	;# 
  1089  0392                     	;# 
  1090  0393                     	;# 
  1091  039A                     	;# 
  1092  039C                     	;# 
  1093  039D                     	;# 
  1094  039E                     	;# 
  1095  039F                     	;# 
  1096  0FE4                     	;# 
  1097  0FE5                     	;# 
  1098  0FE6                     	;# 
  1099  0FE7                     	;# 
  1100  0FE8                     	;# 
  1101  0FE9                     	;# 
  1102  0FEA                     	;# 
  1103  0FEB                     	;# 
  1104  0FED                     	;# 
  1105  0FEE                     	;# 
  1106  0FEF                     	;# 
  1107  0000                     	;# 
  1108  0001                     	;# 
  1109  0002                     	;# 
  1110  0003                     	;# 
  1111  0004                     	;# 
  1112  0005                     	;# 
  1113  0006                     	;# 
  1114  0007                     	;# 
  1115  0008                     	;# 
  1116  0009                     	;# 
  1117  000A                     	;# 
  1118  000B                     	;# 
  1119  000C                     	;# 
  1120  000E                     	;# 
  1121  0011                     	;# 
  1122  0012                     	;# 
  1123  0015                     	;# 
  1124  0016                     	;# 
  1125  0016                     	;# 
  1126  0017                     	;# 
  1127  0018                     	;# 
  1128  0019                     	;# 
  1129  001A                     	;# 
  1130  001B                     	;# 
  1131  001C                     	;# 
  1132  001E                     	;# 
  1133  001F                     	;# 
  1134  008C                     	;# 
  1135  008E                     	;# 
  1136  0091                     	;# 
  1137  0092                     	;# 
  1138  0095                     	;# 
  1139  0096                     	;# 
  1140  0097                     	;# 
  1141  0098                     	;# 
  1142  0099                     	;# 
  1143  009A                     	;# 
  1144  009B                     	;# 
  1145  009B                     	;# 
  1146  009C                     	;# 
  1147  009D                     	;# 
  1148  009E                     	;# 
  1149  010C                     	;# 
  1150  010E                     	;# 
  1151  0111                     	;# 
  1152  0112                     	;# 
  1153  0113                     	;# 
  1154  0114                     	;# 
  1155  0115                     	;# 
  1156  0116                     	;# 
  1157  0117                     	;# 
  1158  0118                     	;# 
  1159  0119                     	;# 
  1160  011A                     	;# 
  1161  011B                     	;# 
  1162  011D                     	;# 
  1163  011D                     	;# 
  1164  018C                     	;# 
  1165  018E                     	;# 
  1166  0191                     	;# 
  1167  0191                     	;# 
  1168  0192                     	;# 
  1169  0193                     	;# 
  1170  0193                     	;# 
  1171  0193                     	;# 
  1172  0194                     	;# 
  1173  0195                     	;# 
  1174  0196                     	;# 
  1175  0199                     	;# 
  1176  019A                     	;# 
  1177  019B                     	;# 
  1178  019B                     	;# 
  1179  019B                     	;# 
  1180  019B                     	;# 
  1181  019C                     	;# 
  1182  019C                     	;# 
  1183  019D                     	;# 
  1184  019E                     	;# 
  1185  019F                     	;# 
  1186  020C                     	;# 
  1187  020E                     	;# 
  1188  0211                     	;# 
  1189  0211                     	;# 
  1190  0212                     	;# 
  1191  0212                     	;# 
  1192  0213                     	;# 
  1193  0213                     	;# 
  1194  0214                     	;# 
  1195  0214                     	;# 
  1196  0215                     	;# 
  1197  0215                     	;# 
  1198  0215                     	;# 
  1199  0216                     	;# 
  1200  0216                     	;# 
  1201  0217                     	;# 
  1202  0217                     	;# 
  1203  0291                     	;# 
  1204  0291                     	;# 
  1205  0292                     	;# 
  1206  0293                     	;# 
  1207  0294                     	;# 
  1208  0295                     	;# 
  1209  0295                     	;# 
  1210  0296                     	;# 
  1211  0391                     	;# 
  1212  0392                     	;# 
  1213  0393                     	;# 
  1214  039A                     	;# 
  1215  039C                     	;# 
  1216  039D                     	;# 
  1217  039E                     	;# 
  1218  039F                     	;# 
  1219  0FE4                     	;# 
  1220  0FE5                     	;# 
  1221  0FE6                     	;# 
  1222  0FE7                     	;# 
  1223  0FE8                     	;# 
  1224  0FE9                     	;# 
  1225  0FEA                     	;# 
  1226  0FEB                     	;# 
  1227  0FED                     	;# 
  1228  0FEE                     	;# 
  1229  0FEF                     	;# 
  1230                           
  1231                           	psect	stringtext1
  1232  06CC                     __pstringtext1:
  1233  06CC                     _AUTOROTATION_DELAY:
  1234  06CC  3428               	retlw	40
  1235  06CD  3400               	retlw	0
  1236  06CE  3400               	retlw	0
  1237  06CF                     __end_of_AUTOROTATION_DELAY:
  1238                           
  1239                           	psect	stringtext2
  1240  06D2                     __pstringtext2:
  1241  06D2                     _GOOD_WSP_VOLTAGE:
  1242  06D2  348E               	retlw	142
  1243  06D3  3400               	retlw	0
  1244  06D4                     __end_of_GOOD_WSP_VOLTAGE:
  1245                           
  1246                           	psect	stringtext3
  1247  06D4                     __pstringtext3:
  1248  06D4                     _BAD_WSP_VOLTAGE:
  1249  06D4  3480               	retlw	128
  1250  06D5  3400               	retlw	0
  1251  06D6                     __end_of_BAD_WSP_VOLTAGE:
  1252                           
  1253                           	psect	stringtext4
  1254  06D6                     __pstringtext4:
  1255  06D6                     _UP_RESISTANSE:
  1256  06D6  3420               	retlw	32
  1257  06D7  344E               	retlw	78
  1258  06D8                     __end_of_UP_RESISTANSE:
  1259                           
  1260                           	psect	stringtext5
  1261  06D8                     __pstringtext5:
  1262  06D8                     _AUTOROTATION_DAYS:
  1263  06D8  340E               	retlw	14
  1264  06D9  3400               	retlw	0
  1265  06DA                     __end_of_AUTOROTATION_DAYS:
  1266                           
  1267                           	psect	stringtext6
  1268  06E0                     __pstringtext6:
  1269  06E0                     _MELODY_REPEAT_DELAY:
  1270  06E0  3405               	retlw	5
  1271  06E1                     __end_of_MELODY_REPEAT_DELAY:
  1272                           
  1273                           	psect	stringtext7
  1274  06E1                     __pstringtext7:
  1275  06E1                     _MOVING_WAIT_DELAY:
  1276  06E1  3401               	retlw	1
  1277  06E2                     __end_of_MOVING_WAIT_DELAY:
  1278                           
  1279                           	psect	stringtext8
  1280  06E2                     __pstringtext8:
  1281  06E2                     _FRIMWARE_VERSION_EEPROM_ADR:
  1282  06E2  3401               	retlw	1
  1283  06E3                     __end_of_FRIMWARE_VERSION_EEPROM_ADR:
  1284                           
  1285                           	psect	stringtext9
  1286  06DA                     __pstringtext9:
  1287  06DA                     _HIGH_WATER_RESISTANSE:
  1288  06DA  34A8               	retlw	168
  1289  06DB  3461               	retlw	97
  1290  06DC                     __end_of_HIGH_WATER_RESISTANSE:
  1291                           
  1292                           	psect	stringtext10
  1293  06DC                     __pstringtext10:
  1294  06DC                     _LOW_WATER_RESISTANSE:
  1295  06DC  3420               	retlw	32
  1296  06DD  344E               	retlw	78
  1297  06DE                     __end_of_LOW_WATER_RESISTANSE:
  1298                           
  1299                           	psect	stringtext11
  1300  06E3                     __pstringtext11:
  1301  06E3                     _RELE_GAP:
  1302  06E3  3401               	retlw	1
  1303  06E4                     __end_of_RELE_GAP:
  1304                           
  1305                           	psect	stringtext12
  1306  06E4                     __pstringtext12:
  1307  06E4                     _RELE_POWER_AUTOROTATION_DELAY:
  1308  06E4  340A               	retlw	10
  1309  06E5                     __end_of_RELE_POWER_AUTOROTATION_DELAY:
  1310                           
  1311                           	psect	stringtext13
  1312  06E5                     __pstringtext13:
  1313  06E5                     _RELE_POWER_WORK_DELAY:
  1314  06E5  3419               	retlw	25
  1315  06E6                     __end_of_RELE_POWER_WORK_DELAY:
  1316                           
  1317                           	psect	stringtext14
  1318  06E6                     __pstringtext14:
  1319  06E6                     _JUMP_MEAS_COUNT:
  1320  06E6  340A               	retlw	10
  1321  06E7                     __end_of_JUMP_MEAS_COUNT:
  1322                           
  1323                           	psect	stringtext15
  1324  06E7                     __pstringtext15:
  1325  06E7                     _FUN_MEAS_COUNT:
  1326  06E7  340A               	retlw	10
  1327  06E8                     __end_of_FUN_MEAS_COUNT:
  1328                           
  1329                           	psect	stringtext16
  1330  06E8                     __pstringtext16:
  1331  06E8                     _WSP_MEAS_COUNT:
  1332  06E8  3404               	retlw	4
  1333  06E9                     __end_of_WSP_MEAS_COUNT:
  1334                           
  1335                           	psect	stringtext17
  1336  06E9                     __pstringtext17:
  1337  06E9                     _LONG_ZUMMER_DELAY:
  1338  06E9  3482               	retlw	130
  1339  06EA                     __end_of_LONG_ZUMMER_DELAY:
  1340                           
  1341                           	psect	stringtext18
  1342  06EA                     __pstringtext18:
  1343  06EA                     _SHORT_ZUMMER_DELAY:
  1344  06EA  341E               	retlw	30
  1345  06EB                     __end_of_SHORT_ZUMMER_DELAY:
  1346                           
  1347                           	psect	nvBANK0
  1348  0054                     __pnvBANK0:
  1349  0054                     _TMR0_InterruptHandler:
  1350  0054                     	ds	2
  1351  0056                     _TMR2_InterruptHandler:
  1352  0056                     	ds	2
  1353  0058                     _timer0ReloadVal:
  1354  0058                     	ds	1
  1355  000C                     _PORTAbits	set	12
  1356  000E                     _PORTCbits	set	14
  1357  0015                     _TMR0	set	21
  1358  001C                     _T2CONbits	set	28
  1359  001C                     _T2CON	set	28
  1360  001A                     _TMR2	set	26
  1361  001B                     _PR2	set	27
  1362  0011                     _PIR1bits	set	17
  1363  000B                     _INTCONbits	set	11
  1364  005F                     _GIE	set	95
  1365  008C                     _TRISAbits	set	140
  1366  008E                     _TRISCbits	set	142
  1367  0095                     _OPTION_REG	set	149
  1368  0091                     _PIE1bits	set	145
  1369  0095                     _OPTION_REGbits	set	149
  1370  008E                     _TRISC	set	142
  1371  008C                     _TRISA	set	140
  1372  009D                     _ADCON0bits	set	157
  1373  009D                     _ADCON0	set	157
  1374  009C                     _ADRESH	set	156
  1375  009B                     _ADRESL	set	155
  1376  009E                     _ADCON1	set	158
  1377  0097                     _WDTCON	set	151
  1378  0098                     _OSCTUNE	set	152
  1379  0099                     _OSCCON	set	153
  1380  010C                     _LATAbits	set	268
  1381  010E                     _LATCbits	set	270
  1382  011D                     _APFCON	set	285
  1383  010E                     _LATC	set	270
  1384  010C                     _LATA	set	268
  1385  0116                     _BORCON	set	278
  1386  0191                     _EEADR	set	401
  1387  0196                     _EECON2	set	406
  1388  0193                     _EEDATA	set	403
  1389  018C                     _ANSELAbits	set	396
  1390  018E                     _ANSELCbits	set	398
  1391  018C                     _ANSELA	set	396
  1392  018E                     _ANSELC	set	398
  1393  0CA8                     _RD	set	3240
  1394  0CAA                     _WREN	set	3242
  1395  0CA9                     _WR	set	3241
  1396  020E                     _WPUC	set	526
  1397  020C                     _WPUA	set	524
  1398                           
  1399                           	psect	cinit
  1400  002E                     start_initialization:	
  1401                           ; #config settings
  1402                           
  1403  002E                     __initialization:
  1404                           
  1405                           ; Clear objects allocated to BITCOMMON
  1406  002E  01F0               	clrf	(__pbitbssCOMMON/(0+8))& (0+127)
  1407  002F  01F1               	clrf	((__pbitbssCOMMON/(0+8)+1))& (0+127)
  1408  0030  01F2               	clrf	((__pbitbssCOMMON/(0+8)+2))& (0+127)
  1409                           
  1410                           ; Clear objects allocated to COMMON
  1411  0031  01F9               	clrf	__pbssCOMMON& (0+127)
  1412  0032  01FA               	clrf	(__pbssCOMMON+1)& (0+127)
  1413  0033  01FB               	clrf	(__pbssCOMMON+2)& (0+127)
  1414  0034  01FC               	clrf	(__pbssCOMMON+3)& (0+127)
  1415  0035  01FD               	clrf	(__pbssCOMMON+4)& (0+127)
  1416                           
  1417                           ; Clear objects allocated to BITBANK0
  1418  0036  3020               	movlw	low (__pbitbssBANK0/(0+8))
  1419  0037  0084               	movwf	4
  1420  0038  3000               	movlw	high (__pbitbssBANK0/(0+8))
  1421  0039  0085               	movwf	5
  1422  003A  3015               	movlw	21
  1423  003B  3186  26AC  3180   	fcall	clear_ram0
  1424                           
  1425                           ; Clear objects allocated to BANK0
  1426  003E  3035               	movlw	low __pbssBANK0
  1427  003F  0084               	movwf	4
  1428  0040  3000               	movlw	high __pbssBANK0
  1429  0041  0085               	movwf	5
  1430  0042  301F               	movlw	31
  1431  0043  3186  26AC  3180   	fcall	clear_ram0
  1432  0046                     end_of_initialization:	
  1433                           ;End of C runtime variable initialization code
  1434                           
  1435  0046                     __end_of__initialization:
  1436  0046  107E               	bcf	int$flags,0	;clear compiler interrupt flag (level 1)
  1437  0047  0020               	movlb	0
  1438  0048  2C51               	ljmp	_main	;jump to C main() function
  1439                           
  1440                           	psect	bitbssCOMMON
  1441  0380                     __pbitbssCOMMON:
  1442  0380                     __ccovbit1_23:
  1443  0380                     	ds	1
  1444  0381                     __ccovbit5_22:
  1445  0381                     	ds	1
  1446  0382                     __ccovbit3_21:
  1447  0382                     	ds	1
  1448  0383                     __ccovbit6_20:
  1449  0383                     	ds	1
  1450  0384                     __ccovbit0_19:
  1451  0384                     	ds	1
  1452  0385                     __ccovbit1_18:
  1453  0385                     	ds	1
  1454  0386                     __ccovbit4_17:
  1455  0386                     	ds	1
  1456  0387                     __ccovbit2_16:
  1457  0387                     	ds	1
  1458  0388                     __ccovbit1_15:
  1459  0388                     	ds	1
  1460  0389                     __ccovbit6_14:
  1461  0389                     	ds	1
  1462  038A                     __ccovbit12_13:
  1463  038A                     	ds	1
  1464  038B                     __ccovbit10_12:
  1465  038B                     	ds	1
  1466  038C                     __ccovbit6_11:
  1467  038C                     	ds	1
  1468  038D                     __ccovbit5_10:
  1469  038D                     	ds	1
  1470  038E                     __ccovbit3_9:
  1471  038E                     	ds	1
  1472  038F                     __ccovbit2_8:
  1473  038F                     	ds	1
  1474  0390                     __ccovbit1_7:
  1475  0390                     	ds	1
  1476  0391                     __ccovbit6_6:
  1477  0391                     	ds	1
  1478  0392                     __ccovbit9_5:
  1479  0392                     	ds	1
  1480  0393                     __ccovbit3_4:
  1481  0393                     	ds	1
  1482  0394                     __ccovbit1_3:
  1483  0394                     	ds	1
  1484  0395                     __ccovbit3_2:
  1485  0395                     	ds	1
  1486  0396                     __ccovbit1_1:
  1487  0396                     	ds	1
  1488  0397                     EEPROM_WriteByte@status:
  1489  0397                     	ds	1
  1490                           
  1491                           	psect	bssCOMMON
  1492  0079                     __pbssCOMMON:
  1493  0079                     _ff:
  1494  0079                     	ds	4
  1495  007D                     _beep_short_count:
  1496  007D                     	ds	1
  1497                           
  1498                           	psect	bitbssBANK0
  1499  0100                     __pbitbssBANK0:
  1500  0100                     __ccovbit8_185:
  1501  0100                     	ds	1
  1502  0101                     __ccovbit3_184:
  1503  0101                     	ds	1
  1504  0102                     __ccovbit9_183:
  1505  0102                     	ds	1
  1506  0103                     __ccovbit6_182:
  1507  0103                     	ds	1
  1508  0104                     __ccovbit4_181:
  1509  0104                     	ds	1
  1510  0105                     __ccovbit31_180:
  1511  0105                     	ds	1
  1512  0106                     __ccovbit22_179:
  1513  0106                     	ds	1
  1514  0107                     __ccovbit20_178:
  1515  0107                     	ds	1
  1516  0108                     __ccovbit17_177:
  1517  0108                     	ds	1
  1518  0109                     __ccovbit14_176:
  1519  0109                     	ds	1
  1520  010A                     __ccovbit12_175:
  1521  010A                     	ds	1
  1522  010B                     __ccovbit7_174:
  1523  010B                     	ds	1
  1524  010C                     __ccovbit5_173:
  1525  010C                     	ds	1
  1526  010D                     __ccovbit31_172:
  1527  010D                     	ds	1
  1528  010E                     __ccovbit29_171:
  1529  010E                     	ds	1
  1530  010F                     __ccovbit26_170:
  1531  010F                     	ds	1
  1532  0110                     __ccovbit23_169:
  1533  0110                     	ds	1
  1534  0111                     __ccovbit21_168:
  1535  0111                     	ds	1
  1536  0112                     __ccovbit13_167:
  1537  0112                     	ds	1
  1538  0113                     __ccovbit11_166:
  1539  0113                     	ds	1
  1540  0114                     __ccovbit30_165:
  1541  0114                     	ds	1
  1542  0115                     __ccovbit28_164:
  1543  0115                     	ds	1
  1544  0116                     __ccovbit26_163:
  1545  0116                     	ds	1
  1546  0117                     __ccovbit22_162:
  1547  0117                     	ds	1
  1548  0118                     __ccovbit17_161:
  1549  0118                     	ds	1
  1550  0119                     __ccovbit16_160:
  1551  0119                     	ds	1
  1552  011A                     __ccovbit14_159:
  1553  011A                     	ds	1
  1554  011B                     __ccovbit3_158:
  1555  011B                     	ds	1
  1556  011C                     __ccovbit7_157:
  1557  011C                     	ds	1
  1558  011D                     __ccovbit4_156:
  1559  011D                     	ds	1
  1560  011E                     __ccovbit1_155:
  1561  011E                     	ds	1
  1562  011F                     __ccovbit4_154:
  1563  011F                     	ds	1
  1564  0120                     __ccovbit2_153:
  1565  0120                     	ds	1
  1566  0121                     __ccovbit20_152:
  1567  0121                     	ds	1
  1568  0122                     __ccovbit18_151:
  1569  0122                     	ds	1
  1570  0123                     __ccovbit12_150:
  1571  0123                     	ds	1
  1572  0124                     __ccovbit4_149:
  1573  0124                     	ds	1
  1574  0125                     __ccovbit3_148:
  1575  0125                     	ds	1
  1576  0126                     __ccovbit4_147:
  1577  0126                     	ds	1
  1578  0127                     __ccovbit2_146:
  1579  0127                     	ds	1
  1580  0128                     __ccovbit1_145:
  1581  0128                     	ds	1
  1582  0129                     __ccovbit22_144:
  1583  0129                     	ds	1
  1584  012A                     __ccovbit17_143:
  1585  012A                     	ds	1
  1586  012B                     __ccovbit16_142:
  1587  012B                     	ds	1
  1588  012C                     __ccovbit14_141:
  1589  012C                     	ds	1
  1590  012D                     __ccovbit10_140:
  1591  012D                     	ds	1
  1592  012E                     __ccovbit8_139:
  1593  012E                     	ds	1
  1594  012F                     __ccovbit5_138:
  1595  012F                     	ds	1
  1596  0130                     __ccovbit4_137:
  1597  0130                     	ds	1
  1598  0131                     __ccovbit2_136:
  1599  0131                     	ds	1
  1600  0132                     __ccovbit1_135:
  1601  0132                     	ds	1
  1602  0133                     __ccovbit31_134:
  1603  0133                     	ds	1
  1604  0134                     __ccovbit29_133:
  1605  0134                     	ds	1
  1606  0135                     __ccovbit23_132:
  1607  0135                     	ds	1
  1608  0136                     __ccovbit21_131:
  1609  0136                     	ds	1
  1610  0137                     __ccovbit19_130:
  1611  0137                     	ds	1
  1612  0138                     __ccovbit18_129:
  1613  0138                     	ds	1
  1614  0139                     __ccovbit16_128:
  1615  0139                     	ds	1
  1616  013A                     __ccovbit14_127:
  1617  013A                     	ds	1
  1618  013B                     __ccovbit10_126:
  1619  013B                     	ds	1
  1620  013C                     __ccovbit8_125:
  1621  013C                     	ds	1
  1622  013D                     __ccovbit4_124:
  1623  013D                     	ds	1
  1624  013E                     __ccovbit3_123:
  1625  013E                     	ds	1
  1626  013F                     __ccovbit5_122:
  1627  013F                     	ds	1
  1628  0140                     __ccovbit3_121:
  1629  0140                     	ds	1
  1630  0141                     __ccovbit1_120:
  1631  0141                     	ds	1
  1632  0142                     __ccovbit8_119:
  1633  0142                     	ds	1
  1634  0143                     __ccovbit5_118:
  1635  0143                     	ds	1
  1636  0144                     __ccovbit3_117:
  1637  0144                     	ds	1
  1638  0145                     __ccovbit1_116:
  1639  0145                     	ds	1
  1640  0146                     __ccovbit23_115:
  1641  0146                     	ds	1
  1642  0147                     __ccovbit20_114:
  1643  0147                     	ds	1
  1644  0148                     __ccovbit16_113:
  1645  0148                     	ds	1
  1646  0149                     __ccovbit15_112:
  1647  0149                     	ds	1
  1648  014A                     __ccovbit14_111:
  1649  014A                     	ds	1
  1650  014B                     __ccovbit13_110:
  1651  014B                     	ds	1
  1652  014C                     __ccovbit12_109:
  1653  014C                     	ds	1
  1654  014D                     __ccovbit11_108:
  1655  014D                     	ds	1
  1656  014E                     __ccovbit9_107:
  1657  014E                     	ds	1
  1658  014F                     __ccovbit5_106:
  1659  014F                     	ds	1
  1660  0150                     __ccovbit4_105:
  1661  0150                     	ds	1
  1662  0151                     __ccovbit3_104:
  1663  0151                     	ds	1
  1664  0152                     __ccovbit2_103:
  1665  0152                     	ds	1
  1666  0153                     __ccovbit1_102:
  1667  0153                     	ds	1
  1668  0154                     __ccovbit14_101:
  1669  0154                     	ds	1
  1670  0155                     __ccovbit10_100:
  1671  0155                     	ds	1
  1672  0156                     __ccovbit7_99:
  1673  0156                     	ds	1
  1674  0157                     __ccovbit6_98:
  1675  0157                     	ds	1
  1676  0158                     __ccovbit4_97:
  1677  0158                     	ds	1
  1678  0159                     __ccovbit1_96:
  1679  0159                     	ds	1
  1680  015A                     __ccovbit19_95:
  1681  015A                     	ds	1
  1682  015B                     __ccovbit17_94:
  1683  015B                     	ds	1
  1684  015C                     __ccovbit15_93:
  1685  015C                     	ds	1
  1686  015D                     __ccovbit14_92:
  1687  015D                     	ds	1
  1688  015E                     __ccovbit13_91:
  1689  015E                     	ds	1
  1690  015F                     __ccovbit12_90:
  1691  015F                     	ds	1
  1692  0160                     __ccovbit11_89:
  1693  0160                     	ds	1
  1694  0161                     __ccovbit8_88:
  1695  0161                     	ds	1
  1696  0162                     __ccovbit6_87:
  1697  0162                     	ds	1
  1698  0163                     __ccovbit5_86:
  1699  0163                     	ds	1
  1700  0164                     __ccovbit4_85:
  1701  0164                     	ds	1
  1702  0165                     __ccovbit3_84:
  1703  0165                     	ds	1
  1704  0166                     __ccovbit2_83:
  1705  0166                     	ds	1
  1706  0167                     __ccovbit1_82:
  1707  0167                     	ds	1
  1708  0168                     __ccovbit1_81:
  1709  0168                     	ds	1
  1710  0169                     __ccovbit2_80:
  1711  0169                     	ds	1
  1712  016A                     __ccovbit27_79:
  1713  016A                     	ds	1
  1714  016B                     __ccovbit23_78:
  1715  016B                     	ds	1
  1716  016C                     __ccovbit22_77:
  1717  016C                     	ds	1
  1718  016D                     __ccovbit20_76:
  1719  016D                     	ds	1
  1720  016E                     __ccovbit18_75:
  1721  016E                     	ds	1
  1722  016F                     __ccovbit15_74:
  1723  016F                     	ds	1
  1724  0170                     __ccovbit14_73:
  1725  0170                     	ds	1
  1726  0171                     __ccovbit10_72:
  1727  0171                     	ds	1
  1728  0172                     __ccovbit7_71:
  1729  0172                     	ds	1
  1730  0173                     __ccovbit6_70:
  1731  0173                     	ds	1
  1732  0174                     __ccovbit4_69:
  1733  0174                     	ds	1
  1734  0175                     __ccovbit1_68:
  1735  0175                     	ds	1
  1736  0176                     __ccovbit9_67:
  1737  0176                     	ds	1
  1738  0177                     __ccovbit5_66:
  1739  0177                     	ds	1
  1740  0178                     __ccovbit4_65:
  1741  0178                     	ds	1
  1742  0179                     __ccovbit3_64:
  1743  0179                     	ds	1
  1744  017A                     __ccovbit1_63:
  1745  017A                     	ds	1
  1746  017B                     __ccovbit9_62:
  1747  017B                     	ds	1
  1748  017C                     __ccovbit5_61:
  1749  017C                     	ds	1
  1750  017D                     __ccovbit4_60:
  1751  017D                     	ds	1
  1752  017E                     __ccovbit3_59:
  1753  017E                     	ds	1
  1754  017F                     __ccovbit1_58:
  1755  017F                     	ds	1
  1756  0180                     __ccovbit4_57:
  1757  0180                     	ds	1
  1758  0181                     __ccovbit2_56:
  1759  0181                     	ds	1
  1760  0182                     __ccovbit1_55:
  1761  0182                     	ds	1
  1762  0183                     __ccovbit4_54:
  1763  0183                     	ds	1
  1764  0184                     __ccovbit2_53:
  1765  0184                     	ds	1
  1766  0185                     __ccovbit1_52:
  1767  0185                     	ds	1
  1768  0186                     __ccovbit5_51:
  1769  0186                     	ds	1
  1770  0187                     __ccovbit3_50:
  1771  0187                     	ds	1
  1772  0188                     __ccovbit2_49:
  1773  0188                     	ds	1
  1774  0189                     __ccovbit1_48:
  1775  0189                     	ds	1
  1776  018A                     __ccovbit8_47:
  1777  018A                     	ds	1
  1778  018B                     __ccovbit5_46:
  1779  018B                     	ds	1
  1780  018C                     __ccovbit2_45:
  1781  018C                     	ds	1
  1782  018D                     __ccovbit1_44:
  1783  018D                     	ds	1
  1784  018E                     __ccovbit6_43:
  1785  018E                     	ds	1
  1786  018F                     __ccovbit4_42:
  1787  018F                     	ds	1
  1788  0190                     __ccovbit2_41:
  1789  0190                     	ds	1
  1790  0191                     __ccovbit1_40:
  1791  0191                     	ds	1
  1792  0192                     __ccovbit6_39:
  1793  0192                     	ds	1
  1794  0193                     __ccovbit4_38:
  1795  0193                     	ds	1
  1796  0194                     __ccovbit2_37:
  1797  0194                     	ds	1
  1798  0195                     __ccovbit1_36:
  1799  0195                     	ds	1
  1800  0196                     __ccovbit5_35:
  1801  0196                     	ds	1
  1802  0197                     __ccovbit3_34:
  1803  0197                     	ds	1
  1804  0198                     __ccovbit1_33:
  1805  0198                     	ds	1
  1806  0199                     __ccovbit8_32:
  1807  0199                     	ds	1
  1808  019A                     __ccovbit6_31:
  1809  019A                     	ds	1
  1810  019B                     __ccovbit2_30:
  1811  019B                     	ds	1
  1812  019C                     __ccovbit8_29:
  1813  019C                     	ds	1
  1814  019D                     __ccovbit6_28:
  1815  019D                     	ds	1
  1816  019E                     __ccovbit2_27:
  1817  019E                     	ds	1
  1818  019F                     __ccovbit1_26:
  1819  019F                     	ds	1
  1820  01A0                     __ccovbit1_25:
  1821  01A0                     	ds	1
  1822  01A1                     __ccovbit0_24:
  1823  01A1                     	ds	1
  1824                           
  1825                           	psect	bssBANK0
  1826  0035                     __pbssBANK0:
  1827  0035                     _time_rotation:
  1828  0035                     	ds	3
  1829  0038                     ms_tick@s_count:
  1830  0038                     	ds	2
  1831  003A                     ms_tick@ms_count:
  1832  003A                     	ds	2
  1833  003C                     _time_zummer_long:
  1834  003C                     	ds	2
  1835  003E                     _time_zummer_short:
  1836  003E                     	ds	2
  1837  0040                     _time_tone:
  1838  0040                     	ds	2
  1839  0042                     _time_rele_gap:
  1840  0042                     	ds	2
  1841  0044                     _time_rele_control:
  1842  0044                     	ds	2
  1843  0046                     _time_rele_power:
  1844  0046                     	ds	2
  1845  0048                     _ADC_InterruptHandler:
  1846  0048                     	ds	2
  1847  004A                     get_jump@jump_counter:
  1848  004A                     	ds	1
  1849  004B                     get_fun@fun_counter:
  1850  004B                     	ds	1
  1851  004C                     get_wsp@bad_measures_counter:
  1852  004C                     	ds	1
  1853  004D                     sec_work@iled:
  1854  004D                     	ds	1
  1855  004E                     _beep_double_count:
  1856  004E                     	ds	1
  1857  004F                     _beep_long_count:
  1858  004F                     	ds	1
  1859  0050                     _time_meas:
  1860  0050                     	ds	1
  1861  0051                     _time_moving_wait:
  1862  0051                     	ds	1
  1863  0052                     _time_melody:
  1864  0052                     	ds	1
  1865  0053                     _sec_count:
  1866  0053                     	ds	1
  1867                           
  1868                           	psect	clrtext
  1869  06AC                     clear_ram0:	
  1870                           ;	Called with FSR0 containing the base address, and
  1871                           ;	WREG with the size to clear
  1872                           
  1873  06AC  0064               	clrwdt	;clear the watchdog before getting into this loop
  1874  06AD                     clrloop0:
  1875  06AD  0180               	clrf	0	;clear RAM location pointed to by FSR
  1876  06AE  3101               	addfsr 0,1
  1877  06AF  0B89               	decfsz	9,f	;Have we reached the end of clearing yet?
  1878  06B0  2EAD               	goto	clrloop0	;have we reached the end yet?
  1879  06B1  3400               	retlw	0	;all done for this memory range, return
  1880                           
  1881                           	psect	cstackCOMMON
  1882  0073                     __pcstackCOMMON:
  1883  0073                     ?_PIN_MANAGER_Initialize:
  1884  0073                     ?_OSCILLATOR_Initialize:	
  1885                           ; 1 bytes @ 0x0
  1886                           
  1887  0073                     ?_WDT_Initialize:	
  1888                           ; 1 bytes @ 0x0
  1889                           
  1890  0073                     ?_TMR2_Initialize:	
  1891                           ; 1 bytes @ 0x0
  1892                           
  1893  0073                     ?_ADC_Initialize:	
  1894                           ; 1 bytes @ 0x0
  1895                           
  1896  0073                     ?_TMR0_Initialize:	
  1897                           ; 1 bytes @ 0x0
  1898                           
  1899  0073                     ?_TMR0_ISR:	
  1900                           ; 1 bytes @ 0x0
  1901                           
  1902  0073                     ??_TMR0_ISR:	
  1903                           ; 1 bytes @ 0x0
  1904                           
  1905  0073                     ?_TMR2_ISR:	
  1906                           ; 1 bytes @ 0x0
  1907                           
  1908  0073                     ?_TMR2_DefaultInterruptHandler:	
  1909                           ; 1 bytes @ 0x0
  1910                           
  1911  0073                     ??_TMR2_DefaultInterruptHandler:	
  1912                           ; 1 bytes @ 0x0
  1913                           
  1914  0073                     ?_TMR0_DefaultInterruptHandler:	
  1915                           ; 1 bytes @ 0x0
  1916                           
  1917  0073                     ??_TMR0_DefaultInterruptHandler:	
  1918                           ; 1 bytes @ 0x0
  1919                           
  1920  0073                     ?_EEPROM_ReadByte:	
  1921                           ; 1 bytes @ 0x0
  1922                           
  1923  0073                     ?_SYSTEM_Initialize:	
  1924                           ; 1 bytes @ 0x0
  1925                           
  1926  0073                     ?_ADC_GetConversion:	
  1927                           ; 1 bytes @ 0x0
  1928                           
  1929  0073                     ?_INTERRUPT_InterruptManager:	
  1930                           ; 1 bytes @ 0x0
  1931                           
  1932  0073                     ?_TMR2_StartTimer:	
  1933                           ; 1 bytes @ 0x0
  1934                           
  1935  0073                     ?_start_tone:	
  1936                           ; 1 bytes @ 0x0
  1937                           
  1938  0073                     ??_start_tone:	
  1939                           ; 1 bytes @ 0x0
  1940                           
  1941  0073                     ?_stop_tone:	
  1942                           ; 1 bytes @ 0x0
  1943                           
  1944  0073                     ??_stop_tone:	
  1945                           ; 1 bytes @ 0x0
  1946                           
  1947  0073                     ?_beep_short:	
  1948                           ; 1 bytes @ 0x0
  1949                           
  1950  0073                     ??_beep_short:	
  1951                           ; 1 bytes @ 0x0
  1952                           
  1953  0073                     ?_beep_long:	
  1954                           ; 1 bytes @ 0x0
  1955                           
  1956  0073                     ??_beep_long:	
  1957                           ; 1 bytes @ 0x0
  1958                           
  1959  0073                     ?_beep_double:	
  1960                           ; 1 bytes @ 0x0
  1961                           
  1962  0073                     ??_beep_double:	
  1963                           ; 1 bytes @ 0x0
  1964                           
  1965  0073                     ?_go_close:	
  1966                           ; 1 bytes @ 0x0
  1967                           
  1968  0073                     ?_go_close_short:	
  1969                           ; 1 bytes @ 0x0
  1970                           
  1971  0073                     ?_go_open:	
  1972                           ; 1 bytes @ 0x0
  1973                           
  1974  0073                     ?_go_close_alt:	
  1975                           ; 1 bytes @ 0x0
  1976                           
  1977  0073                     ?_go_open_alt:	
  1978                           ; 1 bytes @ 0x0
  1979                           
  1980  0073                     ?_rele_off:	
  1981                           ; 1 bytes @ 0x0
  1982                           
  1983  0073                     ?_close:	
  1984                           ; 1 bytes @ 0x0
  1985                           
  1986  0073                     ?_open:	
  1987                           ; 1 bytes @ 0x0
  1988                           
  1989  0073                     ?_rele_tick:	
  1990                           ; 1 bytes @ 0x0
  1991                           
  1992  0073                     ??_rele_tick:	
  1993                           ; 1 bytes @ 0x0
  1994                           
  1995  0073                     ?_start_alarm:	
  1996                           ; 1 bytes @ 0x0
  1997                           
  1998  0073                     ?_clear_alarm:	
  1999                           ; 1 bytes @ 0x0
  2000                           
  2001  0073                     ?_fun_work:	
  2002                           ; 1 bytes @ 0x0
  2003                           
  2004  0073                     ?_switch_wm:	
  2005                           ; 1 bytes @ 0x0
  2006                           
  2007  0073                     ?_autorotation_work:	
  2008                           ; 1 bytes @ 0x0
  2009                           
  2010  0073                     ?_minute_tick:	
  2011                           ; 1 bytes @ 0x0
  2012                           
  2013  0073                     ??_minute_tick:	
  2014                           ; 1 bytes @ 0x0
  2015                           
  2016  0073                     ?_sec_30_work:	
  2017                           ; 1 bytes @ 0x0
  2018                           
  2019  0073                     ??_sec_30_work:	
  2020                           ; 1 bytes @ 0x0
  2021                           
  2022  0073                     ?_sec_work:	
  2023                           ; 1 bytes @ 0x0
  2024                           
  2025  0073                     ?_ms_200_work:	
  2026                           ; 1 bytes @ 0x0
  2027                           
  2028  0073                     ??_ms_200_work:	
  2029                           ; 1 bytes @ 0x0
  2030                           
  2031  0073                     ?_ms_100_work:	
  2032                           ; 1 bytes @ 0x0
  2033                           
  2034  0073                     ??_ms_100_work:	
  2035                           ; 1 bytes @ 0x0
  2036                           
  2037  0073                     ?_ms_tick:	
  2038                           ; 1 bytes @ 0x0
  2039                           
  2040  0073                     ?_eeprom_set:	
  2041                           ; 1 bytes @ 0x0
  2042                           
  2043  0073                     ?_hardware_work:	
  2044                           ; 1 bytes @ 0x0
  2045                           
  2046  0073                     ?_zummer_switch:	
  2047                           ; 1 bytes @ 0x0
  2048                           
  2049  0073                     ??_zummer_switch:	
  2050                           ; 1 bytes @ 0x0
  2051                           
  2052  0073                     ?_get_wsp:	
  2053                           ; 1 bytes @ 0x0
  2054                           
  2055  0073                     ?_get_fun:	
  2056                           ; 1 bytes @ 0x0
  2057                           
  2058  0073                     ?_get_jump:	
  2059                           ; 1 bytes @ 0x0
  2060                           
  2061  0073                     ?_start_setup:	
  2062                           ; 1 bytes @ 0x0
  2063                           
  2064  0073                     ?_main:	
  2065                           ; 1 bytes @ 0x0
  2066                           
  2067                           
  2068                           ; 1 bytes @ 0x0
  2069  0073                     	ds	1
  2070  0074                     ??_sec_work:
  2071                           
  2072                           ; 1 bytes @ 0x1
  2073  0074                     	ds	1
  2074  0075                     ??_PIN_MANAGER_Initialize:
  2075  0075                     ??_OSCILLATOR_Initialize:	
  2076                           ; 1 bytes @ 0x2
  2077                           
  2078  0075                     ??_WDT_Initialize:	
  2079                           ; 1 bytes @ 0x2
  2080                           
  2081  0075                     ??_ADC_Initialize:	
  2082                           ; 1 bytes @ 0x2
  2083                           
  2084  0075                     ??_TMR2_ISR:	
  2085                           ; 1 bytes @ 0x2
  2086                           
  2087  0075                     ?_TMR2_SetInterruptHandler:	
  2088                           ; 1 bytes @ 0x2
  2089                           
  2090  0075                     ?_TMR0_SetInterruptHandler:	
  2091                           ; 1 bytes @ 0x2
  2092                           
  2093  0075                     ??_EEPROM_ReadByte:	
  2094                           ; 1 bytes @ 0x2
  2095                           
  2096  0075                     ?_EEPROM_WriteByte:	
  2097                           ; 1 bytes @ 0x2
  2098                           
  2099  0075                     ??_ADC_GetConversion:	
  2100                           ; 1 bytes @ 0x2
  2101                           
  2102  0075                     ??_INTERRUPT_InterruptManager:	
  2103                           ; 1 bytes @ 0x2
  2104                           
  2105  0075                     ??_TMR2_StartTimer:	
  2106                           ; 1 bytes @ 0x2
  2107                           
  2108  0075                     ??_go_close:	
  2109                           ; 1 bytes @ 0x2
  2110                           
  2111  0075                     ??_go_close_short:	
  2112                           ; 1 bytes @ 0x2
  2113                           
  2114  0075                     ??_go_open:	
  2115                           ; 1 bytes @ 0x2
  2116                           
  2117  0075                     ??_go_close_alt:	
  2118                           ; 1 bytes @ 0x2
  2119                           
  2120  0075                     ??_go_open_alt:	
  2121                           ; 1 bytes @ 0x2
  2122                           
  2123  0075                     ??_rele_off:	
  2124                           ; 1 bytes @ 0x2
  2125                           
  2126  0075                     ??_close:	
  2127                           ; 1 bytes @ 0x2
  2128                           
  2129  0075                     ??_open:	
  2130                           ; 1 bytes @ 0x2
  2131                           
  2132  0075                     ??_start_alarm:	
  2133                           ; 1 bytes @ 0x2
  2134                           
  2135  0075                     ??_clear_alarm:	
  2136                           ; 1 bytes @ 0x2
  2137                           
  2138  0075                     ??_fun_work:	
  2139                           ; 1 bytes @ 0x2
  2140                           
  2141  0075                     ??_switch_wm:	
  2142                           ; 1 bytes @ 0x2
  2143                           
  2144  0075                     ??_autorotation_work:	
  2145                           ; 1 bytes @ 0x2
  2146                           
  2147  0075                     ??_ms_tick:	
  2148                           ; 1 bytes @ 0x2
  2149                           
  2150  0075                     ??_hardware_work:	
  2151                           ; 1 bytes @ 0x2
  2152                           
  2153  0075                     ??_get_fun:	
  2154                           ; 1 bytes @ 0x2
  2155                           
  2156  0075                     ??_get_jump:	
  2157                           ; 1 bytes @ 0x2
  2158                           
  2159  0075                     EEPROM_WriteByte@dt:	
  2160                           ; 1 bytes @ 0x2
  2161                           
  2162  0075                     TMR2_SetInterruptHandler@InterruptHandler:	
  2163                           ; 1 bytes @ 0x2
  2164                           
  2165  0075                     TMR0_SetInterruptHandler@InterruptHandler:	
  2166                           ; 2 bytes @ 0x2
  2167                           
  2168                           
  2169                           ; 2 bytes @ 0x2
  2170  0075                     	ds	1
  2171  0076                     ??_EEPROM_WriteByte:
  2172  0076                     ADC_GetConversion@channel:	
  2173                           ; 1 bytes @ 0x3
  2174                           
  2175                           
  2176                           ; 1 bytes @ 0x3
  2177  0076                     	ds	1
  2178  0077                     ??_TMR2_Initialize:
  2179  0077                     ??_TMR0_Initialize:	
  2180                           ; 1 bytes @ 0x4
  2181                           
  2182  0077                     ??_TMR2_SetInterruptHandler:	
  2183                           ; 1 bytes @ 0x4
  2184                           
  2185  0077                     ??_TMR0_SetInterruptHandler:	
  2186                           ; 1 bytes @ 0x4
  2187                           
  2188  0077                     ??_get_wsp:	
  2189                           ; 1 bytes @ 0x4
  2190                           
  2191  0077                     EEPROM_ReadByte@addr:	
  2192                           ; 1 bytes @ 0x4
  2193                           
  2194                           
  2195                           ; 1 bytes @ 0x4
  2196  0077                     	ds	1
  2197  0078                     ??_SYSTEM_Initialize:
  2198  0078                     EEPROM_WriteByte@addr:	
  2199                           ; 1 bytes @ 0x5
  2200                           
  2201                           
  2202                           ; 1 bytes @ 0x5
  2203  0078                     	ds	1
  2204  0079                     ??_start_setup:
  2205  0079                     ??_main:	
  2206                           ; 1 bytes @ 0x6
  2207                           
  2208                           
  2209                           	psect	cstackBANK0
  2210  0059                     __pcstackBANK0:	
  2211                           ; 1 bytes @ 0x6
  2212                           
  2213  0059                     ??_eeprom_set:
  2214  0059                     get_wsp@res:	
  2215                           ; 1 bytes @ 0x0
  2216                           
  2217                           
  2218                           ; 2 bytes @ 0x0
  2219  0059                     	ds	1
  2220  005A                     eeprom_set@vers:
  2221                           
  2222                           ; 1 bytes @ 0x1
  2223  005A                     	ds	1
  2224                           
  2225                           	psect	maintext
  2226  0451                     __pmaintext:	
  2227 ;;
  2228 ;;Main: autosize = 0, tempsize = 0, incstack = 0, save=0
  2229 ;;
  2230 ;; *************** function _main *****************
  2231 ;; Defined at:
  2232 ;;		line 836 in file "main.c"
  2233 ;; Parameters:    Size  Location     Type
  2234 ;;		None
  2235 ;; Auto vars:     Size  Location     Type
  2236 ;;		None
  2237 ;; Return value:  Size  Location     Type
  2238 ;;                  1    wreg      void 
  2239 ;; Registers used:
  2240 ;;		wreg, status,2, status,0, pclath, cstack
  2241 ;; Tracked objects:
  2242 ;;		On entry : B1F/0
  2243 ;;		On exit  : 0/0
  2244 ;;		Unchanged: 0/0
  2245 ;; Data sizes:     COMMON   BANK0   BANK1
  2246 ;;      Params:         0       0       0
  2247 ;;      Locals:         0       0       0
  2248 ;;      Temps:          0       0       0
  2249 ;;      Totals:         0       0       0
  2250 ;;Total ram usage:        0 bytes
  2251 ;; Hardware stack levels required when called: 11
  2252 ;; This function calls:
  2253 ;;		_autorotation_work
  2254 ;;		_close
  2255 ;;		_fun_work
  2256 ;;		_get_fun
  2257 ;;		_get_jump
  2258 ;;		_get_wsp
  2259 ;;		_hardware_work
  2260 ;;		_start_setup
  2261 ;;		_switch_wm
  2262 ;; This function is called by:
  2263 ;;		Startup code after reset
  2264 ;; This function uses a non-reentrant model
  2265 ;;
  2266                           
  2267  0451                     _main:	
  2268                           ;psect for function _main
  2269                           
  2270                           
  2271                           ;incstack = 0
  2272                           ; Regs used in _main: [wreg+status,2+status,0+pclath+cstack]
  2273  0451                     l2699:
  2274                           
  2275                           ;main.c: 838:     start_setup();
  2276  0451  3183  231B  3184   	fcall	_start_setup
  2277  0454                     __ccov389_end_blk0:
  2278  0454                     __ccov390_start_blk1:
  2279  0454                     l550:	
  2280                           ;main.c: 841:     while (1) {
  2281                           
  2282  0454  0064               	clrwdt	;# 
  2283  0455                     __ccov390_end_blk1:
  2284  0455                     __ccov391_start_blk2:
  2285  0455                     l2701:
  2286                           
  2287                           ;main.c: 845:         hardware_work();
  2288  0455  3183  235B  3184   	fcall	_hardware_work
  2289  0458                     __ccov391_end_blk2:
  2290  0458                     __ccov392_start_blk3:
  2291  0458                     l2703:
  2292                           
  2293                           ;main.c: 849:         if (!ff.bits.ALARM_ON) {
  2294  0458  1879               	btfsc	_ff,0
  2295  0459  2C5B               	goto	u2791
  2296  045A  2C5C               	goto	u2790
  2297  045B                     u2791:
  2298  045B  2C71               	goto	l2707
  2299  045C                     __ccov392_end_blk3:
  2300  045C                     u2790:
  2301  045C                     __ccov393_start_blk4:
  2302  045C                     l2705:
  2303  045C  0020               	movlb	0	; select bank0
  2304  045D  1620               	bsf	__ccovbit4_181/(0+8),__ccovbit4_181& (0+7)	;volatile
  2305                           
  2306                           ;main.c: 851:             get_jump();
  2307  045E  3183  2396  3184   	fcall	_get_jump
  2308                           
  2309                           ;main.c: 852:             switch_wm();
  2310  0461  3183  23D1  3184   	fcall	_switch_wm
  2311                           
  2312                           ;main.c: 854:             get_fun();
  2313  0464  3182  224E  3184   	fcall	_get_fun
  2314                           
  2315                           ;main.c: 855:             fun_work();
  2316  0467  3181  21FC  3184   	fcall	_fun_work
  2317                           
  2318                           ;main.c: 857:             get_wsp();
  2319  046A  3181  213A  3184   	fcall	_get_wsp
  2320                           
  2321                           ;main.c: 859:              autorotation_work();
  2322  046D  3180  20CA  3184   	fcall	_autorotation_work
  2323                           
  2324                           ;main.c: 861:         } else {
  2325  0470  2C54               	goto	l550
  2326  0471                     __ccov393_end_blk4:
  2327  0471                     __ccov394_start_blk6:
  2328  0471                     l2707:
  2329  0471  0020               	movlb	0	; select bank0
  2330  0472  15A0               	bsf	__ccovbit6_182/(0+8),__ccovbit6_182& (0+7)	;volatile
  2331                           
  2332                           ;main.c: 862:             close();
  2333  0473  3184  24BF  3184   	fcall	_close
  2334  0476  2C54               	goto	l550
  2335  0477                     __ccov394_end_blk6:
  2336  0477  282D               	ljmp	start
  2337  0478                     __end_of_main:
  2338                           
  2339                           	psect	text1
  2340  03D1                     __ptext1:	
  2341 ;; *************** function _switch_wm *****************
  2342 ;; Defined at:
  2343 ;;		line 359 in file "main.c"
  2344 ;; Parameters:    Size  Location     Type
  2345 ;;		None
  2346 ;; Auto vars:     Size  Location     Type
  2347 ;;		None
  2348 ;; Return value:  Size  Location     Type
  2349 ;;                  1    wreg      void 
  2350 ;; Registers used:
  2351 ;;		wreg, status,2, status,0, pclath, cstack
  2352 ;; Tracked objects:
  2353 ;;		On entry : 0/0
  2354 ;;		On exit  : 0/0
  2355 ;;		Unchanged: 0/0
  2356 ;; Data sizes:     COMMON   BANK0   BANK1
  2357 ;;      Params:         0       0       0
  2358 ;;      Locals:         0       0       0
  2359 ;;      Temps:          1       0       0
  2360 ;;      Totals:         1       0       0
  2361 ;;Total ram usage:        1 bytes
  2362 ;; Hardware stack levels used: 1
  2363 ;; Hardware stack levels required when called: 8
  2364 ;; This function calls:
  2365 ;;		_rele_off
  2366 ;; This function is called by:
  2367 ;;		_main
  2368 ;; This function uses a non-reentrant model
  2369 ;;
  2370                           
  2371  03D1                     _switch_wm:	
  2372                           ;psect for function _switch_wm
  2373                           
  2374                           
  2375                           ;incstack = 0
  2376                           ; Regs used in _switch_wm: [wreg+status,2+status,0+pclath+cstack]
  2377  03D1                     l2305:
  2378                           
  2379                           ;main.c: 360:     if (ff.bits.JUMP_HIGH) {
  2380  03D1  1C7A               	btfss	_ff+1,0
  2381  03D2  2BD4               	goto	u2251
  2382  03D3  2BD5               	goto	u2250
  2383  03D4                     u2251:
  2384  03D4  2BE7               	goto	l390
  2385  03D5                     __ccov204_end_blk0:
  2386  03D5                     u2250:
  2387  03D5                     __ccov205_start_blk1:
  2388  03D5                     l2307:
  2389  03D5  0020               	movlb	0	; select bank0
  2390  03D6  14AB               	bsf	__ccovbit1_96/(0+8),__ccovbit1_96& (0+7)	;volatile
  2391                           
  2392                           ;main.c: 361:         if (!ff.bits.UNIVERSAL_VORK_MODE_ON) {
  2393  03D7  1AFB               	btfsc	_ff+2,5
  2394  03D8  2BDA               	goto	u2261
  2395  03D9  2BDB               	goto	u2260
  2396  03DA                     u2261:
  2397  03DA  2BFB               	goto	l395
  2398  03DB                     __ccov205_end_blk1:
  2399  03DB                     u2260:
  2400  03DB                     __ccov206_start_blk2:
  2401  03DB                     l2309:
  2402                           
  2403                           ;main.c: 362:             ff.bits.NORMAL_WORK_MODE_ON = 0;
  2404  03DB  127B               	bcf	_ff+2,4
  2405                           
  2406                           ;main.c: 363:             ff.bits.UNIVERSAL_VORK_MODE_ON = 1;
  2407  03DC  16FB               	bsf	_ff+2,5
  2408  03DD                     __ccov206_end_blk2:
  2409  03DD                     __ccov207_start_blk3:
  2410  03DD                     l2311:
  2411                           
  2412                           ;main.c: 364:             rele_off();
  2413  03DD  3185  25D5  3183   	fcall	_rele_off
  2414  03E0                     __ccov207_end_blk3:
  2415  03E0                     __ccov208_start_blk4:
  2416  03E0                     l2313:
  2417  03E0  0020               	movlb	0	; select bank0
  2418  03E1  142B               	bsf	__ccovbit4_97/(0+8),__ccovbit4_97& (0+7)	;volatile
  2419                           
  2420                           ;main.c: 366:             beep_long_count = 2;
  2421  03E2  3002               	movlw	2
  2422  03E3  00F5               	movwf	??_switch_wm
  2423  03E4  0875               	movf	??_switch_wm,w
  2424  03E5  00CF               	movwf	_beep_long_count
  2425  03E6  2BFB               	goto	l395
  2426  03E7                     __ccov208_end_blk4:
  2427  03E7                     __ccov209_start_blk6:
  2428  03E7                     l390:
  2429  03E7  0020               	movlb	0	; select bank0
  2430  03E8  17AA               	bsf	__ccovbit6_98/(0+8),__ccovbit6_98& (0+7)	;volatile
  2431  03E9  1FF9               	btfss	_ff,7
  2432  03EA  2BEC               	goto	u2271
  2433  03EB  2BED               	goto	u2270
  2434  03EC                     u2271:
  2435  03EC  2BFB               	goto	l395
  2436  03ED                     __ccov209_end_blk6:
  2437  03ED                     u2270:
  2438  03ED                     __ccov210_start_blk7:
  2439  03ED                     l2315:
  2440  03ED  172A               	bsf	__ccovbit7_99/(0+8),__ccovbit7_99& (0+7)	;volatile
  2441                           
  2442                           ;main.c: 369:         if (!ff.bits.NORMAL_WORK_MODE_ON) {
  2443  03EE  1A7B               	btfsc	_ff+2,4
  2444  03EF  2BF1               	goto	u2281
  2445  03F0  2BF2               	goto	u2280
  2446  03F1                     u2281:
  2447  03F1  2BFB               	goto	l395
  2448  03F2                     __ccov210_end_blk7:
  2449  03F2                     u2280:
  2450  03F2                     __ccov211_start_blk8:
  2451  03F2                     l2317:
  2452                           
  2453                           ;main.c: 370:             ff.bits.NORMAL_WORK_MODE_ON = 1;
  2454  03F2  167B               	bsf	_ff+2,4
  2455                           
  2456                           ;main.c: 371:             ff.bits.UNIVERSAL_VORK_MODE_ON = 0;
  2457  03F3  12FB               	bcf	_ff+2,5
  2458  03F4                     __ccov211_end_blk8:
  2459  03F4                     __ccov212_start_blk9:
  2460  03F4                     l2319:
  2461                           
  2462                           ;main.c: 372:             rele_off();
  2463  03F4  3185  25D5  3183   	fcall	_rele_off
  2464  03F7                     __ccov212_end_blk9:
  2465  03F7                     __ccov213_start_blk10:
  2466  03F7                     l2321:
  2467  03F7  0020               	movlb	0	; select bank0
  2468  03F8  16AA               	bsf	__ccovbit10_100/(0+8),__ccovbit10_100& (0+7)	;volatile
  2469                           
  2470                           ;main.c: 374:             beep_long_count = 1;
  2471  03F9  01CF               	clrf	_beep_long_count
  2472  03FA  0ACF               	incf	_beep_long_count,f
  2473  03FB                     __ccov213_end_blk10:
  2474  03FB                     __ccov214_start_blk14:
  2475  03FB                     l395:
  2476  03FB  162A               	bsf	__ccovbit14_101/(0+8),__ccovbit14_101& (0+7)	;volatile
  2477  03FC  0008               	return
  2478  03FD                     __end_of_switch_wm:
  2479  03FD                     
  2480                           	psect	text2
  2481  031B                     __ptext2:	
  2482 ;; *************** function _start_setup *****************
  2483 ;; Defined at:
  2484 ;;		line 756 in file "main.c"
  2485 ;; Parameters:    Size  Location     Type
  2486 ;;		None
  2487 ;; Auto vars:     Size  Location     Type
  2488 ;;		None
  2489 ;; Return value:  Size  Location     Type
  2490 ;;                  1    wreg      void 
  2491 ;; Registers used:
  2492 ;;		wreg, status,2, status,0, pclath, cstack
  2493 ;; Tracked objects:
  2494 ;;		On entry : 0/0
  2495 ;;		On exit  : 0/0
  2496 ;;		Unchanged: 0/0
  2497 ;; Data sizes:     COMMON   BANK0   BANK1
  2498 ;;      Params:         0       0       0
  2499 ;;      Locals:         0       0       0
  2500 ;;      Temps:          0       0       0
  2501 ;;      Totals:         0       0       0
  2502 ;;Total ram usage:        0 bytes
  2503 ;; Hardware stack levels used: 1
  2504 ;; Hardware stack levels required when called: 10
  2505 ;; This function calls:
  2506 ;;		_SYSTEM_Initialize
  2507 ;;		_TMR0_SetInterruptHandler
  2508 ;;		_TMR2_SetInterruptHandler
  2509 ;;		_TMR2_StartTimer
  2510 ;;		_eeprom_set
  2511 ;; This function is called by:
  2512 ;;		_main
  2513 ;; This function uses a non-reentrant model
  2514 ;;
  2515                           
  2516  031B                     _start_setup:	
  2517                           ;psect for function _start_setup
  2518                           
  2519                           
  2520                           ;incstack = 0
  2521                           ; Regs used in _start_setup: [wreg+status,2+status,0+pclath+cstack]
  2522  031B                     l2647:
  2523                           
  2524                           ;main.c: 758:     SYSTEM_Initialize();
  2525  031B  3185  25EA  3183   	fcall	_SYSTEM_Initialize
  2526  031E                     __ccov368_end_blk0:
  2527  031E                     __ccov369_start_blk1:
  2528  031E                     l2649:
  2529                           
  2530                           ;main.c: 759:     (INTCONbits.GIE = 1);
  2531  031E  178B               	bsf	11,7	;volatile
  2532  031F                     __ccov369_end_blk1:
  2533  031F                     __ccov370_start_blk2:
  2534  031F                     l2651:
  2535                           
  2536                           ;main.c: 760:     (INTCONbits.PEIE = 1);
  2537  031F  170B               	bsf	11,6	;volatile
  2538                           
  2539                           ;main.c: 763:     eeprom_set();
  2540  0320  3185  257A  3183   	fcall	_eeprom_set
  2541                           
  2542                           ;main.c: 765:     TMR0_SetInterruptHandler(zummer_switch);
  2543  0323  3076               	movlw	low _zummer_switch
  2544  0324  00F5               	movwf	TMR0_SetInterruptHandler@InterruptHandler
  2545  0325  3006               	movlw	high _zummer_switch
  2546  0326  00F6               	movwf	TMR0_SetInterruptHandler@InterruptHandler+1
  2547  0327  3186  26A5  3183   	fcall	_TMR0_SetInterruptHandler
  2548                           
  2549                           ;main.c: 766:     TMR2_SetInterruptHandler(ms_tick);
  2550  032A  30D9               	movlw	low _ms_tick
  2551  032B  00F5               	movwf	TMR2_SetInterruptHandler@InterruptHandler
  2552  032C  3002               	movlw	high _ms_tick
  2553  032D  00F6               	movwf	TMR2_SetInterruptHandler@InterruptHandler+1
  2554  032E  3186  269E  3183   	fcall	_TMR2_SetInterruptHandler
  2555  0331                     __ccov370_end_blk2:
  2556  0331                     __ccov371_start_blk3:
  2557  0331                     l2653:
  2558                           
  2559                           ;main.c: 767:     TMR2_StartTimer();
  2560  0331  3186  26C8  3183   	fcall	_TMR2_StartTimer
  2561  0334                     __ccov371_end_blk3:
  2562  0334                     __ccov372_start_blk4:
  2563  0334                     l2655:
  2564                           
  2565                           ;main.c: 784:     INTCONbits.TMR0IE = 0;
  2566  0334  128B               	bcf	11,5	;volatile
  2567                           
  2568                           ;main.c: 785:     ff.value = 0;
  2569  0335  3000               	movlw	0
  2570  0336  00FC               	movwf	_ff+3
  2571  0337  3000               	movlw	0
  2572  0338  00FB               	movwf	_ff+2
  2573  0339  3000               	movlw	0
  2574  033A  00FA               	movwf	_ff+1
  2575  033B  3000               	movlw	0
  2576  033C  00F9               	movwf	_ff
  2577  033D                     __ccov372_end_blk4:
  2578  033D                     __ccov373_start_blk6:
  2579  033D                     l2657:
  2580  033D  0022               	movlb	2	; select bank2
  2581  033E  128E               	bcf	14,5	;volatile
  2582  033F                     __ccov373_end_blk6:
  2583  033F                     __ccov374_start_blk9:
  2584  033F                     l2659:
  2585  033F  120E               	bcf	14,4	;volatile
  2586  0340                     __ccov374_end_blk9:
  2587  0340                     __ccov375_start_blk12:
  2588  0340                     l2661:
  2589  0340  100E               	bcf	14,0	;volatile
  2590  0341                     __ccov375_end_blk12:
  2591  0341                     __ccov376_start_blk15:
  2592  0341                     l2663:
  2593  0341  108E               	bcf	14,1	;volatile
  2594  0342                     __ccov376_end_blk15:
  2595  0342                     __ccov377_start_blk18:
  2596  0342                     l2665:
  2597  0342  128C               	bcf	12,5	;volatile
  2598  0343                     __ccov377_end_blk18:
  2599  0343                     __ccov378_start_blk21:
  2600  0343                     l2667:
  2601  0343  120C               	bcf	12,4	;volatile
  2602  0344                     __ccov378_end_blk21:
  2603  0344                     __ccov379_start_blk22:
  2604  0344                     l544:
  2605                           
  2606                           ;main.c: 794:     time_rotation = 0;
  2607  0344  3000               	movlw	0
  2608  0345  0020               	movlb	0	; select bank0
  2609  0346  00B5               	movwf	_time_rotation
  2610  0347  3000               	movlw	0
  2611  0348  00B6               	movwf	_time_rotation+1
  2612  0349  3000               	movlw	0
  2613  034A  00B7               	movwf	_time_rotation+2
  2614  034B                     __ccov379_end_blk22:
  2615  034B                     __ccov380_start_blk23:
  2616  034B                     l2669:
  2617                           
  2618                           ;main.c: 795:     time_rele_power = 0;
  2619  034B  01C6               	clrf	_time_rele_power
  2620  034C  01C7               	clrf	_time_rele_power+1
  2621  034D                     __ccov380_end_blk23:
  2622  034D                     __ccov381_start_blk24:
  2623  034D                     l2671:
  2624                           
  2625                           ;main.c: 796:     time_rele_control = 0;
  2626  034D  01C4               	clrf	_time_rele_control
  2627  034E  01C5               	clrf	_time_rele_control+1
  2628  034F                     __ccov381_end_blk24:
  2629  034F                     __ccov382_start_blk25:
  2630  034F                     l2673:
  2631                           
  2632                           ;main.c: 797:     time_rele_gap = 0;
  2633  034F  01C2               	clrf	_time_rele_gap
  2634  0350  01C3               	clrf	_time_rele_gap+1
  2635  0351                     __ccov382_end_blk25:
  2636  0351                     __ccov383_start_blk26:
  2637  0351                     l2675:
  2638                           
  2639                           ;main.c: 798:     time_tone = 0;
  2640  0351  01C0               	clrf	_time_tone
  2641  0352  01C1               	clrf	_time_tone+1
  2642  0353                     __ccov383_end_blk26:
  2643  0353                     __ccov384_start_blk27:
  2644  0353                     l2677:
  2645                           
  2646                           ;main.c: 803:     time_melody = 0;
  2647  0353  01D2               	clrf	_time_melody
  2648  0354                     __ccov384_end_blk27:
  2649  0354                     __ccov385_start_blk28:
  2650  0354                     l2679:
  2651                           
  2652                           ;main.c: 804:     time_zummer_short = 0;
  2653  0354  01BE               	clrf	_time_zummer_short
  2654  0355  01BF               	clrf	_time_zummer_short+1
  2655  0356                     __ccov385_end_blk28:
  2656  0356                     __ccov386_start_blk29:
  2657  0356                     l2681:
  2658                           
  2659                           ;main.c: 805:     time_zummer_long = 0;
  2660  0356  01BC               	clrf	_time_zummer_long
  2661  0357  01BD               	clrf	_time_zummer_long+1
  2662  0358                     __ccov386_end_blk29:
  2663  0358                     __ccov387_start_blk30:
  2664  0358                     l2683:
  2665                           
  2666                           ;main.c: 808:     time_meas = 0;
  2667  0358  01D0               	clrf	_time_meas
  2668  0359                     __ccov387_end_blk30:
  2669  0359                     __ccov388_start_blk31:
  2670  0359                     l545:
  2671  0359  16A0               	bsf	__ccovbit31_180/(0+8),__ccovbit31_180& (0+7)	;volatile
  2672  035A  0008               	return
  2673  035B                     __end_of_start_setup:
  2674  035B                     
  2675                           	psect	text3
  2676  057A                     __ptext3:	
  2677 ;; *************** function _eeprom_set *****************
  2678 ;; Defined at:
  2679 ;;		line 564 in file "main.c"
  2680 ;; Parameters:    Size  Location     Type
  2681 ;;		None
  2682 ;; Auto vars:     Size  Location     Type
  2683 ;;  vers            1    1[BANK0 ] unsigned char 
  2684 ;; Return value:  Size  Location     Type
  2685 ;;                  1    wreg      void 
  2686 ;; Registers used:
  2687 ;;		wreg, status,2, status,0, pclath, cstack
  2688 ;; Tracked objects:
  2689 ;;		On entry : 0/0
  2690 ;;		On exit  : 0/0
  2691 ;;		Unchanged: 0/0
  2692 ;; Data sizes:     COMMON   BANK0   BANK1
  2693 ;;      Params:         0       0       0
  2694 ;;      Locals:         0       1       0
  2695 ;;      Temps:          0       1       0
  2696 ;;      Totals:         0       2       0
  2697 ;;Total ram usage:        2 bytes
  2698 ;; Hardware stack levels used: 1
  2699 ;; Hardware stack levels required when called: 8
  2700 ;; This function calls:
  2701 ;;		_EEPROM_ReadByte
  2702 ;;		_EEPROM_WriteByte
  2703 ;; This function is called by:
  2704 ;;		_start_setup
  2705 ;; This function uses a non-reentrant model
  2706 ;;
  2707                           
  2708  057A                     _eeprom_set:	
  2709                           ;psect for function _eeprom_set
  2710                           
  2711                           
  2712                           ;incstack = 0
  2713                           ; Regs used in _eeprom_set: [wreg+status,2+status,0+pclath+cstack]
  2714  057A                     l2609:
  2715                           
  2716                           ;main.c: 565:     char vers = EEPROM_ReadByte(FRIMWARE_VERSION_EEPROM_ADR);
  2717  057A  3001               	movlw	1
  2718  057B  3185  2517  3185   	fcall	_EEPROM_ReadByte
  2719  057E  0020               	movlb	0	; select bank0
  2720  057F  00D9               	movwf	??_eeprom_set
  2721  0580  0859               	movf	??_eeprom_set,w
  2722  0581  00DA               	movwf	eeprom_set@vers
  2723  0582                     __ccov301_end_blk0:
  2724  0582                     __ccov302_start_blk1:
  2725  0582                     l2611:
  2726                           
  2727                           ;main.c: 566:     if (vers == 0xFF) {
  2728  0582  0A5A               	incf	eeprom_set@vers,w
  2729  0583  1D03               	btfss	3,2
  2730  0584  2D86               	goto	u2731
  2731  0585  2D87               	goto	u2730
  2732  0586                     u2731:
  2733  0586  2D8E               	goto	l465
  2734  0587                     __ccov302_end_blk1:
  2735  0587                     u2730:
  2736  0587                     __ccov303_start_blk2:
  2737  0587                     l2613:
  2738  0587  1424               	bsf	__ccovbit2_153/(0+8),__ccovbit2_153& (0+7)	;volatile
  2739                           
  2740                           ;main.c: 567:         EEPROM_WriteByte(FRIMWARE_VERSION_EEPROM_ADR, 1);
  2741  0588  01F5               	clrf	EEPROM_WriteByte@dt
  2742  0589  0AF5               	incf	EEPROM_WriteByte@dt,f
  2743  058A  3001               	movlw	1
  2744  058B  3184  2478  3185   	fcall	_EEPROM_WriteByte
  2745  058E                     __ccov303_end_blk2:
  2746  058E                     __ccov304_start_blk4:
  2747  058E                     l465:
  2748  058E  0020               	movlb	0	; select bank0
  2749  058F  17A3               	bsf	__ccovbit4_154/(0+8),__ccovbit4_154& (0+7)	;volatile
  2750  0590  0008               	return
  2751  0591                     __end_of_eeprom_set:
  2752  0591                     
  2753                           	psect	text4
  2754  0478                     __ptext4:	
  2755 ;; *************** function _EEPROM_WriteByte *****************
  2756 ;; Defined at:
  2757 ;;		line 6 in file "eeprom.c"
  2758 ;; Parameters:    Size  Location     Type
  2759 ;;  addr            1    wreg     unsigned char 
  2760 ;;  dt              1    2[COMMON] unsigned char 
  2761 ;; Auto vars:     Size  Location     Type
  2762 ;;  addr            1    5[COMMON] unsigned char 
  2763 ;; Return value:  Size  Location     Type
  2764 ;;                  1    wreg      void 
  2765 ;; Registers used:
  2766 ;;		wreg
  2767 ;; Tracked objects:
  2768 ;;		On entry : 0/0
  2769 ;;		On exit  : 0/0
  2770 ;;		Unchanged: 0/0
  2771 ;; Data sizes:     COMMON   BANK0   BANK1
  2772 ;;      Params:         1       0       0
  2773 ;;      Locals:         1       0       0
  2774 ;;      Temps:          2       0       0
  2775 ;;      Totals:         4       0       0
  2776 ;;Total ram usage:        4 bytes
  2777 ;; Hardware stack levels used: 1
  2778 ;; Hardware stack levels required when called: 7
  2779 ;; This function calls:
  2780 ;;		Nothing
  2781 ;; This function is called by:
  2782 ;;		_eeprom_set
  2783 ;;		_EEPROM_WriteWord
  2784 ;;		_EEPROM_Writeint24
  2785 ;;		_EEPROM_WriteString
  2786 ;; This function uses a non-reentrant model
  2787 ;;
  2788                           
  2789  0478                     _EEPROM_WriteByte:	
  2790                           ;psect for function _EEPROM_WriteByte
  2791                           
  2792                           
  2793                           ;incstack = 0
  2794                           ; Regs used in _EEPROM_WriteByte: [wreg]
  2795                           ;EEPROM_WriteByte@addr stored from wreg
  2796  0478  00F8               	movwf	EEPROM_WriteByte@addr
  2797  0479                     l2579:
  2798  0479                     l574:	
  2799                           ;eeprom.c: 7:    static __bit status;;eeprom.c: 8:     while (WR);
  2800                           
  2801  0479  0023               	movlb	3	; select bank3
  2802  047A  1895               	btfsc	21,1	;volsfr
  2803  047B  2C7D               	goto	u2681
  2804  047C  2C7E               	goto	u2680
  2805  047D                     u2681:
  2806  047D  2C79               	goto	l574
  2807  047E                     __ccov396_end_blk2:
  2808  047E                     u2680:
  2809  047E                     __ccov397_start_blk3:
  2810  047E                     l576:
  2811                           
  2812                           ;eeprom.c: 9:     status = GIE;
  2813  047E  13F2               	bcf	EEPROM_WriteByte@status/(0+8),EEPROM_WriteByte@status& (0+7)
  2814  047F  1F8B               	btfss	11,7	;volatile
  2815  0480  2C82               	goto	u2695
  2816  0481  17F2               	bsf	EEPROM_WriteByte@status/(0+8),EEPROM_WriteByte@status& (0+7)
  2817  0482                     u2695:
  2818                           
  2819                           ;eeprom.c: 10:     GIE = 0;
  2820  0482  138B               	bcf	11,7	;volatile
  2821  0483                     __ccov397_end_blk3:
  2822  0483                     __ccov398_start_blk4:
  2823  0483                     l2581:
  2824                           
  2825                           ;eeprom.c: 11:     EEADR = addr;
  2826  0483  0878               	movf	EEPROM_WriteByte@addr,w
  2827  0484  00F6               	movwf	??_EEPROM_WriteByte
  2828  0485  01F7               	clrf	??_EEPROM_WriteByte+1
  2829  0486  0876               	movf	??_EEPROM_WriteByte,w
  2830  0487  0023               	movlb	3	; select bank3
  2831  0488  0091               	movwf	17	;volatile
  2832  0489  0877               	movf	??_EEPROM_WriteByte+1,w
  2833  048A  0092               	movwf	18	;volatile
  2834                           
  2835                           ;eeprom.c: 12:     EEDATA = dt;
  2836  048B  0875               	movf	EEPROM_WriteByte@dt,w
  2837  048C  0093               	movwf	19	;volatile
  2838  048D                     __ccov398_end_blk4:
  2839  048D                     __ccov399_start_blk5:
  2840  048D                     l2583:
  2841                           
  2842                           ;eeprom.c: 13:     WREN = 1;
  2843  048D  1515               	bsf	21,2	;volsfr
  2844                           
  2845                           ;eeprom.c: 14:     EECON2 = 0x55;
  2846  048E  3055               	movlw	85
  2847  048F  0096               	movwf	22	;volsfr
  2848                           
  2849                           ;eeprom.c: 15:     EECON2 = 0xAA;
  2850  0490  30AA               	movlw	170
  2851  0491  0096               	movwf	22	;volsfr
  2852  0492                     __ccov399_end_blk5:
  2853  0492                     __ccov400_start_blk6:
  2854  0492                     l2585:
  2855                           
  2856                           ;eeprom.c: 16:     WR = 1;
  2857  0492  1495               	bsf	21,1	;volsfr
  2858  0493                     __ccov400_end_blk6:
  2859  0493                     __ccov401_start_blk7:
  2860  0493                     l2587:
  2861                           
  2862                           ;eeprom.c: 17:     GIE = status;
  2863  0493  1BF2               	btfsc	EEPROM_WriteByte@status/(0+8),EEPROM_WriteByte@status& (0+7)
  2864  0494  2C96               	goto	u2701
  2865  0495  2C98               	goto	u2700
  2866  0496                     u2701:
  2867  0496  178B               	bsf	11,7	;volatile
  2868  0497  2C99               	goto	u2714
  2869  0498                     u2700:
  2870  0498  138B               	bcf	11,7	;volatile
  2871  0499                     __ccov401_end_blk7:
  2872  0499                     u2714:
  2873  0499                     __ccov402_start_blk8:
  2874  0499                     l2589:
  2875                           
  2876                           ;eeprom.c: 18:     WREN = 0;
  2877  0499  0023               	movlb	3	; select bank3
  2878  049A  1115               	bcf	21,2	;volsfr
  2879  049B                     __ccov402_end_blk8:
  2880  049B                     __ccov403_start_blk9:
  2881  049B                     l577:
  2882  049B  0020               	movlb	0	; select bank0
  2883  049C  1520               	bsf	__ccovbit9_183/(0+8),__ccovbit9_183& (0+7)	;volatile
  2884  049D  0008               	return
  2885  049E                     __end_of_EEPROM_WriteByte:
  2886  049E                     
  2887                           	psect	text5
  2888  0517                     __ptext5:	
  2889 ;; *************** function _EEPROM_ReadByte *****************
  2890 ;; Defined at:
  2891 ;;		line 21 in file "eeprom.c"
  2892 ;; Parameters:    Size  Location     Type
  2893 ;;  addr            1    wreg     unsigned char 
  2894 ;; Auto vars:     Size  Location     Type
  2895 ;;  addr            1    4[COMMON] unsigned char 
  2896 ;; Return value:  Size  Location     Type
  2897 ;;                  1    wreg      unsigned char 
  2898 ;; Registers used:
  2899 ;;		wreg
  2900 ;; Tracked objects:
  2901 ;;		On entry : 0/0
  2902 ;;		On exit  : 0/0
  2903 ;;		Unchanged: 0/0
  2904 ;; Data sizes:     COMMON   BANK0   BANK1
  2905 ;;      Params:         0       0       0
  2906 ;;      Locals:         1       0       0
  2907 ;;      Temps:          2       0       0
  2908 ;;      Totals:         3       0       0
  2909 ;;Total ram usage:        3 bytes
  2910 ;; Hardware stack levels used: 1
  2911 ;; Hardware stack levels required when called: 7
  2912 ;; This function calls:
  2913 ;;		Nothing
  2914 ;; This function is called by:
  2915 ;;		_eeprom_set
  2916 ;;		_EEPROM_ReadWord
  2917 ;;		_EEPROM_Readint24
  2918 ;;		_EEPROM_ReadString
  2919 ;; This function uses a non-reentrant model
  2920 ;;
  2921                           
  2922  0517                     _EEPROM_ReadByte:	
  2923                           ;psect for function _EEPROM_ReadByte
  2924                           
  2925                           
  2926                           ;incstack = 0
  2927                           ; Regs used in _EEPROM_ReadByte: [wreg]
  2928                           ;EEPROM_ReadByte@addr stored from wreg
  2929  0517  00F7               	movwf	EEPROM_ReadByte@addr
  2930  0518                     l2569:
  2931  0518                     l580:	
  2932                           ;eeprom.c: 22:     while (RD || WR);
  2933                           
  2934  0518  0023               	movlb	3	; select bank3
  2935  0519  1815               	btfsc	21,0	;volsfr
  2936  051A  2D1C               	goto	u2661
  2937  051B  2D1D               	goto	u2660
  2938  051C                     u2661:
  2939  051C  2D18               	goto	l580
  2940  051D                     __ccov405_end_blk2:
  2941  051D                     u2660:
  2942  051D                     __ccov406_start_blk3:
  2943  051D                     l2571:
  2944  051D  0020               	movlb	0	; select bank0
  2945  051E  14A0               	bsf	__ccovbit3_184/(0+8),__ccovbit3_184& (0+7)	;volatile
  2946  051F  0023               	movlb	3	; select bank3
  2947  0520  1895               	btfsc	21,1	;volsfr
  2948  0521  2D23               	goto	u2671
  2949  0522  2D24               	goto	u2670
  2950  0523                     u2671:
  2951  0523  2D18               	goto	l580
  2952  0524                     __ccov406_end_blk3:
  2953  0524                     u2670:
  2954  0524                     __ccov407_start_blk5:
  2955  0524                     l2573:
  2956                           
  2957                           ;eeprom.c: 23:     EEADR = addr;
  2958  0524  0877               	movf	EEPROM_ReadByte@addr,w
  2959  0525  00F5               	movwf	??_EEPROM_ReadByte
  2960  0526  01F6               	clrf	??_EEPROM_ReadByte+1
  2961  0527  0875               	movf	??_EEPROM_ReadByte,w
  2962  0528  0091               	movwf	17	;volatile
  2963  0529  0876               	movf	??_EEPROM_ReadByte+1,w
  2964  052A  0092               	movwf	18	;volatile
  2965  052B                     __ccov407_end_blk5:
  2966  052B                     __ccov408_start_blk6:
  2967  052B                     l2575:
  2968                           
  2969                           ;eeprom.c: 24:     RD = 1;
  2970  052B  1415               	bsf	21,0	;volsfr
  2971                           
  2972                           ;eeprom.c: 25:     return EEDATA;
  2973  052C  0813               	movf	19,w	;volatile
  2974  052D                     __ccov408_end_blk6:
  2975  052D                     __ccov409_start_blk8:
  2976  052D                     l583:
  2977  052D  0020               	movlb	0	; select bank0
  2978  052E  1420               	bsf	__ccovbit8_185/(0+8),__ccovbit8_185& (0+7)	;volatile
  2979  052F  0008               	return
  2980  0530                     __end_of_EEPROM_ReadByte:
  2981  0530                     
  2982                           	psect	text6
  2983  06C8                     __ptext6:	
  2984 ;; *************** function _TMR2_StartTimer *****************
  2985 ;; Defined at:
  2986 ;;		line 87 in file "mcc_generated_files/tmr2.c"
  2987 ;; Parameters:    Size  Location     Type
  2988 ;;		None
  2989 ;; Auto vars:     Size  Location     Type
  2990 ;;		None
  2991 ;; Return value:  Size  Location     Type
  2992 ;;                  1    wreg      void 
  2993 ;; Registers used:
  2994 ;;		None
  2995 ;; Tracked objects:
  2996 ;;		On entry : 0/0
  2997 ;;		On exit  : 0/0
  2998 ;;		Unchanged: 0/0
  2999 ;; Data sizes:     COMMON   BANK0   BANK1
  3000 ;;      Params:         0       0       0
  3001 ;;      Locals:         0       0       0
  3002 ;;      Temps:          0       0       0
  3003 ;;      Totals:         0       0       0
  3004 ;;Total ram usage:        0 bytes
  3005 ;; Hardware stack levels used: 1
  3006 ;; Hardware stack levels required when called: 7
  3007 ;; This function calls:
  3008 ;;		Nothing
  3009 ;; This function is called by:
  3010 ;;		_start_setup
  3011 ;; This function uses a non-reentrant model
  3012 ;;
  3013                           
  3014  06C8                     _TMR2_StartTimer:	
  3015                           ;psect for function _TMR2_StartTimer
  3016                           
  3017                           
  3018                           ;incstack = 0
  3019                           ; Regs used in _TMR2_StartTimer: []
  3020  06C8                     l2185:
  3021                           
  3022                           ;mcc_generated_files/tmr2.c: 90:     T2CONbits.TMR2ON = 1;
  3023  06C8  0020               	movlb	0	; select bank0
  3024  06C9  151C               	bsf	28,2	;volatile
  3025  06CA                     __ccov55_end_blk0:
  3026  06CA                     __ccov56_start_blk1:
  3027  06CA                     l138:
  3028  06CA  1471               	bsf	__ccovbit1_15/(0+8),__ccovbit1_15& (0+7)	;volatile
  3029  06CB  0008               	return
  3030  06CC                     __end_of_TMR2_StartTimer:
  3031  06CC                     
  3032                           	psect	text7
  3033  05EA                     __ptext7:	
  3034 ;; *************** function _SYSTEM_Initialize *****************
  3035 ;; Defined at:
  3036 ;;		line 50 in file "mcc_generated_files/mcc.c"
  3037 ;; Parameters:    Size  Location     Type
  3038 ;;		None
  3039 ;; Auto vars:     Size  Location     Type
  3040 ;;		None
  3041 ;; Return value:  Size  Location     Type
  3042 ;;                  1    wreg      void 
  3043 ;; Registers used:
  3044 ;;		wreg, status,2, status,0, pclath, cstack
  3045 ;; Tracked objects:
  3046 ;;		On entry : 0/0
  3047 ;;		On exit  : 0/0
  3048 ;;		Unchanged: 0/0
  3049 ;; Data sizes:     COMMON   BANK0   BANK1
  3050 ;;      Params:         0       0       0
  3051 ;;      Locals:         0       0       0
  3052 ;;      Temps:          0       0       0
  3053 ;;      Totals:         0       0       0
  3054 ;;Total ram usage:        0 bytes
  3055 ;; Hardware stack levels used: 1
  3056 ;; Hardware stack levels required when called: 9
  3057 ;; This function calls:
  3058 ;;		_ADC_Initialize
  3059 ;;		_OSCILLATOR_Initialize
  3060 ;;		_PIN_MANAGER_Initialize
  3061 ;;		_TMR0_Initialize
  3062 ;;		_TMR2_Initialize
  3063 ;;		_WDT_Initialize
  3064 ;; This function is called by:
  3065 ;;		_start_setup
  3066 ;; This function uses a non-reentrant model
  3067 ;;
  3068                           
  3069  05EA                     _SYSTEM_Initialize:	
  3070                           ;psect for function _SYSTEM_Initialize
  3071                           
  3072                           
  3073                           ;incstack = 0
  3074                           ; Regs used in _SYSTEM_Initialize: [wreg+status,2+status,0+pclath+cstack]
  3075  05EA                     l2171:
  3076                           
  3077                           ;mcc_generated_files/mcc.c: 53:     PIN_MANAGER_Initialize();
  3078  05EA  3185  25BF  3185   	fcall	_PIN_MANAGER_Initialize
  3079                           
  3080                           ;mcc_generated_files/mcc.c: 54:     OSCILLATOR_Initialize();
  3081  05ED  3186  268E  3185   	fcall	_OSCILLATOR_Initialize
  3082                           
  3083                           ;mcc_generated_files/mcc.c: 55:     WDT_Initialize();
  3084  05F0  3186  26BE  3185   	fcall	_WDT_Initialize
  3085                           
  3086                           ;mcc_generated_files/mcc.c: 56:     TMR2_Initialize();
  3087  05F3  3185  25FE  3185   	fcall	_TMR2_Initialize
  3088                           
  3089                           ;mcc_generated_files/mcc.c: 57:     ADC_Initialize();
  3090  05F6  3186  2685  3185   	fcall	_ADC_Initialize
  3091                           
  3092                           ;mcc_generated_files/mcc.c: 58:     TMR0_Initialize();
  3093  05F9  3185  2591  3185   	fcall	_TMR0_Initialize
  3094  05FC                     __ccov1_end_blk0:
  3095  05FC                     __ccov2_start_blk1:
  3096  05FC                     l23:
  3097  05FC  1772               	bsf	__ccovbit1_1/(0+8),__ccovbit1_1& (0+7)	;volatile
  3098  05FD  0008               	return
  3099  05FE                     __end_of_SYSTEM_Initialize:
  3100  05FE                     
  3101                           	psect	text8
  3102  06BE                     __ptext8:	
  3103 ;; *************** function _WDT_Initialize *****************
  3104 ;; Defined at:
  3105 ;;		line 71 in file "mcc_generated_files/mcc.c"
  3106 ;; Parameters:    Size  Location     Type
  3107 ;;		None
  3108 ;; Auto vars:     Size  Location     Type
  3109 ;;		None
  3110 ;; Return value:  Size  Location     Type
  3111 ;;                  1    wreg      void 
  3112 ;; Registers used:
  3113 ;;		wreg
  3114 ;; Tracked objects:
  3115 ;;		On entry : 0/0
  3116 ;;		On exit  : 0/0
  3117 ;;		Unchanged: 0/0
  3118 ;; Data sizes:     COMMON   BANK0   BANK1
  3119 ;;      Params:         0       0       0
  3120 ;;      Locals:         0       0       0
  3121 ;;      Temps:          0       0       0
  3122 ;;      Totals:         0       0       0
  3123 ;;Total ram usage:        0 bytes
  3124 ;; Hardware stack levels used: 1
  3125 ;; Hardware stack levels required when called: 7
  3126 ;; This function calls:
  3127 ;;		Nothing
  3128 ;; This function is called by:
  3129 ;;		_SYSTEM_Initialize
  3130 ;; This function uses a non-reentrant model
  3131 ;;
  3132                           
  3133  06BE                     _WDT_Initialize:	
  3134                           ;psect for function _WDT_Initialize
  3135                           
  3136                           
  3137                           ;incstack = 0
  3138                           ; Regs used in _WDT_Initialize: [wreg]
  3139  06BE                     l2021:
  3140                           
  3141                           ;mcc_generated_files/mcc.c: 74:     WDTCON = 0x0A;
  3142  06BE  300A               	movlw	10
  3143  06BF  0021               	movlb	1	; select bank1
  3144  06C0  0097               	movwf	23	;volatile
  3145  06C1                     __ccov7_end_blk0:
  3146  06C1                     __ccov8_start_blk1:
  3147  06C1                     l29:
  3148  06C1  1672               	bsf	__ccovbit1_3/(0+8),__ccovbit1_3& (0+7)	;volatile
  3149  06C2  0008               	return
  3150  06C3                     __end_of_WDT_Initialize:
  3151  06C3                     
  3152                           	psect	text9
  3153  05FE                     __ptext9:	
  3154 ;; *************** function _TMR2_Initialize *****************
  3155 ;; Defined at:
  3156 ;;		line 64 in file "mcc_generated_files/tmr2.c"
  3157 ;; Parameters:    Size  Location     Type
  3158 ;;		None
  3159 ;; Auto vars:     Size  Location     Type
  3160 ;;		None
  3161 ;; Return value:  Size  Location     Type
  3162 ;;                  1    wreg      void 
  3163 ;; Registers used:
  3164 ;;		wreg, status,2, status,0, pclath, cstack
  3165 ;; Tracked objects:
  3166 ;;		On entry : 0/0
  3167 ;;		On exit  : 0/0
  3168 ;;		Unchanged: 0/0
  3169 ;; Data sizes:     COMMON   BANK0   BANK1
  3170 ;;      Params:         0       0       0
  3171 ;;      Locals:         0       0       0
  3172 ;;      Temps:          0       0       0
  3173 ;;      Totals:         0       0       0
  3174 ;;Total ram usage:        0 bytes
  3175 ;; Hardware stack levels used: 1
  3176 ;; Hardware stack levels required when called: 8
  3177 ;; This function calls:
  3178 ;;		_TMR2_SetInterruptHandler
  3179 ;; This function is called by:
  3180 ;;		_SYSTEM_Initialize
  3181 ;; This function uses a non-reentrant model
  3182 ;;
  3183                           
  3184  05FE                     _TMR2_Initialize:	
  3185                           ;psect for function _TMR2_Initialize
  3186                           
  3187                           
  3188                           ;incstack = 0
  3189                           ; Regs used in _TMR2_Initialize: [wreg+status,2+status,0+pclath+cstack]
  3190  05FE                     l2023:
  3191                           
  3192                           ;mcc_generated_files/tmr2.c: 69:     PR2 = 0x63;
  3193  05FE  3063               	movlw	99
  3194  05FF  0020               	movlb	0	; select bank0
  3195  0600  009B               	movwf	27	;volatile
  3196  0601                     __ccov48_end_blk0:
  3197  0601                     __ccov49_start_blk1:
  3198  0601                     l2025:
  3199                           
  3200                           ;mcc_generated_files/tmr2.c: 72:     TMR2 = 0x00;
  3201  0601  019A               	clrf	26	;volatile
  3202  0602                     __ccov49_end_blk1:
  3203  0602                     __ccov50_start_blk2:
  3204  0602                     l2027:
  3205                           
  3206                           ;mcc_generated_files/tmr2.c: 75:     PIR1bits.TMR2IF = 0;
  3207  0602  1091               	bcf	17,1	;volatile
  3208  0603                     __ccov50_end_blk2:
  3209  0603                     __ccov51_start_blk3:
  3210  0603                     l2029:
  3211                           
  3212                           ;mcc_generated_files/tmr2.c: 78:     PIE1bits.TMR2IE = 1;
  3213  0603  0021               	movlb	1	; select bank1
  3214  0604  1491               	bsf	17,1	;volatile
  3215  0605                     __ccov51_end_blk3:
  3216  0605                     __ccov52_start_blk4:
  3217  0605                     l2031:
  3218                           
  3219                           ;mcc_generated_files/tmr2.c: 81:     TMR2_SetInterruptHandler(TMR2_DefaultInterruptHandl
      +                          er);
  3220  0605  30DE               	movlw	low _TMR2_DefaultInterruptHandler
  3221  0606  00F5               	movwf	TMR2_SetInterruptHandler@InterruptHandler
  3222  0607  3006               	movlw	high _TMR2_DefaultInterruptHandler
  3223  0608  00F6               	movwf	TMR2_SetInterruptHandler@InterruptHandler+1
  3224  0609  3186  269E  3185   	fcall	_TMR2_SetInterruptHandler
  3225  060C                     __ccov52_end_blk4:
  3226  060C                     __ccov53_start_blk5:
  3227  060C                     l2033:
  3228                           
  3229                           ;mcc_generated_files/tmr2.c: 84:     T2CON = 0x4D;
  3230  060C  304D               	movlw	77
  3231  060D  0020               	movlb	0	; select bank0
  3232  060E  009C               	movwf	28	;volatile
  3233  060F                     __ccov53_end_blk5:
  3234  060F                     __ccov54_start_blk6:
  3235  060F                     l135:
  3236  060F  14F1               	bsf	__ccovbit6_14/(0+8),__ccovbit6_14& (0+7)	;volatile
  3237  0610  0008               	return
  3238  0611                     __end_of_TMR2_Initialize:
  3239  0611                     
  3240                           	psect	text10
  3241  069E                     __ptext10:	
  3242 ;; *************** function _TMR2_SetInterruptHandler *****************
  3243 ;; Defined at:
  3244 ;;		line 132 in file "mcc_generated_files/tmr2.c"
  3245 ;; Parameters:    Size  Location     Type
  3246 ;;  InterruptHan    2    2[COMMON] PTR FTN()void 
  3247 ;;		 -> ms_tick(1), TMR2_DefaultInterruptHandler(1), 
  3248 ;; Auto vars:     Size  Location     Type
  3249 ;;		None
  3250 ;; Return value:  Size  Location     Type
  3251 ;;                  1    wreg      void 
  3252 ;; Registers used:
  3253 ;;		wreg
  3254 ;; Tracked objects:
  3255 ;;		On entry : 0/0
  3256 ;;		On exit  : 0/0
  3257 ;;		Unchanged: 0/0
  3258 ;; Data sizes:     COMMON   BANK0   BANK1
  3259 ;;      Params:         2       0       0
  3260 ;;      Locals:         0       0       0
  3261 ;;      Temps:          0       0       0
  3262 ;;      Totals:         2       0       0
  3263 ;;Total ram usage:        2 bytes
  3264 ;; Hardware stack levels used: 1
  3265 ;; Hardware stack levels required when called: 7
  3266 ;; This function calls:
  3267 ;;		Nothing
  3268 ;; This function is called by:
  3269 ;;		_TMR2_Initialize
  3270 ;;		_start_setup
  3271 ;; This function uses a non-reentrant model
  3272 ;;
  3273                           
  3274  069E                     _TMR2_SetInterruptHandler:	
  3275                           ;psect for function _TMR2_SetInterruptHandler
  3276                           
  3277                           
  3278                           ;incstack = 0
  3279                           ; Regs used in _TMR2_SetInterruptHandler: [wreg]
  3280  069E                     l1945:
  3281                           
  3282                           ;mcc_generated_files/tmr2.c: 133:     TMR2_InterruptHandler = InterruptHandler;
  3283  069E  0876               	movf	TMR2_SetInterruptHandler@InterruptHandler+1,w
  3284  069F  0020               	movlb	0	; select bank0
  3285  06A0  00D7               	movwf	_TMR2_InterruptHandler+1
  3286  06A1  0875               	movf	TMR2_SetInterruptHandler@InterruptHandler,w
  3287  06A2  00D6               	movwf	_TMR2_InterruptHandler
  3288  06A3                     __ccov69_end_blk0:
  3289  06A3                     __ccov70_start_blk1:
  3290  06A3                     l157:
  3291  06A3  16F0               	bsf	__ccovbit1_18/(0+8),__ccovbit1_18& (0+7)	;volatile
  3292  06A4  0008               	return
  3293  06A5                     __end_of_TMR2_SetInterruptHandler:
  3294  06A5                     
  3295                           	psect	text11
  3296  0591                     __ptext11:	
  3297 ;; *************** function _TMR0_Initialize *****************
  3298 ;; Defined at:
  3299 ;;		line 64 in file "mcc_generated_files/tmr0.c"
  3300 ;; Parameters:    Size  Location     Type
  3301 ;;		None
  3302 ;; Auto vars:     Size  Location     Type
  3303 ;;		None
  3304 ;; Return value:  Size  Location     Type
  3305 ;;                  1    wreg      void 
  3306 ;; Registers used:
  3307 ;;		wreg, status,2, status,0, pclath, cstack
  3308 ;; Tracked objects:
  3309 ;;		On entry : 0/0
  3310 ;;		On exit  : 0/0
  3311 ;;		Unchanged: 0/0
  3312 ;; Data sizes:     COMMON   BANK0   BANK1
  3313 ;;      Params:         0       0       0
  3314 ;;      Locals:         0       0       0
  3315 ;;      Temps:          1       0       0
  3316 ;;      Totals:         1       0       0
  3317 ;;Total ram usage:        1 bytes
  3318 ;; Hardware stack levels used: 1
  3319 ;; Hardware stack levels required when called: 8
  3320 ;; This function calls:
  3321 ;;		_TMR0_SetInterruptHandler
  3322 ;; This function is called by:
  3323 ;;		_SYSTEM_Initialize
  3324 ;; This function uses a non-reentrant model
  3325 ;;
  3326                           
  3327  0591                     _TMR0_Initialize:	
  3328                           ;psect for function _TMR0_Initialize
  3329                           
  3330                           
  3331                           ;incstack = 0
  3332                           ; Regs used in _TMR0_Initialize: [wreg+status,2+status,0+pclath+cstack]
  3333  0591                     l2041:
  3334                           
  3335                           ;mcc_generated_files/tmr0.c: 69:     OPTION_REG = (uint8_t)((OPTION_REG & 0xC0) | (0xD1 
      +                          & 0x3F));
  3336  0591  0021               	movlb	1	; select bank1
  3337  0592  0815               	movf	21,w	;volatile
  3338  0593  39C0               	andlw	192
  3339  0594  3811               	iorlw	17
  3340  0595  0095               	movwf	21	;volatile
  3341  0596                     __ccov72_end_blk0:
  3342  0596                     __ccov73_start_blk1:
  3343  0596                     l2043:
  3344                           
  3345                           ;mcc_generated_files/tmr0.c: 72:     TMR0 = 0x83;
  3346  0596  3083               	movlw	131
  3347  0597  0020               	movlb	0	; select bank0
  3348  0598  0095               	movwf	21	;volatile
  3349  0599                     __ccov73_end_blk1:
  3350  0599                     __ccov74_start_blk2:
  3351  0599                     l2045:
  3352                           
  3353                           ;mcc_generated_files/tmr0.c: 75:     timer0ReloadVal= 131;
  3354  0599  3083               	movlw	131
  3355  059A  00F7               	movwf	??_TMR0_Initialize
  3356  059B  0877               	movf	??_TMR0_Initialize,w
  3357  059C  00D8               	movwf	_timer0ReloadVal	;volatile
  3358  059D                     __ccov74_end_blk2:
  3359  059D                     __ccov75_start_blk3:
  3360  059D                     l2047:
  3361                           
  3362                           ;mcc_generated_files/tmr0.c: 78:     INTCONbits.TMR0IF = 0;
  3363  059D  110B               	bcf	11,2	;volatile
  3364  059E                     __ccov75_end_blk3:
  3365  059E                     __ccov76_start_blk4:
  3366  059E                     l2049:
  3367                           
  3368                           ;mcc_generated_files/tmr0.c: 81:     INTCONbits.TMR0IE = 1;
  3369  059E  168B               	bsf	11,5	;volatile
  3370  059F                     __ccov76_end_blk4:
  3371  059F                     __ccov77_start_blk5:
  3372  059F                     l2051:
  3373                           
  3374                           ;mcc_generated_files/tmr0.c: 84:     TMR0_SetInterruptHandler(TMR0_DefaultInterruptHandl
      +                          er);
  3375  059F  30CF               	movlw	low _TMR0_DefaultInterruptHandler
  3376  05A0  00F5               	movwf	TMR0_SetInterruptHandler@InterruptHandler
  3377  05A1  3006               	movlw	high _TMR0_DefaultInterruptHandler
  3378  05A2  00F6               	movwf	TMR0_SetInterruptHandler@InterruptHandler+1
  3379  05A3  3186  26A5  3185   	fcall	_TMR0_SetInterruptHandler
  3380  05A6                     __ccov77_end_blk5:
  3381  05A6                     __ccov78_start_blk6:
  3382  05A6                     l177:
  3383  05A6  15F0               	bsf	__ccovbit6_20/(0+8),__ccovbit6_20& (0+7)	;volatile
  3384  05A7  0008               	return
  3385  05A8                     __end_of_TMR0_Initialize:
  3386  05A8                     
  3387                           	psect	text12
  3388  06A5                     __ptext12:	
  3389 ;; *************** function _TMR0_SetInterruptHandler *****************
  3390 ;; Defined at:
  3391 ;;		line 125 in file "mcc_generated_files/tmr0.c"
  3392 ;; Parameters:    Size  Location     Type
  3393 ;;  InterruptHan    2    2[COMMON] PTR FTN()void 
  3394 ;;		 -> zummer_switch(1), TMR0_DefaultInterruptHandler(1), 
  3395 ;; Auto vars:     Size  Location     Type
  3396 ;;		None
  3397 ;; Return value:  Size  Location     Type
  3398 ;;                  1    wreg      void 
  3399 ;; Registers used:
  3400 ;;		wreg
  3401 ;; Tracked objects:
  3402 ;;		On entry : 0/0
  3403 ;;		On exit  : 0/0
  3404 ;;		Unchanged: 0/0
  3405 ;; Data sizes:     COMMON   BANK0   BANK1
  3406 ;;      Params:         2       0       0
  3407 ;;      Locals:         0       0       0
  3408 ;;      Temps:          0       0       0
  3409 ;;      Totals:         2       0       0
  3410 ;;Total ram usage:        2 bytes
  3411 ;; Hardware stack levels used: 1
  3412 ;; Hardware stack levels required when called: 7
  3413 ;; This function calls:
  3414 ;;		Nothing
  3415 ;; This function is called by:
  3416 ;;		_TMR0_Initialize
  3417 ;;		_start_setup
  3418 ;; This function uses a non-reentrant model
  3419 ;;
  3420                           
  3421  06A5                     _TMR0_SetInterruptHandler:	
  3422                           ;psect for function _TMR0_SetInterruptHandler
  3423                           
  3424                           
  3425                           ;incstack = 0
  3426                           ; Regs used in _TMR0_SetInterruptHandler: [wreg]
  3427  06A5                     l1947:
  3428                           
  3429                           ;mcc_generated_files/tmr0.c: 126:     TMR0_InterruptHandler = InterruptHandler;
  3430  06A5  0876               	movf	TMR0_SetInterruptHandler@InterruptHandler+1,w
  3431  06A6  0020               	movlb	0	; select bank0
  3432  06A7  00D5               	movwf	_TMR0_InterruptHandler+1
  3433  06A8  0875               	movf	TMR0_SetInterruptHandler@InterruptHandler,w
  3434  06A9  00D4               	movwf	_TMR0_InterruptHandler
  3435  06AA                     __ccov90_end_blk0:
  3436  06AA                     __ccov91_start_blk1:
  3437  06AA                     l193:
  3438  06AA  1470               	bsf	__ccovbit1_23/(0+8),__ccovbit1_23& (0+7)	;volatile
  3439  06AB  0008               	return
  3440  06AC                     __end_of_TMR0_SetInterruptHandler:
  3441  06AC                     
  3442                           	psect	text13
  3443  05BF                     __ptext13:	
  3444 ;; *************** function _PIN_MANAGER_Initialize *****************
  3445 ;; Defined at:
  3446 ;;		line 55 in file "mcc_generated_files/pin_manager.c"
  3447 ;; Parameters:    Size  Location     Type
  3448 ;;		None
  3449 ;; Auto vars:     Size  Location     Type
  3450 ;;		None
  3451 ;; Return value:  Size  Location     Type
  3452 ;;                  1    wreg      void 
  3453 ;; Registers used:
  3454 ;;		wreg, status,2
  3455 ;; Tracked objects:
  3456 ;;		On entry : 0/0
  3457 ;;		On exit  : 0/0
  3458 ;;		Unchanged: 0/0
  3459 ;; Data sizes:     COMMON   BANK0   BANK1
  3460 ;;      Params:         0       0       0
  3461 ;;      Locals:         0       0       0
  3462 ;;      Temps:          0       0       0
  3463 ;;      Totals:         0       0       0
  3464 ;;Total ram usage:        0 bytes
  3465 ;; Hardware stack levels used: 1
  3466 ;; Hardware stack levels required when called: 7
  3467 ;; This function calls:
  3468 ;;		Nothing
  3469 ;; This function is called by:
  3470 ;;		_SYSTEM_Initialize
  3471 ;; This function uses a non-reentrant model
  3472 ;;
  3473                           
  3474  05BF                     _PIN_MANAGER_Initialize:	
  3475                           ;psect for function _PIN_MANAGER_Initialize
  3476                           
  3477                           
  3478                           ;incstack = 0
  3479                           ; Regs used in _PIN_MANAGER_Initialize: [wreg+status,2]
  3480  05BF                     l2003:
  3481                           
  3482                           ;mcc_generated_files/pin_manager.c: 60:     LATA = 0x00;
  3483  05BF  0022               	movlb	2	; select bank2
  3484  05C0  018C               	clrf	12	;volatile
  3485                           
  3486                           ;mcc_generated_files/pin_manager.c: 61:     LATC = 0x00;
  3487  05C1  018E               	clrf	14	;volatile
  3488  05C2                     __ccov31_end_blk0:
  3489  05C2                     __ccov32_start_blk1:
  3490  05C2                     l2005:
  3491                           
  3492                           ;mcc_generated_files/pin_manager.c: 66:     TRISA = 0x0F;
  3493  05C2  300F               	movlw	15
  3494  05C3  0021               	movlb	1	; select bank1
  3495  05C4  008C               	movwf	12	;volatile
  3496  05C5                     __ccov32_end_blk1:
  3497  05C5                     __ccov33_start_blk2:
  3498  05C5                     l2007:
  3499                           
  3500                           ;mcc_generated_files/pin_manager.c: 67:     TRISC = 0x0C;
  3501  05C5  300C               	movlw	12
  3502  05C6  008E               	movwf	14	;volatile
  3503  05C7                     __ccov33_end_blk2:
  3504  05C7                     __ccov34_start_blk3:
  3505  05C7                     l2009:
  3506                           
  3507                           ;mcc_generated_files/pin_manager.c: 72:     ANSELC = 0x08;
  3508  05C7  3008               	movlw	8
  3509  05C8  0023               	movlb	3	; select bank3
  3510  05C9  008E               	movwf	14	;volatile
  3511  05CA                     __ccov34_end_blk3:
  3512  05CA                     __ccov35_start_blk4:
  3513  05CA                     l2011:
  3514                           
  3515                           ;mcc_generated_files/pin_manager.c: 73:     ANSELA = 0x05;
  3516  05CA  3005               	movlw	5
  3517  05CB  008C               	movwf	12	;volatile
  3518                           
  3519                           ;mcc_generated_files/pin_manager.c: 78:     WPUA = 0x00;
  3520  05CC  0024               	movlb	4	; select bank4
  3521  05CD  018C               	clrf	12	;volatile
  3522                           
  3523                           ;mcc_generated_files/pin_manager.c: 79:     WPUC = 0x00;
  3524  05CE  018E               	clrf	14	;volatile
  3525  05CF                     __ccov35_end_blk4:
  3526  05CF                     __ccov36_start_blk5:
  3527  05CF                     l2013:
  3528                           
  3529                           ;mcc_generated_files/pin_manager.c: 80:     OPTION_REGbits.nWPUEN = 1;
  3530  05CF  0021               	movlb	1	; select bank1
  3531  05D0  1795               	bsf	21,7	;volatile
  3532                           
  3533                           ;mcc_generated_files/pin_manager.c: 86:     APFCON = 0x00;
  3534  05D1  0022               	movlb	2	; select bank2
  3535  05D2  019D               	clrf	29	;volatile
  3536  05D3                     __ccov36_end_blk5:
  3537  05D3                     __ccov37_start_blk6:
  3538  05D3                     l90:
  3539  05D3  14F2               	bsf	__ccovbit6_6/(0+8),__ccovbit6_6& (0+7)	;volatile
  3540  05D4  0008               	return
  3541  05D5                     __end_of_PIN_MANAGER_Initialize:
  3542  05D5                     
  3543                           	psect	text14
  3544  068E                     __ptext14:	
  3545 ;; *************** function _OSCILLATOR_Initialize *****************
  3546 ;; Defined at:
  3547 ;;		line 61 in file "mcc_generated_files/mcc.c"
  3548 ;; Parameters:    Size  Location     Type
  3549 ;;		None
  3550 ;; Auto vars:     Size  Location     Type
  3551 ;;		None
  3552 ;; Return value:  Size  Location     Type
  3553 ;;                  1    wreg      void 
  3554 ;; Registers used:
  3555 ;;		wreg, status,2
  3556 ;; Tracked objects:
  3557 ;;		On entry : 0/0
  3558 ;;		On exit  : 0/0
  3559 ;;		Unchanged: 0/0
  3560 ;; Data sizes:     COMMON   BANK0   BANK1
  3561 ;;      Params:         0       0       0
  3562 ;;      Locals:         0       0       0
  3563 ;;      Temps:          0       0       0
  3564 ;;      Totals:         0       0       0
  3565 ;;Total ram usage:        0 bytes
  3566 ;; Hardware stack levels used: 1
  3567 ;; Hardware stack levels required when called: 7
  3568 ;; This function calls:
  3569 ;;		Nothing
  3570 ;; This function is called by:
  3571 ;;		_SYSTEM_Initialize
  3572 ;; This function uses a non-reentrant model
  3573 ;;
  3574                           
  3575  068E                     _OSCILLATOR_Initialize:	
  3576                           ;psect for function _OSCILLATOR_Initialize
  3577                           
  3578                           
  3579                           ;incstack = 0
  3580                           ; Regs used in _OSCILLATOR_Initialize: [wreg+status,2]
  3581  068E                     l2015:
  3582                           
  3583                           ;mcc_generated_files/mcc.c: 64:     OSCCON = 0x78;
  3584  068E  3078               	movlw	120
  3585  068F  0021               	movlb	1	; select bank1
  3586  0690  0099               	movwf	25	;volatile
  3587  0691                     __ccov3_end_blk0:
  3588  0691                     __ccov4_start_blk1:
  3589  0691                     l2017:
  3590                           
  3591                           ;mcc_generated_files/mcc.c: 66:     OSCTUNE = 0x00;
  3592  0691  0198               	clrf	24	;volatile
  3593  0692                     __ccov4_end_blk1:
  3594  0692                     __ccov5_start_blk2:
  3595  0692                     l2019:
  3596                           
  3597                           ;mcc_generated_files/mcc.c: 68:     BORCON = 0x00;
  3598  0692  0022               	movlb	2	; select bank2
  3599  0693  0196               	clrf	22	;volatile
  3600  0694                     __ccov5_end_blk2:
  3601  0694                     __ccov6_start_blk3:
  3602  0694                     l26:
  3603  0694  16F2               	bsf	__ccovbit3_2/(0+8),__ccovbit3_2& (0+7)	;volatile
  3604  0695  0008               	return
  3605  0696                     __end_of_OSCILLATOR_Initialize:
  3606  0696                     
  3607                           	psect	text15
  3608  0685                     __ptext15:	
  3609 ;; *************** function _ADC_Initialize *****************
  3610 ;; Defined at:
  3611 ;;		line 67 in file "mcc_generated_files/adc.c"
  3612 ;; Parameters:    Size  Location     Type
  3613 ;;		None
  3614 ;; Auto vars:     Size  Location     Type
  3615 ;;		None
  3616 ;; Return value:  Size  Location     Type
  3617 ;;                  1    wreg      void 
  3618 ;; Registers used:
  3619 ;;		wreg, status,2
  3620 ;; Tracked objects:
  3621 ;;		On entry : 0/0
  3622 ;;		On exit  : 0/0
  3623 ;;		Unchanged: 0/0
  3624 ;; Data sizes:     COMMON   BANK0   BANK1
  3625 ;;      Params:         0       0       0
  3626 ;;      Locals:         0       0       0
  3627 ;;      Temps:          0       0       0
  3628 ;;      Totals:         0       0       0
  3629 ;;Total ram usage:        0 bytes
  3630 ;; Hardware stack levels used: 1
  3631 ;; Hardware stack levels required when called: 7
  3632 ;; This function calls:
  3633 ;;		Nothing
  3634 ;; This function is called by:
  3635 ;;		_SYSTEM_Initialize
  3636 ;; This function uses a non-reentrant model
  3637 ;;
  3638                           
  3639  0685                     _ADC_Initialize:	
  3640                           ;psect for function _ADC_Initialize
  3641                           
  3642                           
  3643                           ;incstack = 0
  3644                           ; Regs used in _ADC_Initialize: [wreg+status,2]
  3645  0685                     l2035:
  3646                           
  3647                           ;mcc_generated_files/adc.c: 72:     ADCON1 = 0x50;
  3648  0685  3050               	movlw	80
  3649  0686  0021               	movlb	1	; select bank1
  3650  0687  009E               	movwf	30	;volatile
  3651  0688                     __ccov9_end_blk0:
  3652  0688                     __ccov10_start_blk1:
  3653  0688                     l2037:
  3654                           
  3655                           ;mcc_generated_files/adc.c: 75:     ADRESL = 0x00;
  3656  0688  019B               	clrf	27	;volatile
  3657  0689                     __ccov10_end_blk1:
  3658  0689                     __ccov11_start_blk2:
  3659  0689                     l2039:
  3660                           
  3661                           ;mcc_generated_files/adc.c: 78:     ADRESH = 0x00;
  3662  0689  019C               	clrf	28	;volatile
  3663                           
  3664                           ;mcc_generated_files/adc.c: 81:     ADCON0 = 0x1D;
  3665  068A  301D               	movlw	29
  3666  068B  009D               	movwf	29	;volatile
  3667  068C                     __ccov11_end_blk2:
  3668  068C                     __ccov12_start_blk3:
  3669  068C                     l46:
  3670  068C  15F2               	bsf	__ccovbit3_4/(0+8),__ccovbit3_4& (0+7)	;volatile
  3671  068D  0008               	return
  3672  068E                     __end_of_ADC_Initialize:
  3673  068E                     
  3674                           	psect	text16
  3675  035B                     __ptext16:	
  3676 ;; *************** function _hardware_work *****************
  3677 ;; Defined at:
  3678 ;;		line 572 in file "main.c"
  3679 ;; Parameters:    Size  Location     Type
  3680 ;;		None
  3681 ;; Auto vars:     Size  Location     Type
  3682 ;;		None
  3683 ;; Return value:  Size  Location     Type
  3684 ;;                  1    wreg      void 
  3685 ;; Registers used:
  3686 ;;		None
  3687 ;; Tracked objects:
  3688 ;;		On entry : 0/0
  3689 ;;		On exit  : 0/0
  3690 ;;		Unchanged: 0/0
  3691 ;; Data sizes:     COMMON   BANK0   BANK1
  3692 ;;      Params:         0       0       0
  3693 ;;      Locals:         0       0       0
  3694 ;;      Temps:          0       0       0
  3695 ;;      Totals:         0       0       0
  3696 ;;Total ram usage:        0 bytes
  3697 ;; Hardware stack levels used: 1
  3698 ;; Hardware stack levels required when called: 7
  3699 ;; This function calls:
  3700 ;;		Nothing
  3701 ;; This function is called by:
  3702 ;;		_main
  3703 ;; This function uses a non-reentrant model
  3704 ;;
  3705                           
  3706  035B                     _hardware_work:	
  3707                           ;psect for function _hardware_work
  3708                           
  3709                           
  3710                           ;incstack = 0
  3711                           ; Regs used in _hardware_work: []
  3712  035B                     l1675:
  3713                           
  3714                           ;main.c: 573:     LATCbits.LATC0 = ff.bits.ALARM_ON;
  3715  035B  1879               	btfsc	_ff,0
  3716  035C  2B5E               	goto	u1051
  3717  035D  2B61               	goto	u1050
  3718  035E                     u1051:
  3719  035E  0022               	movlb	2	; select bank2
  3720  035F  140E               	bsf	14,0	;volatile
  3721  0360  2B63               	goto	u1064
  3722  0361                     u1050:
  3723  0361  0022               	movlb	2	; select bank2
  3724  0362  100E               	bcf	14,0	;volatile
  3725  0363                     u1064:
  3726                           
  3727                           ;main.c: 574:     LATCbits.LATC1 = ff.bits.MEAS_ON;
  3728  0363  1BFB               	btfsc	_ff+2,7
  3729  0364  2B66               	goto	u1071
  3730  0365  2B69               	goto	u1070
  3731  0366                     u1071:
  3732  0366  0022               	movlb	2	; select bank2
  3733  0367  148E               	bsf	14,1	;volatile
  3734  0368  2B6B               	goto	u1084
  3735  0369                     u1070:
  3736  0369  0022               	movlb	2	; select bank2
  3737  036A  108E               	bcf	14,1	;volatile
  3738  036B                     u1084:
  3739                           
  3740                           ;main.c: 575:     LATCbits.LATC4 = ff.bits.RELE_CONTROL_ON;
  3741  036B  1B7A               	btfsc	_ff+1,6
  3742  036C  2B6E               	goto	u1091
  3743  036D  2B71               	goto	u1090
  3744  036E                     u1091:
  3745  036E  0022               	movlb	2	; select bank2
  3746  036F  160E               	bsf	14,4	;volatile
  3747  0370  2B73               	goto	u1104
  3748  0371                     u1090:
  3749  0371  0022               	movlb	2	; select bank2
  3750  0372  120E               	bcf	14,4	;volatile
  3751  0373                     u1104:
  3752                           
  3753                           ;main.c: 576:     LATCbits.LATC5 = ff.bits.RELE_POWER_ON;
  3754  0373  1AFA               	btfsc	_ff+1,5
  3755  0374  2B76               	goto	u1111
  3756  0375  2B79               	goto	u1110
  3757  0376                     u1111:
  3758  0376  0022               	movlb	2	; select bank2
  3759  0377  168E               	bsf	14,5	;volatile
  3760  0378  2B7B               	goto	u1124
  3761  0379                     u1110:
  3762  0379  0022               	movlb	2	; select bank2
  3763  037A  128E               	bcf	14,5	;volatile
  3764  037B                     u1124:
  3765                           
  3766                           ;main.c: 577:     LATAbits.LATA4 = ff.bits.LED_ON;
  3767  037B  1B7B               	btfsc	_ff+2,6
  3768  037C  2B7E               	goto	u1131
  3769  037D  2B81               	goto	u1130
  3770  037E                     u1131:
  3771  037E  0022               	movlb	2	; select bank2
  3772  037F  160C               	bsf	12,4	;volatile
  3773  0380  2B83               	goto	u1144
  3774  0381                     u1130:
  3775  0381  0022               	movlb	2	; select bank2
  3776  0382  120C               	bcf	12,4	;volatile
  3777  0383                     u1144:
  3778                           
  3779                           ;main.c: 579:     if (ff.bits.TONE_ON) {
  3780  0383  1FFA               	btfss	_ff+1,7
  3781  0384  2B86               	goto	u1151
  3782  0385  2B87               	goto	u1150
  3783  0386                     u1151:
  3784  0386  2B8A               	goto	l468
  3785  0387                     __ccov305_end_blk0:
  3786  0387                     u1150:
  3787  0387                     __ccov306_start_blk1:
  3788  0387                     l1677:
  3789  0387  0020               	movlb	0	; select bank0
  3790  0388  1723               	bsf	__ccovbit1_155/(0+8),__ccovbit1_155& (0+7)	;volatile
  3791                           
  3792                           ;main.c: 580:         INTCONbits.TMR0IE = 1;
  3793  0389  168B               	bsf	11,5	;volatile
  3794  038A                     __ccov306_end_blk1:
  3795  038A                     __ccov307_start_blk2:
  3796  038A                     l468:	
  3797                           ;main.c: 581:     };
  3798                           
  3799                           
  3800                           ;main.c: 582:     if (ff.bits.TONE_OFF) {
  3801  038A  1C7B               	btfss	_ff+2,0
  3802  038B  2B8D               	goto	u1161
  3803  038C  2B8E               	goto	u1160
  3804  038D                     u1161:
  3805  038D  2B93               	goto	l472
  3806  038E                     __ccov307_end_blk2:
  3807  038E                     u1160:
  3808  038E                     __ccov308_start_blk3:
  3809  038E                     l1679:
  3810                           
  3811                           ;main.c: 583:         INTCONbits.TMR0IE = 0;
  3812  038E  128B               	bcf	11,5	;volatile
  3813  038F                     __ccov308_end_blk3:
  3814  038F                     __ccov309_start_blk4:
  3815  038F                     l470:	
  3816                           ;main.c: 584:         do { LATAbits.LATA5 = 0; } while(0);
  3817                           
  3818  038F  0020               	movlb	0	; select bank0
  3819  0390  16A3               	bsf	__ccovbit4_156/(0+8),__ccovbit4_156& (0+7)	;volatile
  3820  0391  0022               	movlb	2	; select bank2
  3821  0392  128C               	bcf	12,5	;volatile
  3822  0393                     __ccov309_end_blk4:
  3823  0393                     __ccov310_start_blk7:
  3824  0393                     l472:
  3825  0393  0020               	movlb	0	; select bank0
  3826  0394  1623               	bsf	__ccovbit7_157/(0+8),__ccovbit7_157& (0+7)	;volatile
  3827  0395  0008               	return
  3828  0396                     __end_of_hardware_work:
  3829  0396                     
  3830                           	psect	text17
  3831  013A                     __ptext17:	
  3832 ;; *************** function _get_wsp *****************
  3833 ;; Defined at:
  3834 ;;		line 597 in file "main.c"
  3835 ;; Parameters:    Size  Location     Type
  3836 ;;		None
  3837 ;; Auto vars:     Size  Location     Type
  3838 ;;  res             2    0[BANK0 ] unsigned int 
  3839 ;; Return value:  Size  Location     Type
  3840 ;;                  1    wreg      void 
  3841 ;; Registers used:
  3842 ;;		wreg, status,2, status,0, pclath, cstack
  3843 ;; Tracked objects:
  3844 ;;		On entry : 0/0
  3845 ;;		On exit  : 0/0
  3846 ;;		Unchanged: 0/0
  3847 ;; Data sizes:     COMMON   BANK0   BANK1
  3848 ;;      Params:         0       0       0
  3849 ;;      Locals:         0       2       0
  3850 ;;      Temps:          2       0       0
  3851 ;;      Totals:         2       2       0
  3852 ;;Total ram usage:        4 bytes
  3853 ;; Hardware stack levels used: 1
  3854 ;; Hardware stack levels required when called: 8
  3855 ;; This function calls:
  3856 ;;		_ADC_GetConversion
  3857 ;;		_clear_alarm
  3858 ;;		_start_alarm
  3859 ;; This function is called by:
  3860 ;;		_main
  3861 ;; This function uses a non-reentrant model
  3862 ;;
  3863                           
  3864  013A                     _get_wsp:	
  3865                           ;psect for function _get_wsp
  3866                           
  3867                           
  3868                           ;incstack = 0
  3869                           ; Regs used in _get_wsp: [wreg+status,2+status,0+pclath+cstack]
  3870  013A                     l2615:
  3871                           
  3872                           ;main.c: 599:     if (ff.bits.ALLOW_MEASURE) {
  3873  013A  1E79               	btfss	_ff,4
  3874  013B  293D               	goto	u2741
  3875  013C  293E               	goto	u2740
  3876  013D                     u2741:
  3877  013D  299A               	goto	l496
  3878  013E                     __ccov314_end_blk0:
  3879  013E                     u2740:
  3880  013E                     __ccov315_start_blk1:
  3881  013E                     l483:	
  3882                           ;main.c: 601:         static signed char bad_measures_counter = 0;;main.c: 602:         
      +                          do { LATCbits.LATC1 = 1; } while(0);
  3883                           
  3884  013E  0022               	movlb	2	; select bank2
  3885  013F  148E               	bsf	14,1	;volatile
  3886  0140                     __ccov315_end_blk1:
  3887  0140                     __ccov316_start_blk3:
  3888  0140                     l485:	
  3889                           ;main.c: 603:         do { ANSELCbits.ANSC3 = 1; } while(0);
  3890                           
  3891  0140  0023               	movlb	3	; select bank3
  3892  0141  158E               	bsf	14,3	;volatile
  3893  0142                     __ccov316_end_blk3:
  3894  0142                     __ccov317_start_blk5:
  3895  0142                     l2617:
  3896                           
  3897                           ;main.c: 604:         _delay((unsigned long)((1)*(16000000/4000.0)));
  3898  0142  3006               	movlw	6
  3899  0143  00F7               	movwf	??_get_wsp
  3900  0144  3030               	movlw	48
  3901  0145                     u2867:
  3902  0145  0B89               	decfsz	9,f
  3903  0146  2945               	goto	u2867
  3904  0147  0BF7               	decfsz	??_get_wsp,f
  3905  0148  2945               	goto	u2867
  3906  0149  3200               	nop2
  3907  014A                     __ccov317_end_blk5:
  3908  014A                     __ccov318_start_blk6:
  3909  014A                     l2619:
  3910                           
  3911                           ;main.c: 605:         unsigned res = ADC_GetConversion(PIN_WSP_STATE);
  3912  014A  3007               	movlw	7
  3913  014B  3185  2530  3181   	fcall	_ADC_GetConversion
  3914  014E  00F7               	movwf	??_get_wsp
  3915  014F  01F8               	clrf	??_get_wsp+1
  3916  0150  0877               	movf	??_get_wsp,w
  3917  0151  0020               	movlb	0	; select bank0
  3918  0152  00D9               	movwf	get_wsp@res
  3919  0153  0878               	movf	??_get_wsp+1,w
  3920  0154  00DA               	movwf	get_wsp@res+1
  3921  0155                     __ccov318_end_blk6:
  3922  0155                     __ccov319_start_blk8:
  3923  0155                     l2621:
  3924  0155  0023               	movlb	3	; select bank3
  3925  0156  118E               	bcf	14,3	;volatile
  3926  0157                     __ccov319_end_blk8:
  3927  0157                     __ccov320_start_blk11:
  3928  0157                     l2623:
  3929  0157  0022               	movlb	2	; select bank2
  3930  0158  108E               	bcf	14,1	;volatile
  3931  0159                     __ccov320_end_blk11:
  3932  0159                     __ccov321_start_blk13:
  3933  0159                     l2625:
  3934                           
  3935                           ;main.c: 608:         if (res < BAD_WSP_VOLTAGE) {
  3936  0159  3000               	movlw	0
  3937  015A  0020               	movlb	0	; select bank0
  3938  015B  025A               	subwf	get_wsp@res+1,w
  3939  015C  3080               	movlw	128
  3940  015D  1903               	skipnz
  3941  015E  0259               	subwf	get_wsp@res,w
  3942  015F  1803               	skipnc
  3943  0160  2962               	goto	u2751
  3944  0161  2963               	goto	u2750
  3945  0162                     u2751:
  3946  0162  2969               	goto	l2629
  3947  0163                     __ccov321_end_blk13:
  3948  0163                     u2750:
  3949  0163                     __ccov322_start_blk14:
  3950  0163                     l2627:
  3951  0163  1523               	bsf	__ccovbit14_159/(0+8),__ccovbit14_159& (0+7)	;volatile
  3952                           
  3953                           ;main.c: 609:             bad_measures_counter++;
  3954  0164  3001               	movlw	1
  3955  0165  00F7               	movwf	??_get_wsp
  3956  0166  0877               	movf	??_get_wsp,w
  3957  0167  07CC               	addwf	get_wsp@bad_measures_counter,f
  3958                           
  3959                           ;main.c: 610:         } else {
  3960  0168  2978               	goto	l2633
  3961  0169                     __ccov322_end_blk14:
  3962  0169                     __ccov323_start_blk16:
  3963  0169                     l2629:
  3964  0169  14A3               	bsf	__ccovbit16_160/(0+8),__ccovbit16_160& (0+7)	;volatile
  3965                           
  3966                           ;main.c: 611:             if (res > GOOD_WSP_VOLTAGE) {
  3967  016A  3000               	movlw	0
  3968  016B  025A               	subwf	get_wsp@res+1,w
  3969  016C  308F               	movlw	143
  3970  016D  1903               	skipnz
  3971  016E  0259               	subwf	get_wsp@res,w
  3972  016F  1C03               	skipc
  3973  0170  2972               	goto	u2761
  3974  0171  2973               	goto	u2760
  3975  0172                     u2761:
  3976  0172  2978               	goto	l2633
  3977  0173                     __ccov323_end_blk16:
  3978  0173                     u2760:
  3979  0173                     __ccov324_start_blk17:
  3980  0173                     l2631:
  3981  0173  1423               	bsf	__ccovbit17_161/(0+8),__ccovbit17_161& (0+7)	;volatile
  3982                           
  3983                           ;main.c: 612:                 bad_measures_counter--;
  3984  0174  30FF               	movlw	255
  3985  0175  00F7               	movwf	??_get_wsp
  3986  0176  0877               	movf	??_get_wsp,w
  3987  0177  07CC               	addwf	get_wsp@bad_measures_counter,f
  3988  0178                     __ccov324_end_blk17:
  3989  0178                     __ccov325_start_blk20:
  3990  0178                     l2633:
  3991                           
  3992                           ;main.c: 615:         if (bad_measures_counter > WSP_MEAS_COUNT) {
  3993  0178  084C               	movf	get_wsp@bad_measures_counter,w
  3994  0179  3A80               	xorlw	128
  3995  017A  3E7B               	addlw	-133
  3996  017B  1C03               	skipc
  3997  017C  297E               	goto	u2771
  3998  017D  297F               	goto	u2770
  3999  017E                     u2771:
  4000  017E  2988               	goto	l2639
  4001  017F                     __ccov325_end_blk20:
  4002  017F                     u2770:
  4003  017F                     __ccov326_start_blk21:
  4004  017F                     l2635:
  4005                           
  4006                           ;main.c: 616:             start_alarm();
  4007  017F  3186  2696  3181   	fcall	_start_alarm
  4008  0182                     __ccov326_end_blk21:
  4009  0182                     __ccov327_start_blk22:
  4010  0182                     l2637:
  4011  0182  0020               	movlb	0	; select bank0
  4012  0183  17A2               	bsf	__ccovbit22_162/(0+8),__ccovbit22_162& (0+7)	;volatile
  4013                           
  4014                           ;main.c: 617:             bad_measures_counter = WSP_MEAS_COUNT;
  4015  0184  3004               	movlw	4
  4016  0185  00F7               	movwf	??_get_wsp
  4017  0186  0877               	movf	??_get_wsp,w
  4018  0187  00CC               	movwf	get_wsp@bad_measures_counter
  4019  0188                     __ccov327_end_blk22:
  4020  0188                     __ccov328_start_blk24:
  4021  0188                     l2639:
  4022                           
  4023                           ;main.c: 619:         if (bad_measures_counter < -WSP_MEAS_COUNT) {
  4024  0188  084C               	movf	get_wsp@bad_measures_counter,w
  4025  0189  3A80               	xorlw	128
  4026  018A  3E84               	addlw	132
  4027  018B  1803               	skipnc
  4028  018C  298E               	goto	u2781
  4029  018D  298F               	goto	u2780
  4030  018E                     u2781:
  4031  018E  2998               	goto	l2645
  4032  018F                     __ccov328_end_blk24:
  4033  018F                     u2780:
  4034  018F                     __ccov329_start_blk25:
  4035  018F                     l2641:
  4036                           
  4037                           ;main.c: 620:             clear_alarm();
  4038  018F  3186  26C3  3181   	fcall	_clear_alarm
  4039  0192                     __ccov329_end_blk25:
  4040  0192                     __ccov330_start_blk26:
  4041  0192                     l2643:
  4042  0192  0020               	movlb	0	; select bank0
  4043  0193  1722               	bsf	__ccovbit26_163/(0+8),__ccovbit26_163& (0+7)	;volatile
  4044                           
  4045                           ;main.c: 621:             bad_measures_counter = -WSP_MEAS_COUNT;
  4046  0194  30FC               	movlw	252
  4047  0195  00F7               	movwf	??_get_wsp
  4048  0196  0877               	movf	??_get_wsp,w
  4049  0197  00CC               	movwf	get_wsp@bad_measures_counter
  4050  0198                     __ccov330_end_blk26:
  4051  0198                     __ccov331_start_blk28:
  4052  0198                     l2645:
  4053  0198  16A2               	bsf	__ccovbit28_164/(0+8),__ccovbit28_164& (0+7)	;volatile
  4054                           
  4055                           ;main.c: 623:         ff.bits.ALLOW_MEASURE = 0;
  4056  0199  1279               	bcf	_ff,4
  4057  019A                     __ccov331_end_blk28:
  4058  019A                     __ccov332_start_blk30:
  4059  019A                     l496:
  4060  019A  0020               	movlb	0	; select bank0
  4061  019B  1622               	bsf	__ccovbit30_165/(0+8),__ccovbit30_165& (0+7)	;volatile
  4062  019C  0008               	return
  4063  019D                     __end_of_get_wsp:
  4064  019D                     
  4065                           	psect	text18
  4066  0696                     __ptext18:	
  4067 ;; *************** function _start_alarm *****************
  4068 ;; Defined at:
  4069 ;;		line 320 in file "main.c"
  4070 ;; Parameters:    Size  Location     Type
  4071 ;;		None
  4072 ;; Auto vars:     Size  Location     Type
  4073 ;;		None
  4074 ;; Return value:  Size  Location     Type
  4075 ;;                  1    wreg      void 
  4076 ;; Registers used:
  4077 ;;		status,2
  4078 ;; Tracked objects:
  4079 ;;		On entry : 0/0
  4080 ;;		On exit  : 0/0
  4081 ;;		Unchanged: 0/0
  4082 ;; Data sizes:     COMMON   BANK0   BANK1
  4083 ;;      Params:         0       0       0
  4084 ;;      Locals:         0       0       0
  4085 ;;      Temps:          0       0       0
  4086 ;;      Totals:         0       0       0
  4087 ;;Total ram usage:        0 bytes
  4088 ;; Hardware stack levels used: 1
  4089 ;; Hardware stack levels required when called: 7
  4090 ;; This function calls:
  4091 ;;		Nothing
  4092 ;; This function is called by:
  4093 ;;		_get_wsp
  4094 ;; This function uses a non-reentrant model
  4095 ;;
  4096                           
  4097  0696                     _start_alarm:	
  4098                           ;psect for function _start_alarm
  4099                           
  4100                           
  4101                           ;incstack = 0
  4102                           ; Regs used in _start_alarm: [status,2]
  4103  0696                     l2603:
  4104                           
  4105                           ;main.c: 321:     ff.bits.ALARM_ON = 1;
  4106  0696  1479               	bsf	_ff,0
  4107                           
  4108                           ;main.c: 322:     ff.bits.ALARM_OFF = 0;
  4109  0697  10F9               	bcf	_ff,1
  4110                           
  4111                           ;main.c: 323:     ff.bits.MELODY_ON = 1;
  4112  0698  14FC               	bsf	_ff+3,1
  4113                           
  4114                           ;main.c: 324:     ff.bits.SIREN = 1;
  4115  0699  14FB               	bsf	_ff+2,1
  4116  069A                     __ccov181_end_blk0:
  4117  069A                     __ccov182_start_blk1:
  4118  069A                     l2605:
  4119                           
  4120                           ;main.c: 325:     sec_count=0;
  4121  069A  0020               	movlb	0	; select bank0
  4122  069B  01D3               	clrf	_sec_count
  4123  069C                     __ccov182_end_blk1:
  4124  069C                     __ccov183_start_blk2:
  4125  069C                     l379:
  4126  069C  14AD               	bsf	__ccovbit2_80/(0+8),__ccovbit2_80& (0+7)	;volatile
  4127  069D  0008               	return
  4128  069E                     __end_of_start_alarm:
  4129  069E                     
  4130                           	psect	text19
  4131  06C3                     __ptext19:	
  4132 ;; *************** function _clear_alarm *****************
  4133 ;; Defined at:
  4134 ;;		line 328 in file "main.c"
  4135 ;; Parameters:    Size  Location     Type
  4136 ;;		None
  4137 ;; Auto vars:     Size  Location     Type
  4138 ;;		None
  4139 ;; Return value:  Size  Location     Type
  4140 ;;                  1    wreg      void 
  4141 ;; Registers used:
  4142 ;;		None
  4143 ;; Tracked objects:
  4144 ;;		On entry : 0/0
  4145 ;;		On exit  : 0/0
  4146 ;;		Unchanged: 0/0
  4147 ;; Data sizes:     COMMON   BANK0   BANK1
  4148 ;;      Params:         0       0       0
  4149 ;;      Locals:         0       0       0
  4150 ;;      Temps:          0       0       0
  4151 ;;      Totals:         0       0       0
  4152 ;;Total ram usage:        0 bytes
  4153 ;; Hardware stack levels used: 1
  4154 ;; Hardware stack levels required when called: 7
  4155 ;; This function calls:
  4156 ;;		Nothing
  4157 ;; This function is called by:
  4158 ;;		_get_wsp
  4159 ;; This function uses a non-reentrant model
  4160 ;;
  4161                           
  4162  06C3                     _clear_alarm:	
  4163                           ;psect for function _clear_alarm
  4164                           
  4165                           
  4166                           ;incstack = 0
  4167                           ; Regs used in _clear_alarm: []
  4168  06C3                     l2607:
  4169                           
  4170                           ;main.c: 329:     ff.bits.ALARM_ON = 0;
  4171  06C3  1079               	bcf	_ff,0
  4172                           
  4173                           ;main.c: 330:     ff.bits.ALARM_OFF = 1;
  4174  06C4  14F9               	bsf	_ff,1
  4175  06C5                     __ccov184_end_blk0:
  4176  06C5                     __ccov185_start_blk1:
  4177  06C5                     l382:
  4178  06C5  0020               	movlb	0	; select bank0
  4179  06C6  142D               	bsf	__ccovbit1_81/(0+8),__ccovbit1_81& (0+7)	;volatile
  4180  06C7  0008               	return
  4181  06C8                     __end_of_clear_alarm:
  4182  06C8                     
  4183                           	psect	text20
  4184  0530                     __ptext20:	
  4185 ;; *************** function _ADC_GetConversion *****************
  4186 ;; Defined at:
  4187 ;;		line 112 in file "mcc_generated_files/adc.c"
  4188 ;; Parameters:    Size  Location     Type
  4189 ;;  channel         1    wreg     enum E2178
  4190 ;; Auto vars:     Size  Location     Type
  4191 ;;  channel         1    3[COMMON] enum E2178
  4192 ;; Return value:  Size  Location     Type
  4193 ;;                  1    wreg      unsigned char 
  4194 ;; Registers used:
  4195 ;;		wreg, status,2, status,0
  4196 ;; Tracked objects:
  4197 ;;		On entry : 0/0
  4198 ;;		On exit  : 0/0
  4199 ;;		Unchanged: 0/0
  4200 ;; Data sizes:     COMMON   BANK0   BANK1
  4201 ;;      Params:         0       0       0
  4202 ;;      Locals:         1       0       0
  4203 ;;      Temps:          1       0       0
  4204 ;;      Totals:         2       0       0
  4205 ;;Total ram usage:        2 bytes
  4206 ;; Hardware stack levels used: 1
  4207 ;; Hardware stack levels required when called: 7
  4208 ;; This function calls:
  4209 ;;		Nothing
  4210 ;; This function is called by:
  4211 ;;		_get_wsp
  4212 ;; This function uses a non-reentrant model
  4213 ;;
  4214                           
  4215  0530                     _ADC_GetConversion:	
  4216                           ;psect for function _ADC_GetConversion
  4217                           
  4218                           
  4219                           ;incstack = 0
  4220                           ; Regs used in _ADC_GetConversion: [wreg+status,2+status,0]
  4221                           ;ADC_GetConversion@channel stored from wreg
  4222  0530  00F6               	movwf	ADC_GetConversion@channel
  4223  0531                     l2591:
  4224                           
  4225                           ;mcc_generated_files/adc.c: 112: char ADC_GetConversion(adc_channel_t channel);mcc_gener
      +                          ated_files/adc.c: 113: {;mcc_generated_files/adc.c: 115:     ADCON0bits.CHS = channel;
  4226  0531  0876               	movf	ADC_GetConversion@channel,w
  4227  0532  00F5               	movwf	??_ADC_GetConversion
  4228  0533  0DF5               	rlf	??_ADC_GetConversion,f
  4229  0534  0DF5               	rlf	??_ADC_GetConversion,f
  4230  0535  0021               	movlb	1	; select bank1
  4231  0536  081D               	movf	29,w	;volatile
  4232  0537  0675               	xorwf	??_ADC_GetConversion,w
  4233  0538  3983               	andlw	-125
  4234  0539  0675               	xorwf	??_ADC_GetConversion,w
  4235  053A  009D               	movwf	29	;volatile
  4236  053B                     __ccov22_end_blk0:
  4237  053B                     __ccov23_start_blk1:
  4238  053B                     l2593:
  4239                           
  4240                           ;mcc_generated_files/adc.c: 118:     ADCON0bits.ADON = 1;
  4241  053B  141D               	bsf	29,0	;volatile
  4242  053C                     __ccov23_end_blk1:
  4243  053C                     __ccov24_start_blk2:
  4244  053C                     l2595:
  4245                           
  4246                           ;mcc_generated_files/adc.c: 121:     _delay((unsigned long)((5)*(16000000/4000000.0)));
  4247  053C  3006               	movlw	6
  4248  053D                     u2877:
  4249  053D  0B89               	decfsz	9,f
  4250  053E  2D3D               	goto	u2877
  4251  053F  3200               	nop2
  4252  0540                     __ccov24_end_blk2:
  4253  0540                     __ccov25_start_blk3:
  4254  0540                     l2597:
  4255                           
  4256                           ;mcc_generated_files/adc.c: 124:     ADCON0bits.GO_nDONE = 1;
  4257  0540  0021               	movlb	1	; select bank1
  4258  0541  149D               	bsf	29,1	;volatile
  4259  0542                     __ccov25_end_blk3:
  4260  0542                     __ccov26_start_blk5:
  4261  0542                     l61:	
  4262                           ;mcc_generated_files/adc.c: 128:     {;mcc_generated_files/adc.c: 129:     }
  4263                           
  4264                           
  4265                           ;mcc_generated_files/adc.c: 127:     while (ADCON0bits.GO_nDONE)
  4266  0542  189D               	btfsc	29,1	;volatile
  4267  0543  2D45               	goto	u2721
  4268  0544  2D46               	goto	u2720
  4269  0545                     u2721:
  4270  0545  2D42               	goto	l61
  4271  0546                     __ccov26_end_blk5:
  4272  0546                     u2720:
  4273  0546                     __ccov27_start_blk7:
  4274  0546                     l2599:
  4275                           
  4276                           ;mcc_generated_files/adc.c: 132:     return (ADRESH);
  4277  0546  081C               	movf	28,w	;volatile
  4278  0547                     __ccov27_end_blk7:
  4279  0547                     __ccov28_start_blk9:
  4280  0547                     l64:
  4281  0547  1572               	bsf	__ccovbit9_5/(0+8),__ccovbit9_5& (0+7)	;volatile
  4282  0548  0008               	return
  4283  0549                     __end_of_ADC_GetConversion:
  4284  0549                     
  4285                           	psect	text21
  4286  0396                     __ptext21:	
  4287 ;; *************** function _get_jump *****************
  4288 ;; Defined at:
  4289 ;;		line 692 in file "main.c"
  4290 ;; Parameters:    Size  Location     Type
  4291 ;;		None
  4292 ;; Auto vars:     Size  Location     Type
  4293 ;;		None
  4294 ;; Return value:  Size  Location     Type
  4295 ;;                  1    wreg      void 
  4296 ;; Registers used:
  4297 ;;		wreg, status,2, status,0
  4298 ;; Tracked objects:
  4299 ;;		On entry : 0/0
  4300 ;;		On exit  : 0/0
  4301 ;;		Unchanged: 0/0
  4302 ;; Data sizes:     COMMON   BANK0   BANK1
  4303 ;;      Params:         0       0       0
  4304 ;;      Locals:         0       0       0
  4305 ;;      Temps:          1       0       0
  4306 ;;      Totals:         1       0       0
  4307 ;;Total ram usage:        1 bytes
  4308 ;; Hardware stack levels used: 1
  4309 ;; Hardware stack levels required when called: 7
  4310 ;; This function calls:
  4311 ;;		Nothing
  4312 ;; This function is called by:
  4313 ;;		_main
  4314 ;; This function uses a non-reentrant model
  4315 ;;
  4316                           
  4317  0396                     _get_jump:	
  4318                           ;psect for function _get_jump
  4319                           
  4320                           
  4321                           ;incstack = 0
  4322                           ; Regs used in _get_jump: [wreg+status,2+status,0]
  4323  0396                     l2429:
  4324                           
  4325                           ;main.c: 694:     static signed char jump_counter;;main.c: 696:     if (ff.bits.ALLOW_JU
      +                          MP) {
  4326  0396  1F79               	btfss	_ff,6
  4327  0397  2B99               	goto	u2501
  4328  0398  2B9A               	goto	u2500
  4329  0399                     u2501:
  4330  0399  2BCE               	goto	l530
  4331  039A                     __ccov352_end_blk0:
  4332  039A                     u2500:
  4333  039A                     __ccov353_start_blk1:
  4334  039A                     l521:	
  4335                           ;main.c: 698:         do { ANSELAbits.ANSA1 = 0; } while(0);
  4336                           
  4337  039A  0023               	movlb	3	; select bank3
  4338  039B  108C               	bcf	12,1	;volatile
  4339  039C                     __ccov353_end_blk1:
  4340  039C                     __ccov354_start_blk3:
  4341  039C                     l523:	
  4342                           ;main.c: 699:         do { TRISAbits.TRISA1 = 1; } while(0);
  4343                           
  4344  039C  0021               	movlb	1	; select bank1
  4345  039D  148C               	bsf	12,1	;volatile
  4346  039E                     __ccov354_end_blk3:
  4347  039E                     __ccov355_start_blk4:
  4348  039E                     l524:
  4349                           
  4350                           ;main.c: 700:         if (PORTAbits.RA1) jump_counter++;
  4351  039E  0020               	movlb	0	; select bank0
  4352  039F  1C8C               	btfss	12,1	;volatile
  4353  03A0  2BA2               	goto	u2511
  4354  03A1  2BA3               	goto	u2510
  4355  03A2                     u2511:
  4356  03A2  2BA9               	goto	l2433
  4357  03A3                     __ccov355_end_blk4:
  4358  03A3                     u2510:
  4359  03A3                     __ccov356_start_blk5:
  4360  03A3                     l2431:
  4361  03A3  1621               	bsf	__ccovbit5_173/(0+8),__ccovbit5_173& (0+7)	;volatile
  4362  03A4  3001               	movlw	1
  4363  03A5  00F5               	movwf	??_get_jump
  4364  03A6  0875               	movf	??_get_jump,w
  4365  03A7  07CA               	addwf	get_jump@jump_counter,f
  4366  03A8  2BAE               	goto	l2435
  4367  03A9                     __ccov356_end_blk5:
  4368  03A9                     __ccov357_start_blk7:
  4369  03A9                     l2433:
  4370  03A9  15A1               	bsf	__ccovbit7_174/(0+8),__ccovbit7_174& (0+7)	;volatile
  4371  03AA  30FF               	movlw	255
  4372  03AB  00F5               	movwf	??_get_jump
  4373  03AC  0875               	movf	??_get_jump,w
  4374  03AD  07CA               	addwf	get_jump@jump_counter,f
  4375  03AE                     __ccov357_end_blk7:
  4376  03AE                     __ccov358_start_blk9:
  4377  03AE                     l2435:
  4378                           
  4379                           ;main.c: 709:         if (jump_counter > JUMP_MEAS_COUNT) {
  4380  03AE  084A               	movf	get_jump@jump_counter,w
  4381  03AF  3A80               	xorlw	128
  4382  03B0  3E75               	addlw	-139
  4383  03B1  1C03               	skipc
  4384  03B2  2BB4               	goto	u2521
  4385  03B3  2BB5               	goto	u2520
  4386  03B4                     u2521:
  4387  03B4  2BBD               	goto	l2443
  4388  03B5                     __ccov358_end_blk9:
  4389  03B5                     u2520:
  4390  03B5                     __ccov359_start_blk10:
  4391  03B5                     l2437:
  4392                           
  4393                           ;main.c: 710:             jump_counter = JUMP_MEAS_COUNT;
  4394  03B5  300A               	movlw	10
  4395  03B6  00F5               	movwf	??_get_jump
  4396  03B7  0875               	movf	??_get_jump,w
  4397  03B8  00CA               	movwf	get_jump@jump_counter
  4398  03B9                     __ccov359_end_blk10:
  4399  03B9                     __ccov360_start_blk11:
  4400  03B9                     l2439:
  4401                           
  4402                           ;main.c: 711:             ff.bits.JUMP_LOW = 0;
  4403  03B9  13F9               	bcf	_ff,7
  4404  03BA                     __ccov360_end_blk11:
  4405  03BA                     __ccov361_start_blk12:
  4406  03BA                     l2441:
  4407  03BA  1521               	bsf	__ccovbit12_175/(0+8),__ccovbit12_175& (0+7)	;volatile
  4408                           
  4409                           ;main.c: 712:             ff.bits.JUMP_HIGH = 1;
  4410  03BB  147A               	bsf	_ff+1,0
  4411                           
  4412                           ;main.c: 713:         } else if (jump_counter<-JUMP_MEAS_COUNT) {
  4413  03BC  2BCC               	goto	l2451
  4414  03BD                     __ccov361_end_blk12:
  4415  03BD                     __ccov362_start_blk14:
  4416  03BD                     l2443:
  4417  03BD  14A1               	bsf	__ccovbit14_176/(0+8),__ccovbit14_176& (0+7)	;volatile
  4418  03BE  084A               	movf	get_jump@jump_counter,w
  4419  03BF  3A80               	xorlw	128
  4420  03C0  3E8A               	addlw	138
  4421  03C1  1803               	skipnc
  4422  03C2  2BC4               	goto	u2531
  4423  03C3  2BC5               	goto	u2530
  4424  03C4                     u2531:
  4425  03C4  2BCC               	goto	l2451
  4426  03C5                     __ccov362_end_blk14:
  4427  03C5                     u2530:
  4428  03C5                     __ccov363_start_blk15:
  4429  03C5                     l2445:
  4430                           
  4431                           ;main.c: 714:             jump_counter = -JUMP_MEAS_COUNT;
  4432  03C5  30F6               	movlw	246
  4433  03C6  00F5               	movwf	??_get_jump
  4434  03C7  0875               	movf	??_get_jump,w
  4435  03C8  00CA               	movwf	get_jump@jump_counter
  4436  03C9                     __ccov363_end_blk15:
  4437  03C9                     __ccov364_start_blk16:
  4438  03C9                     l2447:
  4439                           
  4440                           ;main.c: 715:             ff.bits.JUMP_LOW = 1;
  4441  03C9  17F9               	bsf	_ff,7
  4442  03CA                     __ccov364_end_blk16:
  4443  03CA                     __ccov365_start_blk17:
  4444  03CA                     l2449:
  4445  03CA  1421               	bsf	__ccovbit17_177/(0+8),__ccovbit17_177& (0+7)	;volatile
  4446                           
  4447                           ;main.c: 716:             ff.bits.JUMP_HIGH = 0;
  4448  03CB  107A               	bcf	_ff+1,0
  4449  03CC                     __ccov365_end_blk17:
  4450  03CC                     __ccov366_start_blk20:
  4451  03CC                     l2451:
  4452  03CC  17A0               	bsf	__ccovbit20_178/(0+8),__ccovbit20_178& (0+7)	;volatile
  4453                           
  4454                           ;main.c: 718:         ff.bits.ALLOW_JUMP = 0;
  4455  03CD  1379               	bcf	_ff,6
  4456  03CE                     __ccov366_end_blk20:
  4457  03CE                     __ccov367_start_blk22:
  4458  03CE                     l530:
  4459  03CE  0020               	movlb	0	; select bank0
  4460  03CF  1720               	bsf	__ccovbit22_179/(0+8),__ccovbit22_179& (0+7)	;volatile
  4461  03D0  0008               	return
  4462  03D1                     __end_of_get_jump:
  4463  03D1                     
  4464                           	psect	text22
  4465  024E                     __ptext22:	
  4466 ;; *************** function _get_fun *****************
  4467 ;; Defined at:
  4468 ;;		line 627 in file "main.c"
  4469 ;; Parameters:    Size  Location     Type
  4470 ;;		None
  4471 ;; Auto vars:     Size  Location     Type
  4472 ;;		None
  4473 ;; Return value:  Size  Location     Type
  4474 ;;                  1    wreg      void 
  4475 ;; Registers used:
  4476 ;;		wreg, status,2, status,0
  4477 ;; Tracked objects:
  4478 ;;		On entry : 0/0
  4479 ;;		On exit  : 0/0
  4480 ;;		Unchanged: 0/0
  4481 ;; Data sizes:     COMMON   BANK0   BANK1
  4482 ;;      Params:         0       0       0
  4483 ;;      Locals:         0       0       0
  4484 ;;      Temps:          1       0       0
  4485 ;;      Totals:         1       0       0
  4486 ;;Total ram usage:        1 bytes
  4487 ;; Hardware stack levels used: 1
  4488 ;; Hardware stack levels required when called: 7
  4489 ;; This function calls:
  4490 ;;		Nothing
  4491 ;; This function is called by:
  4492 ;;		_main
  4493 ;; This function uses a non-reentrant model
  4494 ;;
  4495                           
  4496  024E                     _get_fun:	
  4497                           ;psect for function _get_fun
  4498                           
  4499                           
  4500                           ;incstack = 0
  4501                           ; Regs used in _get_fun: [wreg+status,2+status,0]
  4502  024E                     l2395:
  4503                           
  4504                           ;main.c: 629:     if (ff.bits.ALLOW_FUN) {
  4505  024E  1EF9               	btfss	_ff,5
  4506  024F  2A51               	goto	u2461
  4507  0250  2A52               	goto	u2460
  4508  0251                     u2461:
  4509  0251  2A93               	goto	l515
  4510  0252                     __ccov333_end_blk0:
  4511  0252                     u2460:
  4512  0252                     __ccov334_start_blk1:
  4513  0252                     l502:	
  4514                           ;main.c: 631:         static signed char fun_counter;;main.c: 632:         do { LATCbits
      +                          .LATC1 = 1; } while(0);
  4515                           
  4516  0252  0022               	movlb	2	; select bank2
  4517  0253  148E               	bsf	14,1	;volatile
  4518  0254                     __ccov334_end_blk1:
  4519  0254                     __ccov335_start_blk3:
  4520  0254                     l2397:
  4521                           
  4522                           ;main.c: 633:         _delay((unsigned long)((1)*(16000000/4000.0)));
  4523  0254  3006               	movlw	6
  4524  0255  00F5               	movwf	??_get_fun
  4525  0256  3030               	movlw	48
  4526  0257                     u2887:
  4527  0257  0B89               	decfsz	9,f
  4528  0258  2A57               	goto	u2887
  4529  0259  0BF5               	decfsz	??_get_fun,f
  4530  025A  2A57               	goto	u2887
  4531  025B  3200               	nop2
  4532  025C                     __ccov335_end_blk3:
  4533  025C                     __ccov336_start_blk5:
  4534  025C                     l2399:
  4535  025C  0023               	movlb	3	; select bank3
  4536  025D  110E               	bcf	14,2	;volatile
  4537  025E                     __ccov336_end_blk5:
  4538  025E                     __ccov337_start_blk8:
  4539  025E                     l2401:
  4540  025E  0021               	movlb	1	; select bank1
  4541  025F  150E               	bsf	14,2	;volatile
  4542  0260                     __ccov337_end_blk8:
  4543  0260                     __ccov338_start_blk10:
  4544  0260                     l2403:
  4545                           
  4546                           ;main.c: 636:         if (PORTCbits.RC2) fun_counter--;
  4547  0260  0020               	movlb	0	; select bank0
  4548  0261  1D0E               	btfss	14,2	;volatile
  4549  0262  2A64               	goto	u2471
  4550  0263  2A65               	goto	u2470
  4551  0264                     u2471:
  4552  0264  2A6B               	goto	l2407
  4553  0265                     __ccov338_end_blk10:
  4554  0265                     u2470:
  4555  0265                     __ccov339_start_blk11:
  4556  0265                     l2405:
  4557  0265  15A2               	bsf	__ccovbit11_166/(0+8),__ccovbit11_166& (0+7)	;volatile
  4558  0266  30FF               	movlw	255
  4559  0267  00F5               	movwf	??_get_fun
  4560  0268  0875               	movf	??_get_fun,w
  4561  0269  07CB               	addwf	get_fun@fun_counter,f
  4562  026A  2A70               	goto	l2409
  4563  026B                     __ccov339_end_blk11:
  4564  026B                     __ccov340_start_blk13:
  4565  026B                     l2407:
  4566  026B  1522               	bsf	__ccovbit13_167/(0+8),__ccovbit13_167& (0+7)	;volatile
  4567  026C  3001               	movlw	1
  4568  026D  00F5               	movwf	??_get_fun
  4569  026E  0875               	movf	??_get_fun,w
  4570  026F  07CB               	addwf	get_fun@fun_counter,f
  4571  0270                     __ccov340_end_blk13:
  4572  0270                     __ccov341_start_blk16:
  4573  0270                     l2409:
  4574  0270  0022               	movlb	2	; select bank2
  4575  0271  108E               	bcf	14,1	;volatile
  4576  0272                     __ccov341_end_blk16:
  4577  0272                     __ccov342_start_blk18:
  4578  0272                     l2411:
  4579                           
  4580                           ;main.c: 644:         if (fun_counter > FUN_MEAS_COUNT) {
  4581  0272  0020               	movlb	0	; select bank0
  4582  0273  084B               	movf	get_fun@fun_counter,w
  4583  0274  3A80               	xorlw	128
  4584  0275  3E75               	addlw	-139
  4585  0276  1C03               	skipc
  4586  0277  2A79               	goto	u2481
  4587  0278  2A7A               	goto	u2480
  4588  0279                     u2481:
  4589  0279  2A82               	goto	l2419
  4590  027A                     __ccov342_end_blk18:
  4591  027A                     u2480:
  4592  027A                     __ccov343_start_blk19:
  4593  027A                     l2413:
  4594                           
  4595                           ;main.c: 645:             fun_counter = FUN_MEAS_COUNT;
  4596  027A  300A               	movlw	10
  4597  027B  00F5               	movwf	??_get_fun
  4598  027C  0875               	movf	??_get_fun,w
  4599  027D  00CB               	movwf	get_fun@fun_counter
  4600  027E                     __ccov343_end_blk19:
  4601  027E                     __ccov344_start_blk20:
  4602  027E                     l2415:
  4603                           
  4604                           ;main.c: 646:             ff.bits.FUN_LOW = 0;
  4605  027E  11F9               	bcf	_ff,3
  4606  027F                     __ccov344_end_blk20:
  4607  027F                     __ccov345_start_blk21:
  4608  027F                     l2417:
  4609  027F  14A2               	bsf	__ccovbit21_168/(0+8),__ccovbit21_168& (0+7)	;volatile
  4610                           
  4611                           ;main.c: 647:             ff.bits.FUN_HIGH = 1;
  4612  0280  1579               	bsf	_ff,2
  4613                           
  4614                           ;main.c: 648:         } else if (fun_counter<-FUN_MEAS_COUNT) {
  4615  0281  2A91               	goto	l2427
  4616  0282                     __ccov345_end_blk21:
  4617  0282                     __ccov346_start_blk23:
  4618  0282                     l2419:
  4619  0282  1422               	bsf	__ccovbit23_169/(0+8),__ccovbit23_169& (0+7)	;volatile
  4620  0283  084B               	movf	get_fun@fun_counter,w
  4621  0284  3A80               	xorlw	128
  4622  0285  3E8A               	addlw	138
  4623  0286  1803               	skipnc
  4624  0287  2A89               	goto	u2491
  4625  0288  2A8A               	goto	u2490
  4626  0289                     u2491:
  4627  0289  2A91               	goto	l2427
  4628  028A                     __ccov346_end_blk23:
  4629  028A                     u2490:
  4630  028A                     __ccov347_start_blk24:
  4631  028A                     l2421:
  4632                           
  4633                           ;main.c: 649:             fun_counter = -FUN_MEAS_COUNT;
  4634  028A  30F6               	movlw	246
  4635  028B  00F5               	movwf	??_get_fun
  4636  028C  0875               	movf	??_get_fun,w
  4637  028D  00CB               	movwf	get_fun@fun_counter
  4638  028E                     __ccov347_end_blk24:
  4639  028E                     __ccov348_start_blk25:
  4640  028E                     l2423:
  4641                           
  4642                           ;main.c: 650:             ff.bits.FUN_LOW = 1;
  4643  028E  15F9               	bsf	_ff,3
  4644  028F                     __ccov348_end_blk25:
  4645  028F                     __ccov349_start_blk26:
  4646  028F                     l2425:
  4647  028F  17A1               	bsf	__ccovbit26_170/(0+8),__ccovbit26_170& (0+7)	;volatile
  4648                           
  4649                           ;main.c: 651:             ff.bits.FUN_HIGH = 0;
  4650  0290  1179               	bcf	_ff,2
  4651  0291                     __ccov349_end_blk26:
  4652  0291                     __ccov350_start_blk29:
  4653  0291                     l2427:
  4654  0291  1721               	bsf	__ccovbit29_171/(0+8),__ccovbit29_171& (0+7)	;volatile
  4655                           
  4656                           ;main.c: 653:         ff.bits.ALLOW_FUN = 0;
  4657  0292  12F9               	bcf	_ff,5
  4658  0293                     __ccov350_end_blk29:
  4659  0293                     __ccov351_start_blk31:
  4660  0293                     l515:
  4661  0293  0020               	movlb	0	; select bank0
  4662  0294  16A1               	bsf	__ccovbit31_172/(0+8),__ccovbit31_172& (0+7)	;volatile
  4663  0295  0008               	return
  4664  0296                     __end_of_get_fun:
  4665  0296                     
  4666                           	psect	text23
  4667  01FC                     __ptext23:	
  4668 ;; *************** function _fun_work *****************
  4669 ;; Defined at:
  4670 ;;		line 333 in file "main.c"
  4671 ;; Parameters:    Size  Location     Type
  4672 ;;		None
  4673 ;; Auto vars:     Size  Location     Type
  4674 ;;		None
  4675 ;; Return value:  Size  Location     Type
  4676 ;;                  1    wreg      void 
  4677 ;; Registers used:
  4678 ;;		wreg, status,2, status,0, pclath, cstack
  4679 ;; Tracked objects:
  4680 ;;		On entry : 0/0
  4681 ;;		On exit  : 0/0
  4682 ;;		Unchanged: 0/0
  4683 ;; Data sizes:     COMMON   BANK0   BANK1
  4684 ;;      Params:         0       0       0
  4685 ;;      Locals:         0       0       0
  4686 ;;      Temps:          1       0       0
  4687 ;;      Totals:         1       0       0
  4688 ;;Total ram usage:        1 bytes
  4689 ;; Hardware stack levels used: 1
  4690 ;; Hardware stack levels required when called: 9
  4691 ;; This function calls:
  4692 ;;		_close
  4693 ;;		_open
  4694 ;; This function is called by:
  4695 ;;		_main
  4696 ;; This function uses a non-reentrant model
  4697 ;;
  4698                           
  4699  01FC                     _fun_work:	
  4700                           ;psect for function _fun_work
  4701                           
  4702                           
  4703                           ;incstack = 0
  4704                           ; Regs used in _fun_work: [wreg+status,2+status,0+pclath+cstack]
  4705  01FC                     l2271:
  4706                           
  4707                           ;main.c: 334:     {;main.c: 335:         if (
  4708  01FC  1DF9               	btfss	_ff,3
  4709  01FD  29FF               	goto	u2121
  4710  01FE  2A00               	goto	u2120
  4711  01FF                     u2121:
  4712  01FF  2A25               	goto	l2289
  4713  0200                     __ccov186_end_blk0:
  4714  0200                     u2120:
  4715  0200                     __ccov187_start_blk1:
  4716  0200                     l2273:
  4717  0200  0020               	movlb	0	; select bank0
  4718  0201  17AC               	bsf	__ccovbit1_82/(0+8),__ccovbit1_82& (0+7)	;volatile
  4719  0202  1979               	btfsc	_ff,2
  4720  0203  2A05               	goto	u2131
  4721  0204  2A06               	goto	u2130
  4722  0205                     u2131:
  4723  0205  2A25               	goto	l2289
  4724  0206                     __ccov187_end_blk1:
  4725  0206                     u2130:
  4726  0206                     __ccov188_start_blk2:
  4727  0206                     l2275:
  4728  0206  172C               	bsf	__ccovbit2_83/(0+8),__ccovbit2_83& (0+7)	;volatile
  4729  0207  1CF9               	btfss	_ff,1
  4730  0208  2A0A               	goto	u2141
  4731  0209  2A0B               	goto	u2140
  4732  020A                     u2141:
  4733  020A  2A25               	goto	l2289
  4734  020B                     __ccov188_end_blk2:
  4735  020B                     u2140:
  4736  020B                     __ccov189_start_blk3:
  4737  020B                     l2277:
  4738  020B  16AC               	bsf	__ccovbit3_84/(0+8),__ccovbit3_84& (0+7)	;volatile
  4739  020C  1DFB               	btfss	_ff+2,3
  4740  020D  2A0F               	goto	u2151
  4741  020E  2A10               	goto	u2150
  4742  020F                     u2151:
  4743  020F  2A25               	goto	l2289
  4744  0210                     __ccov189_end_blk3:
  4745  0210                     u2150:
  4746  0210                     __ccov190_start_blk4:
  4747  0210                     l2279:
  4748  0210  162C               	bsf	__ccovbit4_85/(0+8),__ccovbit4_85& (0+7)	;volatile
  4749  0211  197A               	btfsc	_ff+1,2
  4750  0212  2A14               	goto	u2161
  4751  0213  2A15               	goto	u2160
  4752  0214                     u2161:
  4753  0214  2A25               	goto	l2289
  4754  0215                     __ccov190_end_blk4:
  4755  0215                     u2160:
  4756  0215                     __ccov191_start_blk5:
  4757  0215                     l2281:
  4758  0215  15AC               	bsf	__ccovbit5_86/(0+8),__ccovbit5_86& (0+7)	;volatile
  4759  0216  18FA               	btfsc	_ff+1,1
  4760  0217  2A19               	goto	u2171
  4761  0218  2A1A               	goto	u2170
  4762  0219                     u2171:
  4763  0219  2A25               	goto	l2289
  4764  021A                     __ccov191_end_blk5:
  4765  021A                     u2170:
  4766  021A                     __ccov192_start_blk6:
  4767  021A                     l2283:
  4768  021A  152C               	bsf	__ccovbit6_87/(0+8),__ccovbit6_87& (0+7)	;volatile
  4769  021B  187C               	btfsc	_ff+3,0
  4770  021C  2A1E               	goto	u2181
  4771  021D  2A1F               	goto	u2180
  4772  021E                     u2181:
  4773  021E  2A25               	goto	l2289
  4774  021F                     __ccov192_end_blk6:
  4775  021F                     u2180:
  4776  021F                     __ccov193_start_blk7:
  4777  021F                     l2285:
  4778                           
  4779                           ;main.c: 342:                 !ff.bits.AUTOROTATION_WORK) {;main.c: 343:             bee
      +                          p_short_count = 1;
  4780  021F  01FD               	clrf	_beep_short_count
  4781  0220  0AFD               	incf	_beep_short_count,f
  4782  0221                     __ccov193_end_blk7:
  4783  0221                     __ccov194_start_blk8:
  4784  0221                     l2287:
  4785  0221  14AC               	bsf	__ccovbit8_88/(0+8),__ccovbit8_88& (0+7)	;volatile
  4786                           
  4787                           ;main.c: 344:             open();
  4788  0222  3184  249E  3181   	fcall	_open
  4789  0225                     __ccov194_end_blk8:
  4790  0225                     __ccov195_start_blk10:
  4791  0225                     l2289:
  4792                           
  4793                           ;main.c: 346:         if (
  4794  0225  1D79               	btfss	_ff,2
  4795  0226  2A28               	goto	u2191
  4796  0227  2A29               	goto	u2190
  4797  0228                     u2191:
  4798  0228  2A4B               	goto	l387
  4799  0229                     __ccov195_end_blk10:
  4800  0229                     u2190:
  4801  0229                     __ccov196_start_blk11:
  4802  0229                     l2291:
  4803  0229  0020               	movlb	0	; select bank0
  4804  022A  142C               	bsf	__ccovbit11_89/(0+8),__ccovbit11_89& (0+7)	;volatile
  4805  022B  1DFB               	btfss	_ff+2,3
  4806  022C  2A2E               	goto	u2201
  4807  022D  2A2F               	goto	u2200
  4808  022E                     u2201:
  4809  022E  2A4B               	goto	l387
  4810  022F                     __ccov196_end_blk11:
  4811  022F                     u2200:
  4812  022F                     __ccov197_start_blk12:
  4813  022F                     l2293:
  4814  022F  17AB               	bsf	__ccovbit12_90/(0+8),__ccovbit12_90& (0+7)	;volatile
  4815  0230  19F9               	btfsc	_ff,3
  4816  0231  2A33               	goto	u2211
  4817  0232  2A34               	goto	u2210
  4818  0233                     u2211:
  4819  0233  2A4B               	goto	l387
  4820  0234                     __ccov197_end_blk12:
  4821  0234                     u2210:
  4822  0234                     __ccov198_start_blk13:
  4823  0234                     l2295:
  4824  0234  172B               	bsf	__ccovbit13_91/(0+8),__ccovbit13_91& (0+7)	;volatile
  4825  0235  1A7A               	btfsc	_ff+1,4
  4826  0236  2A38               	goto	u2221
  4827  0237  2A39               	goto	u2220
  4828  0238                     u2221:
  4829  0238  2A4B               	goto	l387
  4830  0239                     __ccov198_end_blk13:
  4831  0239                     u2220:
  4832  0239                     __ccov199_start_blk14:
  4833  0239                     l2297:
  4834  0239  16AB               	bsf	__ccovbit14_92/(0+8),__ccovbit14_92& (0+7)	;volatile
  4835  023A  19FA               	btfsc	_ff+1,3
  4836  023B  2A3D               	goto	u2231
  4837  023C  2A3E               	goto	u2230
  4838  023D                     u2231:
  4839  023D  2A4B               	goto	l387
  4840  023E                     __ccov199_end_blk14:
  4841  023E                     u2230:
  4842  023E                     __ccov200_start_blk15:
  4843  023E                     l2299:
  4844  023E  162B               	bsf	__ccovbit15_93/(0+8),__ccovbit15_93& (0+7)	;volatile
  4845  023F  187C               	btfsc	_ff+3,0
  4846  0240  2A42               	goto	u2241
  4847  0241  2A43               	goto	u2240
  4848  0242                     u2241:
  4849  0242  2A4B               	goto	l387
  4850  0243                     __ccov200_end_blk15:
  4851  0243                     u2240:
  4852  0243                     __ccov201_start_blk16:
  4853  0243                     l2301:
  4854                           
  4855                           ;main.c: 352:                 !ff.bits.AUTOROTATION_WORK) {;main.c: 353:             bee
      +                          p_short_count = 2;
  4856  0243  3002               	movlw	2
  4857  0244  00F5               	movwf	??_fun_work
  4858  0245  0875               	movf	??_fun_work,w
  4859  0246  00FD               	movwf	_beep_short_count
  4860  0247                     __ccov201_end_blk16:
  4861  0247                     __ccov202_start_blk17:
  4862  0247                     l2303:
  4863  0247  15AB               	bsf	__ccovbit17_94/(0+8),__ccovbit17_94& (0+7)	;volatile
  4864                           
  4865                           ;main.c: 354:             close();
  4866  0248  3184  24BF  3181   	fcall	_close
  4867  024B                     __ccov202_end_blk17:
  4868  024B                     __ccov203_start_blk19:
  4869  024B                     l387:
  4870  024B  0020               	movlb	0	; select bank0
  4871  024C  152B               	bsf	__ccovbit19_95/(0+8),__ccovbit19_95& (0+7)	;volatile
  4872  024D  0008               	return
  4873  024E                     __end_of_fun_work:
  4874  024E                     
  4875                           	psect	text24
  4876  049E                     __ptext24:	
  4877 ;; *************** function _open *****************
  4878 ;; Defined at:
  4879 ;;		line 264 in file "main.c"
  4880 ;; Parameters:    Size  Location     Type
  4881 ;;		None
  4882 ;; Auto vars:     Size  Location     Type
  4883 ;;		None
  4884 ;; Return value:  Size  Location     Type
  4885 ;;                  1    wreg      void 
  4886 ;; Registers used:
  4887 ;;		wreg, status,2, status,0, pclath, cstack
  4888 ;; Tracked objects:
  4889 ;;		On entry : 0/0
  4890 ;;		On exit  : 0/0
  4891 ;;		Unchanged: 0/0
  4892 ;; Data sizes:     COMMON   BANK0   BANK1
  4893 ;;      Params:         0       0       0
  4894 ;;      Locals:         0       0       0
  4895 ;;      Temps:          0       0       0
  4896 ;;      Totals:         0       0       0
  4897 ;;Total ram usage:        0 bytes
  4898 ;; Hardware stack levels used: 1
  4899 ;; Hardware stack levels required when called: 8
  4900 ;; This function calls:
  4901 ;;		_go_open
  4902 ;;		_go_open_alt
  4903 ;;		_rele_off
  4904 ;; This function is called by:
  4905 ;;		_fun_work
  4906 ;; This function uses a non-reentrant model
  4907 ;;
  4908                           
  4909  049E                     _open:	
  4910                           ;psect for function _open
  4911                           
  4912                           
  4913                           ;incstack = 0
  4914                           ; Regs used in _open: [wreg+status,2+status,0+pclath+cstack]
  4915  049E                     l2205:
  4916                           
  4917                           ;main.c: 265:     if (ff.bits.CLOSING) {
  4918  049E  1DFA               	btfss	_ff+1,3
  4919  049F  2CA1               	goto	u2001
  4920  04A0  2CA2               	goto	u2000
  4921  04A1                     u2001:
  4922  04A1  2CA8               	goto	l357
  4923  04A2                     __ccov155_end_blk0:
  4924  04A2                     u2000:
  4925  04A2                     __ccov156_start_blk1:
  4926  04A2                     l2207:
  4927  04A2  0020               	movlb	0	; select bank0
  4928  04A3  152F               	bsf	__ccovbit1_63/(0+8),__ccovbit1_63& (0+7)	;volatile
  4929                           
  4930                           ;main.c: 266:         rele_off();
  4931  04A4  3185  25D5  3184   	fcall	_rele_off
  4932                           
  4933                           ;main.c: 267:     } else {
  4934  04A7  2CBC               	goto	l362
  4935  04A8                     __ccov156_end_blk1:
  4936  04A8                     __ccov157_start_blk2:
  4937  04A8                     l357:
  4938                           
  4939                           ;main.c: 268:         if (ff.bits.NORMAL_WORK_MODE_ON) {
  4940  04A8  1E7B               	btfss	_ff+2,4
  4941  04A9  2CAB               	goto	u2011
  4942  04AA  2CAC               	goto	u2010
  4943  04AB                     u2011:
  4944  04AB  2CB2               	goto	l359
  4945  04AC                     __ccov157_end_blk2:
  4946  04AC                     u2010:
  4947  04AC                     __ccov158_start_blk3:
  4948  04AC                     l2209:
  4949  04AC  0020               	movlb	0	; select bank0
  4950  04AD  14AF               	bsf	__ccovbit3_64/(0+8),__ccovbit3_64& (0+7)	;volatile
  4951                           
  4952                           ;main.c: 269:             go_open();
  4953  04AE  3184  24E0  3184   	fcall	_go_open
  4954                           
  4955                           ;main.c: 270:         } else if (ff.bits.UNIVERSAL_VORK_MODE_ON) {
  4956  04B1  2CBC               	goto	l362
  4957  04B2                     __ccov158_end_blk3:
  4958  04B2                     __ccov159_start_blk4:
  4959  04B2                     l359:
  4960  04B2  0020               	movlb	0	; select bank0
  4961  04B3  142F               	bsf	__ccovbit4_65/(0+8),__ccovbit4_65& (0+7)	;volatile
  4962  04B4  1EFB               	btfss	_ff+2,5
  4963  04B5  2CB7               	goto	u2021
  4964  04B6  2CB8               	goto	u2020
  4965  04B7                     u2021:
  4966  04B7  2CBC               	goto	l362
  4967  04B8                     __ccov159_end_blk4:
  4968  04B8                     u2020:
  4969  04B8                     __ccov160_start_blk5:
  4970  04B8                     l2211:
  4971  04B8  17AE               	bsf	__ccovbit5_66/(0+8),__ccovbit5_66& (0+7)	;volatile
  4972                           
  4973                           ;main.c: 271:             go_open_alt();
  4974  04B9  3186  2611  3184   	fcall	_go_open_alt
  4975  04BC                     __ccov160_end_blk5:
  4976  04BC                     __ccov161_start_blk9:
  4977  04BC                     l362:
  4978  04BC  0020               	movlb	0	; select bank0
  4979  04BD  172E               	bsf	__ccovbit9_67/(0+8),__ccovbit9_67& (0+7)	;volatile
  4980  04BE  0008               	return
  4981  04BF                     __end_of_open:
  4982  04BF                     
  4983                           	psect	text25
  4984  0611                     __ptext25:	
  4985 ;; *************** function _go_open_alt *****************
  4986 ;; Defined at:
  4987 ;;		line 227 in file "main.c"
  4988 ;; Parameters:    Size  Location     Type
  4989 ;;		None
  4990 ;; Auto vars:     Size  Location     Type
  4991 ;;		None
  4992 ;; Return value:  Size  Location     Type
  4993 ;;                  1    wreg      void 
  4994 ;; Registers used:
  4995 ;;		None
  4996 ;; Tracked objects:
  4997 ;;		On entry : 0/0
  4998 ;;		On exit  : 0/0
  4999 ;;		Unchanged: 0/0
  5000 ;; Data sizes:     COMMON   BANK0   BANK1
  5001 ;;      Params:         0       0       0
  5002 ;;      Locals:         0       0       0
  5003 ;;      Temps:          0       0       0
  5004 ;;      Totals:         0       0       0
  5005 ;;Total ram usage:        0 bytes
  5006 ;; Hardware stack levels used: 1
  5007 ;; Hardware stack levels required when called: 7
  5008 ;; This function calls:
  5009 ;;		Nothing
  5010 ;; This function is called by:
  5011 ;;		_open
  5012 ;; This function uses a non-reentrant model
  5013 ;;
  5014                           
  5015  0611                     _go_open_alt:	
  5016                           ;psect for function _go_open_alt
  5017                           
  5018                           
  5019                           ;incstack = 0
  5020                           ; Regs used in _go_open_alt: []
  5021  0611                     l1385:
  5022                           
  5023                           ;main.c: 228:     if (!ff.bits.OPENED && ff.bits.MOVING_ALLOWED) {
  5024  0611  197A               	btfsc	_ff+1,2
  5025  0612  2E14               	goto	u281
  5026  0613  2E15               	goto	u280
  5027  0614                     u281:
  5028  0614  2E20               	goto	l341
  5029  0615                     __ccov139_end_blk0:
  5030  0615                     u280:
  5031  0615                     __ccov140_start_blk1:
  5032  0615                     l1387:
  5033  0615  0020               	movlb	0	; select bank0
  5034  0616  16B0               	bsf	__ccovbit1_52/(0+8),__ccovbit1_52& (0+7)	;volatile
  5035  0617  1DFB               	btfss	_ff+2,3
  5036  0618  2E1A               	goto	u291
  5037  0619  2E1B               	goto	u290
  5038  061A                     u291:
  5039  061A  2E20               	goto	l341
  5040  061B                     __ccov140_end_blk1:
  5041  061B                     u290:
  5042  061B                     __ccov141_start_blk2:
  5043  061B                     l1389:
  5044  061B  1630               	bsf	__ccovbit2_53/(0+8),__ccovbit2_53& (0+7)	;volatile
  5045                           
  5046                           ;main.c: 229:         ff.bits.CLOSED = 0;
  5047  061C  127A               	bcf	_ff+1,4
  5048                           
  5049                           ;main.c: 230:         ff.bits.OPENED = 1;
  5050  061D  157A               	bsf	_ff+1,2
  5051                           
  5052                           ;main.c: 232:         ff.bits.RELE_CONTROL_ON = 0;
  5053  061E  137A               	bcf	_ff+1,6
  5054                           
  5055                           ;main.c: 233:         ff.bits.RELE_POWER_ON = 0;
  5056  061F  12FA               	bcf	_ff+1,5
  5057  0620                     __ccov141_end_blk2:
  5058  0620                     __ccov142_start_blk4:
  5059  0620                     l341:
  5060  0620  0020               	movlb	0	; select bank0
  5061  0621  15B0               	bsf	__ccovbit4_54/(0+8),__ccovbit4_54& (0+7)	;volatile
  5062  0622  0008               	return
  5063  0623                     __end_of_go_open_alt:
  5064  0623                     
  5065                           	psect	text26
  5066  04BF                     __ptext26:	
  5067 ;; *************** function _close *****************
  5068 ;; Defined at:
  5069 ;;		line 252 in file "main.c"
  5070 ;; Parameters:    Size  Location     Type
  5071 ;;		None
  5072 ;; Auto vars:     Size  Location     Type
  5073 ;;		None
  5074 ;; Return value:  Size  Location     Type
  5075 ;;                  1    wreg      void 
  5076 ;; Registers used:
  5077 ;;		wreg, status,2, status,0, pclath, cstack
  5078 ;; Tracked objects:
  5079 ;;		On entry : 0/0
  5080 ;;		On exit  : 0/0
  5081 ;;		Unchanged: 0/0
  5082 ;; Data sizes:     COMMON   BANK0   BANK1
  5083 ;;      Params:         0       0       0
  5084 ;;      Locals:         0       0       0
  5085 ;;      Temps:          0       0       0
  5086 ;;      Totals:         0       0       0
  5087 ;;Total ram usage:        0 bytes
  5088 ;; Hardware stack levels used: 1
  5089 ;; Hardware stack levels required when called: 8
  5090 ;; This function calls:
  5091 ;;		_go_close
  5092 ;;		_go_close_alt
  5093 ;;		_rele_off
  5094 ;; This function is called by:
  5095 ;;		_fun_work
  5096 ;;		_main
  5097 ;; This function uses a non-reentrant model
  5098 ;;
  5099                           
  5100  04BF                     _close:	
  5101                           ;psect for function _close
  5102                           
  5103                           
  5104                           ;incstack = 0
  5105                           ; Regs used in _close: [wreg+status,2+status,0+pclath+cstack]
  5106  04BF                     l2197:
  5107                           
  5108                           ;main.c: 253:     if (ff.bits.OPENING) {
  5109  04BF  1CFA               	btfss	_ff+1,1
  5110  04C0  2CC2               	goto	u1971
  5111  04C1  2CC3               	goto	u1970
  5112  04C2                     u1971:
  5113  04C2  2CC9               	goto	l349
  5114  04C3                     __ccov148_end_blk0:
  5115  04C3                     u1970:
  5116  04C3                     __ccov149_start_blk1:
  5117  04C3                     l2199:
  5118  04C3  0020               	movlb	0	; select bank0
  5119  04C4  17AF               	bsf	__ccovbit1_58/(0+8),__ccovbit1_58& (0+7)	;volatile
  5120                           
  5121                           ;main.c: 254:         rele_off();
  5122  04C5  3185  25D5  3184   	fcall	_rele_off
  5123                           
  5124                           ;main.c: 255:     } else {
  5125  04C8  2CDD               	goto	l354
  5126  04C9                     __ccov149_end_blk1:
  5127  04C9                     __ccov150_start_blk2:
  5128  04C9                     l349:
  5129                           
  5130                           ;main.c: 256:         if (ff.bits.NORMAL_WORK_MODE_ON) {
  5131  04C9  1E7B               	btfss	_ff+2,4
  5132  04CA  2CCC               	goto	u1981
  5133  04CB  2CCD               	goto	u1980
  5134  04CC                     u1981:
  5135  04CC  2CD3               	goto	l351
  5136  04CD                     __ccov150_end_blk2:
  5137  04CD                     u1980:
  5138  04CD                     __ccov151_start_blk3:
  5139  04CD                     l2201:
  5140  04CD  0020               	movlb	0	; select bank0
  5141  04CE  172F               	bsf	__ccovbit3_59/(0+8),__ccovbit3_59& (0+7)	;volatile
  5142                           
  5143                           ;main.c: 257:             go_close();
  5144  04CF  3183  23FD  3184   	fcall	_go_close
  5145                           
  5146                           ;main.c: 258:         } else if (ff.bits.UNIVERSAL_VORK_MODE_ON) {
  5147  04D2  2CDD               	goto	l354
  5148  04D3                     __ccov151_end_blk3:
  5149  04D3                     __ccov152_start_blk4:
  5150  04D3                     l351:
  5151  04D3  0020               	movlb	0	; select bank0
  5152  04D4  16AF               	bsf	__ccovbit4_60/(0+8),__ccovbit4_60& (0+7)	;volatile
  5153  04D5  1EFB               	btfss	_ff+2,5
  5154  04D6  2CD8               	goto	u1991
  5155  04D7  2CD9               	goto	u1990
  5156  04D8                     u1991:
  5157  04D8  2CDD               	goto	l354
  5158  04D9                     __ccov152_end_blk4:
  5159  04D9                     u1990:
  5160  04D9                     __ccov153_start_blk5:
  5161  04D9                     l2203:
  5162  04D9  162F               	bsf	__ccovbit5_61/(0+8),__ccovbit5_61& (0+7)	;volatile
  5163                           
  5164                           ;main.c: 259:             go_close_alt();
  5165  04DA  3185  25A8  3184   	fcall	_go_close_alt
  5166  04DD                     __ccov153_end_blk5:
  5167  04DD                     __ccov154_start_blk9:
  5168  04DD                     l354:
  5169  04DD  0020               	movlb	0	; select bank0
  5170  04DE  15AF               	bsf	__ccovbit9_62/(0+8),__ccovbit9_62& (0+7)	;volatile
  5171  04DF  0008               	return
  5172  04E0                     __end_of_close:
  5173  04E0                     
  5174                           	psect	text27
  5175  05D5                     __ptext27:	
  5176 ;; *************** function _rele_off *****************
  5177 ;; Defined at:
  5178 ;;		line 237 in file "main.c"
  5179 ;; Parameters:    Size  Location     Type
  5180 ;;		None
  5181 ;; Auto vars:     Size  Location     Type
  5182 ;;		None
  5183 ;; Return value:  Size  Location     Type
  5184 ;;                  1    wreg      void 
  5185 ;; Registers used:
  5186 ;;		None
  5187 ;; Tracked objects:
  5188 ;;		On entry : 0/0
  5189 ;;		On exit  : 0/0
  5190 ;;		Unchanged: 0/0
  5191 ;; Data sizes:     COMMON   BANK0   BANK1
  5192 ;;      Params:         0       0       0
  5193 ;;      Locals:         0       0       0
  5194 ;;      Temps:          0       0       0
  5195 ;;      Totals:         0       0       0
  5196 ;;Total ram usage:        0 bytes
  5197 ;; Hardware stack levels used: 1
  5198 ;; Hardware stack levels required when called: 7
  5199 ;; This function calls:
  5200 ;;		Nothing
  5201 ;; This function is called by:
  5202 ;;		_close
  5203 ;;		_open
  5204 ;;		_switch_wm
  5205 ;; This function uses a non-reentrant model
  5206 ;;
  5207                           
  5208  05D5                     _rele_off:	
  5209                           ;psect for function _rele_off
  5210                           
  5211                           
  5212                           ;incstack = 0
  5213                           ; Regs used in _rele_off: []
  5214  05D5                     l2079:
  5215                           
  5216                           ;main.c: 238:     ff.bits.RELE_CONTROL_ON = 0;
  5217  05D5  137A               	bcf	_ff+1,6
  5218                           
  5219                           ;main.c: 239:     ff.bits.RELE_POWER_ON = 0;
  5220  05D6  12FA               	bcf	_ff+1,5
  5221                           
  5222                           ;main.c: 240:     ff.bits.CLOSING = 0;
  5223  05D7  11FA               	bcf	_ff+1,3
  5224                           
  5225                           ;main.c: 241:     ff.bits.OPENING = 0;
  5226  05D8  10FA               	bcf	_ff+1,1
  5227                           
  5228                           ;main.c: 242:     ff.bits.CLOSED = 0;
  5229  05D9  127A               	bcf	_ff+1,4
  5230                           
  5231                           ;main.c: 243:     if (ff.bits.UNIVERSAL_VORK_MODE_ON) {
  5232  05DA  1EFB               	btfss	_ff+2,5
  5233  05DB  2DDD               	goto	u1661
  5234  05DC  2DDE               	goto	u1660
  5235  05DD                     u1661:
  5236  05DD  2DE2               	goto	l344
  5237  05DE                     __ccov143_end_blk0:
  5238  05DE                     u1660:
  5239  05DE                     __ccov144_start_blk1:
  5240  05DE                     l2081:
  5241  05DE  0020               	movlb	0	; select bank0
  5242  05DF  1530               	bsf	__ccovbit1_55/(0+8),__ccovbit1_55& (0+7)	;volatile
  5243                           
  5244                           ;main.c: 244:         ff.bits.OPENED = 1;
  5245  05E0  157A               	bsf	_ff+1,2
  5246                           
  5247                           ;main.c: 245:     } else {
  5248  05E1  2DE5               	goto	l345
  5249  05E2                     __ccov144_end_blk1:
  5250  05E2                     __ccov145_start_blk2:
  5251  05E2                     l344:
  5252  05E2  0020               	movlb	0	; select bank0
  5253  05E3  14B0               	bsf	__ccovbit2_56/(0+8),__ccovbit2_56& (0+7)	;volatile
  5254                           
  5255                           ;main.c: 246:         ff.bits.OPENED = 0;
  5256  05E4  117A               	bcf	_ff+1,2
  5257  05E5                     __ccov145_end_blk2:
  5258  05E5                     __ccov146_start_blk3:
  5259  05E5                     l345:	
  5260                           ;main.c: 247:     }
  5261                           
  5262                           
  5263                           ;main.c: 248:     ff.bits.MOVING_ALLOWED = 0;
  5264  05E5  11FB               	bcf	_ff+2,3
  5265                           
  5266                           ;main.c: 249:     time_moving_wait = MOVING_WAIT_DELAY;
  5267  05E6  01D1               	clrf	_time_moving_wait
  5268  05E7  0AD1               	incf	_time_moving_wait,f
  5269  05E8                     __ccov146_end_blk3:
  5270  05E8                     __ccov147_start_blk4:
  5271  05E8                     l346:
  5272  05E8  1430               	bsf	__ccovbit4_57/(0+8),__ccovbit4_57& (0+7)	;volatile
  5273  05E9  0008               	return
  5274  05EA                     __end_of_rele_off:
  5275  05EA                     
  5276                           	psect	text28
  5277  05A8                     __ptext28:	
  5278 ;; *************** function _go_close_alt *****************
  5279 ;; Defined at:
  5280 ;;		line 216 in file "main.c"
  5281 ;; Parameters:    Size  Location     Type
  5282 ;;		None
  5283 ;; Auto vars:     Size  Location     Type
  5284 ;;		None
  5285 ;; Return value:  Size  Location     Type
  5286 ;;                  1    wreg      void 
  5287 ;; Registers used:
  5288 ;;		None
  5289 ;; Tracked objects:
  5290 ;;		On entry : 0/0
  5291 ;;		On exit  : 0/0
  5292 ;;		Unchanged: 0/0
  5293 ;; Data sizes:     COMMON   BANK0   BANK1
  5294 ;;      Params:         0       0       0
  5295 ;;      Locals:         0       0       0
  5296 ;;      Temps:          0       0       0
  5297 ;;      Totals:         0       0       0
  5298 ;;Total ram usage:        0 bytes
  5299 ;; Hardware stack levels used: 1
  5300 ;; Hardware stack levels required when called: 7
  5301 ;; This function calls:
  5302 ;;		Nothing
  5303 ;; This function is called by:
  5304 ;;		_close
  5305 ;; This function uses a non-reentrant model
  5306 ;;
  5307                           
  5308  05A8                     _go_close_alt:	
  5309                           ;psect for function _go_close_alt
  5310                           
  5311                           
  5312                           ;incstack = 0
  5313                           ; Regs used in _go_close_alt: []
  5314  05A8                     l1381:
  5315                           
  5316                           ;main.c: 218:     if ((!ff.bits.CLOSED && ff.bits.MOVING_ALLOWED) || ff.bits.ALARM_ON) {
  5317  05A8  1A7A               	btfsc	_ff+1,4
  5318  05A9  2DAB               	goto	u251
  5319  05AA  2DAC               	goto	u250
  5320  05AB                     u251:
  5321  05AB  2DB2               	goto	l336
  5322  05AC                     __ccov134_end_blk0:
  5323  05AC                     u250:
  5324  05AC                     __ccov135_start_blk1:
  5325  05AC                     l1383:
  5326  05AC  0020               	movlb	0	; select bank0
  5327  05AD  14B1               	bsf	__ccovbit1_48/(0+8),__ccovbit1_48& (0+7)	;volatile
  5328  05AE  19FB               	btfsc	_ff+2,3
  5329  05AF  2DB1               	goto	u261
  5330  05B0  2DB2               	goto	u260
  5331  05B1                     u261:
  5332  05B1  2DB8               	goto	l334
  5333  05B2                     __ccov135_end_blk1:
  5334  05B2                     u260:
  5335  05B2                     __ccov136_start_blk2:
  5336  05B2                     l336:
  5337  05B2  0020               	movlb	0	; select bank0
  5338  05B3  1431               	bsf	__ccovbit2_49/(0+8),__ccovbit2_49& (0+7)	;volatile
  5339  05B4  1C79               	btfss	_ff,0
  5340  05B5  2DB7               	goto	u271
  5341  05B6  2DB8               	goto	u270
  5342  05B7                     u271:
  5343  05B7  2DBD               	goto	l337
  5344  05B8                     __ccov136_end_blk2:
  5345  05B8                     u270:
  5346  05B8                     __ccov137_start_blk3:
  5347  05B8                     l334:
  5348  05B8  17B0               	bsf	__ccovbit3_50/(0+8),__ccovbit3_50& (0+7)	;volatile
  5349                           
  5350                           ;main.c: 219:         ff.bits.OPENED = 0;
  5351  05B9  117A               	bcf	_ff+1,2
  5352                           
  5353                           ;main.c: 220:         ff.bits.CLOSED = 1;
  5354  05BA  167A               	bsf	_ff+1,4
  5355                           
  5356                           ;main.c: 222:         ff.bits.RELE_CONTROL_ON = 0;
  5357  05BB  137A               	bcf	_ff+1,6
  5358                           
  5359                           ;main.c: 223:         ff.bits.RELE_POWER_ON = 1;
  5360  05BC  16FA               	bsf	_ff+1,5
  5361  05BD                     __ccov137_end_blk3:
  5362  05BD                     __ccov138_start_blk5:
  5363  05BD                     l337:
  5364  05BD  1730               	bsf	__ccovbit5_51/(0+8),__ccovbit5_51& (0+7)	;volatile
  5365  05BE  0008               	return
  5366  05BF                     __end_of_go_close_alt:
  5367  05BF                     
  5368                           	psect	text29
  5369  03FD                     __ptext29:	
  5370 ;; *************** function _go_close *****************
  5371 ;; Defined at:
  5372 ;;		line 159 in file "main.c"
  5373 ;; Parameters:    Size  Location     Type
  5374 ;;		None
  5375 ;; Auto vars:     Size  Location     Type
  5376 ;;		None
  5377 ;; Return value:  Size  Location     Type
  5378 ;;                  1    wreg      void 
  5379 ;; Registers used:
  5380 ;;		wreg
  5381 ;; Tracked objects:
  5382 ;;		On entry : 0/0
  5383 ;;		On exit  : 0/0
  5384 ;;		Unchanged: 0/0
  5385 ;; Data sizes:     COMMON   BANK0   BANK1
  5386 ;;      Params:         0       0       0
  5387 ;;      Locals:         0       0       0
  5388 ;;      Temps:          0       0       0
  5389 ;;      Totals:         0       0       0
  5390 ;;Total ram usage:        0 bytes
  5391 ;; Hardware stack levels used: 1
  5392 ;; Hardware stack levels required when called: 7
  5393 ;; This function calls:
  5394 ;;		Nothing
  5395 ;; This function is called by:
  5396 ;;		_close
  5397 ;; This function uses a non-reentrant model
  5398 ;;
  5399                           
  5400  03FD                     _go_close:	
  5401                           ;psect for function _go_close
  5402                           
  5403                           
  5404                           ;incstack = 0
  5405                           ; Regs used in _go_close: [wreg]
  5406  03FD                     l2055:
  5407                           
  5408                           ;main.c: 161:     if (!ff.bits.CLOSING && !ff.bits.CLOSED && ff.bits.MOVING_ALLOWED) {
  5409  03FD  19FA               	btfsc	_ff+1,3
  5410  03FE  2C00               	goto	u1601
  5411  03FF  2C01               	goto	u1600
  5412  0400                     u1601:
  5413  0400  2C24               	goto	l321
  5414  0401                     __ccov115_end_blk0:
  5415  0401                     u1600:
  5416  0401                     __ccov116_start_blk1:
  5417  0401                     l2057:
  5418  0401  0020               	movlb	0	; select bank0
  5419  0402  16B2               	bsf	__ccovbit1_36/(0+8),__ccovbit1_36& (0+7)	;volatile
  5420  0403  1A7A               	btfsc	_ff+1,4
  5421  0404  2C06               	goto	u1611
  5422  0405  2C07               	goto	u1610
  5423  0406                     u1611:
  5424  0406  2C24               	goto	l321
  5425  0407                     __ccov116_end_blk1:
  5426  0407                     u1610:
  5427  0407                     __ccov117_start_blk2:
  5428  0407                     l2059:
  5429  0407  1632               	bsf	__ccovbit2_37/(0+8),__ccovbit2_37& (0+7)	;volatile
  5430  0408  1DFB               	btfss	_ff+2,3
  5431  0409  2C0B               	goto	u1621
  5432  040A  2C0C               	goto	u1620
  5433  040B                     u1621:
  5434  040B  2C24               	goto	l321
  5435  040C                     __ccov117_end_blk2:
  5436  040C                     u1620:
  5437  040C                     __ccov118_start_blk3:
  5438  040C                     l2061:
  5439                           
  5440                           ;main.c: 162:         ff.bits.CLOSING = 1;
  5441  040C  15FA               	bsf	_ff+1,3
  5442                           
  5443                           ;main.c: 163:         ff.bits.OPENED = 0;
  5444  040D  117A               	bcf	_ff+1,2
  5445                           
  5446                           ;main.c: 164:         ff.bits.OPENING = 0;
  5447  040E  10FA               	bcf	_ff+1,1
  5448                           
  5449                           ;main.c: 166:         ff.bits.RELE_POWER_ON = 0;
  5450  040F  12FA               	bcf	_ff+1,5
  5451                           
  5452                           ;main.c: 167:         ff.bits.RELE_CONTROL_ON = 1;
  5453  0410  177A               	bsf	_ff+1,6
  5454  0411                     __ccov118_end_blk3:
  5455  0411                     __ccov119_start_blk4:
  5456  0411                     l2063:
  5457  0411  15B2               	bsf	__ccovbit4_38/(0+8),__ccovbit4_38& (0+7)	;volatile
  5458                           
  5459                           ;main.c: 169:         time_rele_control = RELE_GAP + RELE_POWER_WORK_DELAY + RELE_GAP;
  5460  0412  301B               	movlw	27
  5461  0413  00C4               	movwf	_time_rele_control
  5462  0414  3000               	movlw	0
  5463  0415  00C5               	movwf	_time_rele_control+1
  5464                           
  5465                           ;main.c: 170:         time_rele_power = RELE_POWER_WORK_DELAY;
  5466  0416  3019               	movlw	25
  5467  0417  00C6               	movwf	_time_rele_power
  5468  0418  3000               	movlw	0
  5469  0419  00C7               	movwf	_time_rele_power+1
  5470                           
  5471                           ;main.c: 171:         time_rele_gap = RELE_GAP;
  5472  041A  3001               	movlw	1
  5473  041B  00C2               	movwf	_time_rele_gap
  5474  041C  3000               	movlw	0
  5475  041D  00C3               	movwf	_time_rele_gap+1
  5476                           
  5477                           ;main.c: 173:         time_rotation = 0;
  5478  041E  3000               	movlw	0
  5479  041F  00B5               	movwf	_time_rotation
  5480  0420  3000               	movlw	0
  5481  0421  00B6               	movwf	_time_rotation+1
  5482  0422  3000               	movlw	0
  5483  0423  00B7               	movwf	_time_rotation+2
  5484  0424                     __ccov119_end_blk4:
  5485  0424                     __ccov120_start_blk6:
  5486  0424                     l321:
  5487  0424  0020               	movlb	0	; select bank0
  5488  0425  1532               	bsf	__ccovbit6_39/(0+8),__ccovbit6_39& (0+7)	;volatile
  5489  0426  0008               	return
  5490  0427                     __end_of_go_close:
  5491  0427                     
  5492                           	psect	text30
  5493  00CA                     __ptext30:	
  5494 ;; *************** function _autorotation_work *****************
  5495 ;; Defined at:
  5496 ;;		line 379 in file "main.c"
  5497 ;; Parameters:    Size  Location     Type
  5498 ;;		None
  5499 ;; Auto vars:     Size  Location     Type
  5500 ;;		None
  5501 ;; Return value:  Size  Location     Type
  5502 ;;                  1    wreg      void 
  5503 ;; Registers used:
  5504 ;;		wreg, status,2, status,0, pclath, cstack
  5505 ;; Tracked objects:
  5506 ;;		On entry : 0/0
  5507 ;;		On exit  : 0/0
  5508 ;;		Unchanged: 0/0
  5509 ;; Data sizes:     COMMON   BANK0   BANK1
  5510 ;;      Params:         0       0       0
  5511 ;;      Locals:         0       0       0
  5512 ;;      Temps:          1       0       0
  5513 ;;      Totals:         1       0       0
  5514 ;;Total ram usage:        1 bytes
  5515 ;; Hardware stack levels used: 1
  5516 ;; Hardware stack levels required when called: 8
  5517 ;; This function calls:
  5518 ;;		_go_close_short
  5519 ;;		_go_open
  5520 ;; This function is called by:
  5521 ;;		_main
  5522 ;; This function uses a non-reentrant model
  5523 ;;
  5524                           
  5525  00CA                     _autorotation_work:	
  5526                           ;psect for function _autorotation_work
  5527                           
  5528                           
  5529                           ;incstack = 0
  5530                           ; Regs used in _autorotation_work: [wreg+status,2+status,0+pclath+cstack]
  5531  00CA                     l2323:
  5532                           
  5533                           ;main.c: 381:    if ((time_rotation > (AUTOROTATION_DELAY + RELE_POWER_AUTOROTATION_DELA
      +                          Y + RELE_GAP * 2)) &&
  5534  00CA  3000               	movlw	0
  5535  00CB  0020               	movlb	0	; select bank0
  5536  00CC  0237               	subwf	_time_rotation+2,w
  5537  00CD  1D03               	skipz
  5538  00CE  28D5               	goto	u2295
  5539  00CF  3000               	movlw	0
  5540  00D0  0236               	subwf	_time_rotation+1,w
  5541  00D1  1D03               	skipz
  5542  00D2  28D5               	goto	u2295
  5543  00D3  3035               	movlw	53
  5544  00D4  0235               	subwf	_time_rotation,w
  5545  00D5                     u2295:
  5546  00D5  1C03               	skipc
  5547  00D6  28D8               	goto	u2291
  5548  00D7  28D9               	goto	u2290
  5549  00D8                     u2291:
  5550  00D8  2902               	goto	l2343
  5551  00D9                     __ccov215_end_blk0:
  5552  00D9                     u2290:
  5553  00D9                     __ccov216_start_blk1:
  5554  00D9                     l2325:
  5555  00D9  15AA               	bsf	__ccovbit1_102/(0+8),__ccovbit1_102& (0+7)	;volatile
  5556  00DA  1E7A               	btfss	_ff+1,4
  5557  00DB  28DD               	goto	u2301
  5558  00DC  28DE               	goto	u2300
  5559  00DD                     u2301:
  5560  00DD  2902               	goto	l2343
  5561  00DE                     __ccov216_end_blk1:
  5562  00DE                     u2300:
  5563  00DE                     __ccov217_start_blk2:
  5564  00DE                     l2327:
  5565  00DE  152A               	bsf	__ccovbit2_103/(0+8),__ccovbit2_103& (0+7)	;volatile
  5566  00DF  1DFA               	btfss	_ff+1,3
  5567  00E0  28E2               	goto	u2311
  5568  00E1  28E3               	goto	u2310
  5569  00E2                     u2311:
  5570  00E2  2902               	goto	l2343
  5571  00E3                     __ccov217_end_blk2:
  5572  00E3                     u2310:
  5573  00E3                     __ccov218_start_blk3:
  5574  00E3                     l2329:
  5575  00E3  14AA               	bsf	__ccovbit3_104/(0+8),__ccovbit3_104& (0+7)	;volatile
  5576  00E4  1CF9               	btfss	_ff,1
  5577  00E5  28E7               	goto	u2321
  5578  00E6  28E8               	goto	u2320
  5579  00E7                     u2321:
  5580  00E7  2902               	goto	l2343
  5581  00E8                     __ccov218_end_blk3:
  5582  00E8                     u2320:
  5583  00E8                     __ccov219_start_blk4:
  5584  00E8                     l2331:
  5585  00E8  142A               	bsf	__ccovbit4_105/(0+8),__ccovbit4_105& (0+7)	;volatile
  5586  00E9  1DFB               	btfss	_ff+2,3
  5587  00EA  28EC               	goto	u2331
  5588  00EB  28ED               	goto	u2330
  5589  00EC                     u2331:
  5590  00EC  2902               	goto	l2343
  5591  00ED                     __ccov219_end_blk4:
  5592  00ED                     u2330:
  5593  00ED                     __ccov220_start_blk5:
  5594  00ED                     l2333:
  5595  00ED  17A9               	bsf	__ccovbit5_106/(0+8),__ccovbit5_106& (0+7)	;volatile
  5596  00EE  1E7B               	btfss	_ff+2,4
  5597  00EF  28F1               	goto	u2341
  5598  00F0  28F2               	goto	u2340
  5599  00F1                     u2341:
  5600  00F1  2902               	goto	l2343
  5601  00F2                     __ccov220_end_blk5:
  5602  00F2                     u2340:
  5603  00F2                     __ccov221_start_blk6:
  5604  00F2                     l2335:
  5605                           
  5606                           ;main.c: 387:             ) {;main.c: 388:         go_open();
  5607  00F2  3184  24E0  3180   	fcall	_go_open
  5608  00F5                     __ccov221_end_blk6:
  5609  00F5                     __ccov222_start_blk7:
  5610  00F5                     l2337:
  5611                           
  5612                           ;main.c: 389:         beep_short_count=1;
  5613  00F5  01FD               	clrf	_beep_short_count
  5614  00F6  0AFD               	incf	_beep_short_count,f
  5615  00F7                     __ccov222_end_blk7:
  5616  00F7                     __ccov223_start_blk8:
  5617  00F7                     l2339:
  5618                           
  5619                           ;main.c: 390:               beep_long_count=1;
  5620  00F7  0020               	movlb	0	; select bank0
  5621  00F8  01CF               	clrf	_beep_long_count
  5622  00F9  0ACF               	incf	_beep_long_count,f
  5623  00FA                     __ccov223_end_blk8:
  5624  00FA                     __ccov224_start_blk9:
  5625  00FA                     l2341:
  5626  00FA  1729               	bsf	__ccovbit9_107/(0+8),__ccovbit9_107& (0+7)	;volatile
  5627                           
  5628                           ;main.c: 391:         time_rotation = 0;
  5629  00FB  3000               	movlw	0
  5630  00FC  00B5               	movwf	_time_rotation
  5631  00FD  3000               	movlw	0
  5632  00FE  00B6               	movwf	_time_rotation+1
  5633  00FF  3000               	movlw	0
  5634  0100  00B7               	movwf	_time_rotation+2
  5635                           
  5636                           ;main.c: 392:     }else
  5637  0101  2938               	goto	l401
  5638  0102                     __ccov224_end_blk9:
  5639  0102                     __ccov225_start_blk11:
  5640  0102                     l2343:
  5641  0102  16A9               	bsf	__ccovbit11_108/(0+8),__ccovbit11_108& (0+7)	;volatile
  5642                           
  5643                           ;main.c: 394:    if ((time_rotation > AUTOROTATION_DELAY) &&
  5644  0103  3000               	movlw	0
  5645  0104  0237               	subwf	_time_rotation+2,w
  5646  0105  1D03               	skipz
  5647  0106  290D               	goto	u2355
  5648  0107  3000               	movlw	0
  5649  0108  0236               	subwf	_time_rotation+1,w
  5650  0109  1D03               	skipz
  5651  010A  290D               	goto	u2355
  5652  010B  3029               	movlw	41
  5653  010C  0235               	subwf	_time_rotation,w
  5654  010D                     u2355:
  5655  010D  1C03               	skipc
  5656  010E  2910               	goto	u2351
  5657  010F  2911               	goto	u2350
  5658  0110                     u2351:
  5659  0110  2938               	goto	l401
  5660  0111                     __ccov225_end_blk11:
  5661  0111                     u2350:
  5662  0111                     __ccov226_start_blk12:
  5663  0111                     l2345:
  5664  0111  1629               	bsf	__ccovbit12_109/(0+8),__ccovbit12_109& (0+7)	;volatile
  5665  0112  1A7A               	btfsc	_ff+1,4
  5666  0113  2915               	goto	u2361
  5667  0114  2916               	goto	u2360
  5668  0115                     u2361:
  5669  0115  2938               	goto	l401
  5670  0116                     __ccov226_end_blk12:
  5671  0116                     u2360:
  5672  0116                     __ccov227_start_blk13:
  5673  0116                     l2347:
  5674  0116  15A9               	bsf	__ccovbit13_110/(0+8),__ccovbit13_110& (0+7)	;volatile
  5675  0117  19FA               	btfsc	_ff+1,3
  5676  0118  291A               	goto	u2371
  5677  0119  291B               	goto	u2370
  5678  011A                     u2371:
  5679  011A  2938               	goto	l401
  5680  011B                     __ccov227_end_blk13:
  5681  011B                     u2370:
  5682  011B                     __ccov228_start_blk14:
  5683  011B                     l2349:
  5684  011B  1529               	bsf	__ccovbit14_111/(0+8),__ccovbit14_111& (0+7)	;volatile
  5685  011C  1CF9               	btfss	_ff,1
  5686  011D  291F               	goto	u2381
  5687  011E  2920               	goto	u2380
  5688  011F                     u2381:
  5689  011F  2938               	goto	l401
  5690  0120                     __ccov228_end_blk14:
  5691  0120                     u2380:
  5692  0120                     __ccov229_start_blk15:
  5693  0120                     l2351:
  5694  0120  14A9               	bsf	__ccovbit15_112/(0+8),__ccovbit15_112& (0+7)	;volatile
  5695  0121  1DFB               	btfss	_ff+2,3
  5696  0122  2924               	goto	u2391
  5697  0123  2925               	goto	u2390
  5698  0124                     u2391:
  5699  0124  2938               	goto	l401
  5700  0125                     __ccov229_end_blk15:
  5701  0125                     u2390:
  5702  0125                     __ccov230_start_blk16:
  5703  0125                     l2353:
  5704  0125  1429               	bsf	__ccovbit16_113/(0+8),__ccovbit16_113& (0+7)	;volatile
  5705  0126  1E7B               	btfss	_ff+2,4
  5706  0127  2929               	goto	u2401
  5707  0128  292A               	goto	u2400
  5708  0129                     u2401:
  5709  0129  2938               	goto	l401
  5710  012A                     __ccov230_end_blk16:
  5711  012A                     u2400:
  5712  012A                     __ccov231_start_blk17:
  5713  012A                     l2355:
  5714                           
  5715                           ;main.c: 400:             ) {;main.c: 401:        ff.bits.AUTOROTATION_WORK = 1;
  5716  012A  147C               	bsf	_ff+3,0
  5717  012B                     __ccov231_end_blk17:
  5718  012B                     __ccov232_start_blk18:
  5719  012B                     l2357:
  5720                           
  5721                           ;main.c: 402:               go_close_short();
  5722  012B  3184  2427  3180   	fcall	_go_close_short
  5723  012E                     __ccov232_end_blk18:
  5724  012E                     __ccov233_start_blk19:
  5725  012E                     l2359:
  5726                           
  5727                           ;main.c: 403:               beep_short_count=3;
  5728  012E  3003               	movlw	3
  5729  012F  00F5               	movwf	??_autorotation_work
  5730  0130  0875               	movf	??_autorotation_work,w
  5731  0131  00FD               	movwf	_beep_short_count
  5732  0132                     __ccov233_end_blk19:
  5733  0132                     __ccov234_start_blk20:
  5734  0132                     l2361:
  5735  0132  0020               	movlb	0	; select bank0
  5736  0133  17A8               	bsf	__ccovbit20_114/(0+8),__ccovbit20_114& (0+7)	;volatile
  5737                           
  5738                           ;main.c: 404:               beep_long_count=3;
  5739  0134  3003               	movlw	3
  5740  0135  00F5               	movwf	??_autorotation_work
  5741  0136  0875               	movf	??_autorotation_work,w
  5742  0137  00CF               	movwf	_beep_long_count
  5743  0138                     __ccov234_end_blk20:
  5744  0138                     __ccov235_start_blk23:
  5745  0138                     l401:
  5746  0138  1728               	bsf	__ccovbit23_115/(0+8),__ccovbit23_115& (0+7)	;volatile
  5747  0139  0008               	return
  5748  013A                     __end_of_autorotation_work:
  5749  013A                     
  5750                           	psect	text31
  5751  04E0                     __ptext31:	
  5752 ;; *************** function _go_open *****************
  5753 ;; Defined at:
  5754 ;;		line 198 in file "main.c"
  5755 ;; Parameters:    Size  Location     Type
  5756 ;;		None
  5757 ;; Auto vars:     Size  Location     Type
  5758 ;;		None
  5759 ;; Return value:  Size  Location     Type
  5760 ;;                  1    wreg      void 
  5761 ;; Registers used:
  5762 ;;		wreg
  5763 ;; Tracked objects:
  5764 ;;		On entry : 0/0
  5765 ;;		On exit  : 0/0
  5766 ;;		Unchanged: 0/0
  5767 ;; Data sizes:     COMMON   BANK0   BANK1
  5768 ;;      Params:         0       0       0
  5769 ;;      Locals:         0       0       0
  5770 ;;      Temps:          0       0       0
  5771 ;;      Totals:         0       0       0
  5772 ;;Total ram usage:        0 bytes
  5773 ;; Hardware stack levels used: 1
  5774 ;; Hardware stack levels required when called: 7
  5775 ;; This function calls:
  5776 ;;		Nothing
  5777 ;; This function is called by:
  5778 ;;		_open
  5779 ;;		_autorotation_work
  5780 ;; This function uses a non-reentrant model
  5781 ;;
  5782                           
  5783  04E0                     _go_open:	
  5784                           ;psect for function _go_open
  5785                           
  5786                           
  5787                           ;incstack = 0
  5788                           ; Regs used in _go_open: [wreg]
  5789  04E0                     l2065:
  5790                           
  5791                           ;main.c: 200:     if (!ff.bits.OPENED && !ff.bits.OPENING && ff.bits.MOVING_ALLOWED) {
  5792  04E0  197A               	btfsc	_ff+1,2
  5793  04E1  2CE3               	goto	u1631
  5794  04E2  2CE4               	goto	u1630
  5795  04E3                     u1631:
  5796  04E3  2CFA               	goto	l329
  5797  04E4                     __ccov127_end_blk0:
  5798  04E4                     u1630:
  5799  04E4                     __ccov128_start_blk1:
  5800  04E4                     l2067:
  5801  04E4  0020               	movlb	0	; select bank0
  5802  04E5  16B1               	bsf	__ccovbit1_44/(0+8),__ccovbit1_44& (0+7)	;volatile
  5803  04E6  18FA               	btfsc	_ff+1,1
  5804  04E7  2CE9               	goto	u1641
  5805  04E8  2CEA               	goto	u1640
  5806  04E9                     u1641:
  5807  04E9  2CFA               	goto	l329
  5808  04EA                     __ccov128_end_blk1:
  5809  04EA                     u1640:
  5810  04EA                     __ccov129_start_blk2:
  5811  04EA                     l2069:
  5812  04EA  1631               	bsf	__ccovbit2_45/(0+8),__ccovbit2_45& (0+7)	;volatile
  5813  04EB  1DFB               	btfss	_ff+2,3
  5814  04EC  2CEE               	goto	u1651
  5815  04ED  2CEF               	goto	u1650
  5816  04EE                     u1651:
  5817  04EE  2CFA               	goto	l329
  5818  04EF                     __ccov129_end_blk2:
  5819  04EF                     u1650:
  5820  04EF                     __ccov130_start_blk3:
  5821  04EF                     l2071:
  5822                           
  5823                           ;main.c: 201:         ff.bits.OPENING = 1;
  5824  04EF  14FA               	bsf	_ff+1,1
  5825                           
  5826                           ;main.c: 202:         ff.bits.CLOSED = 0;
  5827  04F0  127A               	bcf	_ff+1,4
  5828                           
  5829                           ;main.c: 203:         ff.bits.CLOSING = 0;
  5830  04F1  11FA               	bcf	_ff+1,3
  5831                           
  5832                           ;main.c: 206:         ff.bits.RELE_CONTROL_ON = 0;
  5833  04F2  137A               	bcf	_ff+1,6
  5834                           
  5835                           ;main.c: 207:         ff.bits.RELE_POWER_ON = 1;
  5836  04F3  16FA               	bsf	_ff+1,5
  5837  04F4                     __ccov130_end_blk3:
  5838  04F4                     __ccov131_start_blk4:
  5839  04F4                     l2073:
  5840                           
  5841                           ;main.c: 209:         time_rele_power = RELE_POWER_WORK_DELAY;
  5842  04F4  3019               	movlw	25
  5843  04F5  00C6               	movwf	_time_rele_power
  5844  04F6  3000               	movlw	0
  5845  04F7  00C7               	movwf	_time_rele_power+1
  5846  04F8                     __ccov131_end_blk4:
  5847  04F8                     __ccov132_start_blk5:
  5848  04F8                     l2075:
  5849  04F8  15B1               	bsf	__ccovbit5_46/(0+8),__ccovbit5_46& (0+7)	;volatile
  5850                           
  5851                           ;main.c: 211:         ff.bits.AUTOROTATION_WORK = 0;
  5852  04F9  107C               	bcf	_ff+3,0
  5853  04FA                     __ccov132_end_blk5:
  5854  04FA                     __ccov133_start_blk8:
  5855  04FA                     l329:
  5856  04FA  0020               	movlb	0	; select bank0
  5857  04FB  1531               	bsf	__ccovbit8_47/(0+8),__ccovbit8_47& (0+7)	;volatile
  5858  04FC  0008               	return
  5859  04FD                     __end_of_go_open:
  5860  04FD                     
  5861                           	psect	text32
  5862  0427                     __ptext32:	
  5863 ;; *************** function _go_close_short *****************
  5864 ;; Defined at:
  5865 ;;		line 178 in file "main.c"
  5866 ;; Parameters:    Size  Location     Type
  5867 ;;		None
  5868 ;; Auto vars:     Size  Location     Type
  5869 ;;		None
  5870 ;; Return value:  Size  Location     Type
  5871 ;;                  1    wreg      void 
  5872 ;; Registers used:
  5873 ;;		wreg
  5874 ;; Tracked objects:
  5875 ;;		On entry : 0/0
  5876 ;;		On exit  : 0/0
  5877 ;;		Unchanged: 0/0
  5878 ;; Data sizes:     COMMON   BANK0   BANK1
  5879 ;;      Params:         0       0       0
  5880 ;;      Locals:         0       0       0
  5881 ;;      Temps:          0       0       0
  5882 ;;      Totals:         0       0       0
  5883 ;;Total ram usage:        0 bytes
  5884 ;; Hardware stack levels used: 1
  5885 ;; Hardware stack levels required when called: 7
  5886 ;; This function calls:
  5887 ;;		Nothing
  5888 ;; This function is called by:
  5889 ;;		_autorotation_work
  5890 ;; This function uses a non-reentrant model
  5891 ;;
  5892                           
  5893  0427                     _go_close_short:	
  5894                           ;psect for function _go_close_short
  5895                           
  5896                           
  5897                           ;incstack = 0
  5898                           ; Regs used in _go_close_short: [wreg]
  5899  0427                     l2187:
  5900                           
  5901                           ;main.c: 180:     if (!ff.bits.CLOSING && !ff.bits.CLOSED && ff.bits.MOVING_ALLOWED) {
  5902  0427  19FA               	btfsc	_ff+1,3
  5903  0428  2C2A               	goto	u1941
  5904  0429  2C2B               	goto	u1940
  5905  042A                     u1941:
  5906  042A  2C4E               	goto	l325
  5907  042B                     __ccov121_end_blk0:
  5908  042B                     u1940:
  5909  042B                     __ccov122_start_blk1:
  5910  042B                     l2189:
  5911  042B  0020               	movlb	0	; select bank0
  5912  042C  14B2               	bsf	__ccovbit1_40/(0+8),__ccovbit1_40& (0+7)	;volatile
  5913  042D  1A7A               	btfsc	_ff+1,4
  5914  042E  2C30               	goto	u1951
  5915  042F  2C31               	goto	u1950
  5916  0430                     u1951:
  5917  0430  2C4E               	goto	l325
  5918  0431                     __ccov122_end_blk1:
  5919  0431                     u1950:
  5920  0431                     __ccov123_start_blk2:
  5921  0431                     l2191:
  5922  0431  1432               	bsf	__ccovbit2_41/(0+8),__ccovbit2_41& (0+7)	;volatile
  5923  0432  1DFB               	btfss	_ff+2,3
  5924  0433  2C35               	goto	u1961
  5925  0434  2C36               	goto	u1960
  5926  0435                     u1961:
  5927  0435  2C4E               	goto	l325
  5928  0436                     __ccov123_end_blk2:
  5929  0436                     u1960:
  5930  0436                     __ccov124_start_blk3:
  5931  0436                     l2193:
  5932                           
  5933                           ;main.c: 181:         ff.bits.CLOSING = 1;
  5934  0436  15FA               	bsf	_ff+1,3
  5935                           
  5936                           ;main.c: 182:         ff.bits.OPENED = 0;
  5937  0437  117A               	bcf	_ff+1,2
  5938                           
  5939                           ;main.c: 183:         ff.bits.OPENING = 0;
  5940  0438  10FA               	bcf	_ff+1,1
  5941                           
  5942                           ;main.c: 185:         ff.bits.RELE_POWER_ON = 0;
  5943  0439  12FA               	bcf	_ff+1,5
  5944                           
  5945                           ;main.c: 186:         ff.bits.RELE_CONTROL_ON = 1;
  5946  043A  177A               	bsf	_ff+1,6
  5947  043B                     __ccov124_end_blk3:
  5948  043B                     __ccov125_start_blk4:
  5949  043B                     l2195:
  5950  043B  17B1               	bsf	__ccovbit4_42/(0+8),__ccovbit4_42& (0+7)	;volatile
  5951                           
  5952                           ;main.c: 188:         time_rele_control = RELE_GAP + RELE_POWER_AUTOROTATION_DELAY + REL
      +                          E_GAP;
  5953  043C  300C               	movlw	12
  5954  043D  00C4               	movwf	_time_rele_control
  5955  043E  3000               	movlw	0
  5956  043F  00C5               	movwf	_time_rele_control+1
  5957                           
  5958                           ;main.c: 189:         time_rele_power = RELE_POWER_AUTOROTATION_DELAY;
  5959  0440  300A               	movlw	10
  5960  0441  00C6               	movwf	_time_rele_power
  5961  0442  3000               	movlw	0
  5962  0443  00C7               	movwf	_time_rele_power+1
  5963                           
  5964                           ;main.c: 190:         time_rele_gap = RELE_GAP;
  5965  0444  3001               	movlw	1
  5966  0445  00C2               	movwf	_time_rele_gap
  5967  0446  3000               	movlw	0
  5968  0447  00C3               	movwf	_time_rele_gap+1
  5969                           
  5970                           ;main.c: 192:        time_rotation = 0;
  5971  0448  3000               	movlw	0
  5972  0449  00B5               	movwf	_time_rotation
  5973  044A  3000               	movlw	0
  5974  044B  00B6               	movwf	_time_rotation+1
  5975  044C  3000               	movlw	0
  5976  044D  00B7               	movwf	_time_rotation+2
  5977  044E                     __ccov125_end_blk4:
  5978  044E                     __ccov126_start_blk6:
  5979  044E                     l325:
  5980  044E  0020               	movlb	0	; select bank0
  5981  044F  1731               	bsf	__ccovbit6_43/(0+8),__ccovbit6_43& (0+7)	;volatile
  5982  0450  0008               	return
  5983  0451                     __end_of_go_close_short:
  5984  0451                     
  5985                           	psect	intentry
  5986  0004                     __pintentry:	
  5987 ;; *************** function _INTERRUPT_InterruptManager *****************
  5988 ;; Defined at:
  5989 ;;		line 52 in file "mcc_generated_files/interrupt_manager.c"
  5990 ;; Parameters:    Size  Location     Type
  5991 ;;		None
  5992 ;; Auto vars:     Size  Location     Type
  5993 ;;		None
  5994 ;; Return value:  Size  Location     Type
  5995 ;;                  1    wreg      void 
  5996 ;; Registers used:
  5997 ;;		wreg, status,2, status,0, pclath, cstack
  5998 ;; Tracked objects:
  5999 ;;		On entry : 0/0
  6000 ;;		On exit  : 0/0
  6001 ;;		Unchanged: 0/0
  6002 ;; Data sizes:     COMMON   BANK0   BANK1
  6003 ;;      Params:         0       0       0
  6004 ;;      Locals:         0       0       0
  6005 ;;      Temps:          0       0       0
  6006 ;;      Totals:         0       0       0
  6007 ;;Total ram usage:        0 bytes
  6008 ;; Hardware stack levels used: 1
  6009 ;; Hardware stack levels required when called: 6
  6010 ;; This function calls:
  6011 ;;		_TMR0_ISR
  6012 ;;		_TMR2_ISR
  6013 ;; This function is called by:
  6014 ;;		Interrupt level 1
  6015 ;; This function uses a non-reentrant model
  6016 ;;
  6017                           
  6018  0004                     _INTERRUPT_InterruptManager:
  6019                           
  6020                           ;incstack = 0
  6021  0004  147E               	bsf	int$flags,0	;set compiler interrupt flag (level 1)
  6022                           
  6023                           ; Regs used in _INTERRUPT_InterruptManager: [wreg+status,2+status,0+pclath+cstack]
  6024  0005  3180               	pagesel	$
  6025  0006                     i1l2505:
  6026                           
  6027                           ;mcc_generated_files/interrupt_manager.c: 55:     if(INTCONbits.TMR0IE == 1 && INTCONbit
      +                          s.TMR0IF == 1)
  6028  0006  1E8B               	btfss	11,5	;volatile
  6029  0007  2809               	goto	u254_21
  6030  0008  280A               	goto	u254_20
  6031  0009                     u254_21:
  6032  0009  2814               	goto	i1l108
  6033  000A                     u254_20:
  6034  000A                     __ccov39_end_blk0:
  6035  000A                     __ccov40_start_blk1:
  6036  000A                     i1l2507:
  6037  000A  1472               	bsf	__ccovbit1_7/(0+8),__ccovbit1_7& (0+7)	;volatile
  6038  000B  1D0B               	btfss	11,2	;volatile
  6039  000C  280E               	goto	u255_21
  6040  000D  280F               	goto	u255_20
  6041  000E                     u255_21:
  6042  000E  2814               	goto	i1l108
  6043  000F                     u255_20:
  6044  000F                     __ccov40_end_blk1:
  6045  000F                     __ccov41_start_blk2:
  6046  000F                     i1l2509:
  6047  000F  17F1               	bsf	__ccovbit2_8/(0+8),__ccovbit2_8& (0+7)	;volatile
  6048                           
  6049                           ;mcc_generated_files/interrupt_manager.c: 56:     {;mcc_generated_files/interrupt_manage
      +                          r.c: 57:         TMR0_ISR();
  6050  0010  3186  2635  3180   	fcall	_TMR0_ISR
  6051                           
  6052                           ;mcc_generated_files/interrupt_manager.c: 58:     }
  6053  0013  282A               	goto	i1l114
  6054  0014                     __ccov41_end_blk2:
  6055  0014                     __ccov42_start_blk3:
  6056  0014                     i1l108:	
  6057                           ;mcc_generated_files/interrupt_manager.c: 59:     else if(INTCONbits.PEIE == 1)
  6058                           
  6059  0014  1771               	bsf	__ccovbit3_9/(0+8),__ccovbit3_9& (0+7)	;volatile
  6060  0015  1F0B               	btfss	11,6	;volatile
  6061  0016  2818               	goto	u256_21
  6062  0017  2819               	goto	u256_20
  6063  0018                     u256_21:
  6064  0018  282A               	goto	i1l114
  6065  0019                     u256_20:
  6066  0019                     __ccov42_end_blk3:
  6067  0019                     __ccov43_start_blk4:
  6068  0019                     i1l2511:
  6069                           
  6070                           ;mcc_generated_files/interrupt_manager.c: 60:     {;mcc_generated_files/interrupt_manage
      +                          r.c: 61:         if(PIE1bits.TMR2IE == 1 && PIR1bits.TMR2IF == 1)
  6071  0019  0021               	movlb	1	; select bank1
  6072  001A  1C91               	btfss	17,1	;volatile
  6073  001B  281D               	goto	u257_21
  6074  001C  281E               	goto	u257_20
  6075  001D                     u257_21:
  6076  001D  2829               	goto	i1l113
  6077  001E                     u257_20:
  6078  001E                     __ccov43_end_blk4:
  6079  001E                     __ccov44_start_blk5:
  6080  001E                     i1l2513:
  6081  001E  16F1               	bsf	__ccovbit5_10/(0+8),__ccovbit5_10& (0+7)	;volatile
  6082  001F  0020               	movlb	0	; select bank0
  6083  0020  1C91               	btfss	17,1	;volatile
  6084  0021  2823               	goto	u258_21
  6085  0022  2824               	goto	u258_20
  6086  0023                     u258_21:
  6087  0023  2829               	goto	i1l113
  6088  0024                     u258_20:
  6089  0024                     __ccov44_end_blk5:
  6090  0024                     __ccov45_start_blk6:
  6091  0024                     i1l2515:
  6092  0024  1671               	bsf	__ccovbit6_11/(0+8),__ccovbit6_11& (0+7)	;volatile
  6093                           
  6094                           ;mcc_generated_files/interrupt_manager.c: 62:         {;mcc_generated_files/interrupt_ma
      +                          nager.c: 63:             TMR2_ISR();
  6095  0025  3186  2647  3180   	fcall	_TMR2_ISR
  6096                           
  6097                           ;mcc_generated_files/interrupt_manager.c: 64:         }
  6098  0028  282A               	goto	i1l114
  6099  0029                     __ccov45_end_blk6:
  6100  0029                     __ccov46_start_blk10:
  6101  0029                     i1l113:	
  6102                           ;mcc_generated_files/interrupt_manager.c: 71:     {;mcc_generated_files/interrupt_manage
      +                          r.c: 73:     }
  6103                           
  6104  0029  15F1               	bsf	__ccovbit10_12/(0+8),__ccovbit10_12& (0+7)	;volatile
  6105  002A                     __ccov46_end_blk10:
  6106  002A                     __ccov47_start_blk12:
  6107  002A                     i1l114:
  6108  002A  1571               	bsf	__ccovbit12_13/(0+8),__ccovbit12_13& (0+7)	;volatile
  6109  002B  107E               	bcf	int$flags,0	;clear compiler interrupt flag (level 1)
  6110  002C  0009               	retfie
  6111  002D                     __end_of_INTERRUPT_InterruptManager:
  6112  002D                     
  6113                           	psect	text34
  6114  0647                     __ptext34:	
  6115 ;; *************** function _TMR2_ISR *****************
  6116 ;; Defined at:
  6117 ;;		line 119 in file "mcc_generated_files/tmr2.c"
  6118 ;; Parameters:    Size  Location     Type
  6119 ;;		None
  6120 ;; Auto vars:     Size  Location     Type
  6121 ;;		None
  6122 ;; Return value:  Size  Location     Type
  6123 ;;                  1    wreg      void 
  6124 ;; Registers used:
  6125 ;;		wreg, status,2, status,0, pclath, cstack
  6126 ;; Tracked objects:
  6127 ;;		On entry : 0/0
  6128 ;;		On exit  : 0/0
  6129 ;;		Unchanged: 0/0
  6130 ;; Data sizes:     COMMON   BANK0   BANK1
  6131 ;;      Params:         0       0       0
  6132 ;;      Locals:         0       0       0
  6133 ;;      Temps:          0       0       0
  6134 ;;      Totals:         0       0       0
  6135 ;;Total ram usage:        0 bytes
  6136 ;; Hardware stack levels used: 1
  6137 ;; Hardware stack levels required when called: 5
  6138 ;; This function calls:
  6139 ;;		Absolute function
  6140 ;;		_TMR2_DefaultInterruptHandler
  6141 ;;		_ms_tick
  6142 ;; This function is called by:
  6143 ;;		_INTERRUPT_InterruptManager
  6144 ;; This function uses a non-reentrant model
  6145 ;;
  6146                           
  6147  0647                     _TMR2_ISR:	
  6148                           ;psect for function _TMR2_ISR
  6149                           
  6150                           
  6151                           ;incstack = 0
  6152                           ; Regs used in _TMR2_ISR: [wreg+status,2+status,0+pclath+cstack]
  6153  0647                     i1l2265:
  6154                           
  6155                           ;mcc_generated_files/tmr2.c: 123:     PIR1bits.TMR2IF = 0;
  6156  0647  0020               	movlb	0	; select bank0
  6157  0648  1091               	bcf	17,1	;volatile
  6158  0649                     __ccov65_end_blk0:
  6159  0649                     __ccov66_start_blk1:
  6160  0649                     i1l2267:
  6161                           
  6162                           ;mcc_generated_files/tmr2.c: 125:     if(TMR2_InterruptHandler)
  6163  0649  0856               	movf	_TMR2_InterruptHandler,w
  6164  064A  0457               	iorwf	_TMR2_InterruptHandler+1,w
  6165  064B  1903               	btfsc	3,2
  6166  064C  2E4E               	goto	u211_21
  6167  064D  2E4F               	goto	u211_20
  6168  064E                     u211_21:
  6169  064E  2E55               	goto	i1l154
  6170  064F                     __ccov66_end_blk1:
  6171  064F                     u211_20:
  6172  064F                     __ccov67_start_blk2:
  6173  064F                     i1l2269:
  6174  064F  17F0               	bsf	__ccovbit2_16/(0+8),__ccovbit2_16& (0+7)	;volatile
  6175                           
  6176                           ;mcc_generated_files/tmr2.c: 126:     {;mcc_generated_files/tmr2.c: 127:         TMR2_In
      +                          terruptHandler();
  6177  0650  0857               	movf	_TMR2_InterruptHandler+1,w
  6178  0651  008A               	movwf	10
  6179  0652  0856               	movf	_TMR2_InterruptHandler,w
  6180  0653  000A               	callw
  6181  0654  3186               	pagesel	$
  6182  0655                     __ccov67_end_blk2:
  6183  0655                     __ccov68_start_blk4:
  6184  0655                     i1l154:
  6185  0655  1770               	bsf	__ccovbit4_17/(0+8),__ccovbit4_17& (0+7)	;volatile
  6186  0656  0008               	return
  6187  0657                     __end_of_TMR2_ISR:
  6188  0657                     
  6189                           	psect	text35
  6190  06DE                     __ptext35:	
  6191 ;; *************** function _TMR2_DefaultInterruptHandler *****************
  6192 ;; Defined at:
  6193 ;;		line 136 in file "mcc_generated_files/tmr2.c"
  6194 ;; Parameters:    Size  Location     Type
  6195 ;;		None
  6196 ;; Auto vars:     Size  Location     Type
  6197 ;;		None
  6198 ;; Return value:  Size  Location     Type
  6199 ;;                  1    wreg      void 
  6200 ;; Registers used:
  6201 ;;		None
  6202 ;; Tracked objects:
  6203 ;;		On entry : 0/0
  6204 ;;		On exit  : 0/0
  6205 ;;		Unchanged: 0/0
  6206 ;; Data sizes:     COMMON   BANK0   BANK1
  6207 ;;      Params:         0       0       0
  6208 ;;      Locals:         0       0       0
  6209 ;;      Temps:          0       0       0
  6210 ;;      Totals:         0       0       0
  6211 ;;Total ram usage:        0 bytes
  6212 ;; Hardware stack levels used: 1
  6213 ;; This function calls:
  6214 ;;		Nothing
  6215 ;; This function is called by:
  6216 ;;		_TMR2_Initialize
  6217 ;;		_TMR2_ISR
  6218 ;; This function uses a non-reentrant model
  6219 ;;
  6220                           
  6221  06DE                     _TMR2_DefaultInterruptHandler:	
  6222                           ;psect for function _TMR2_DefaultInterruptHandler
  6223                           
  6224                           
  6225                           ;incstack = 0
  6226                           ; Regs used in _TMR2_DefaultInterruptHandler: []
  6227  06DE                     i1l160:
  6228  06DE  1670               	bsf	__ccovbit0_19/(0+8),__ccovbit0_19& (0+7)	;volatile
  6229  06DF  0008               	return
  6230  06E0                     __end_of_TMR2_DefaultInterruptHandler:
  6231  06E0                     
  6232                           	psect	text36
  6233  02D9                     __ptext36:	
  6234 ;; *************** function _ms_tick *****************
  6235 ;; Defined at:
  6236 ;;		line 527 in file "main.c"
  6237 ;; Parameters:    Size  Location     Type
  6238 ;;		None
  6239 ;; Auto vars:     Size  Location     Type
  6240 ;;		None
  6241 ;; Return value:  Size  Location     Type
  6242 ;;                  1    wreg      void 
  6243 ;; Registers used:
  6244 ;;		wreg, status,2, status,0, pclath, cstack
  6245 ;; Tracked objects:
  6246 ;;		On entry : 0/0
  6247 ;;		On exit  : 0/0
  6248 ;;		Unchanged: 0/0
  6249 ;; Data sizes:     COMMON   BANK0   BANK1
  6250 ;;      Params:         0       0       0
  6251 ;;      Locals:         0       0       0
  6252 ;;      Temps:          0       0       0
  6253 ;;      Totals:         0       0       0
  6254 ;;Total ram usage:        0 bytes
  6255 ;; Hardware stack levels used: 1
  6256 ;; Hardware stack levels required when called: 4
  6257 ;; This function calls:
  6258 ;;		_ms_100_work
  6259 ;;		_ms_200_work
  6260 ;;		_sec_work
  6261 ;;		_stop_tone
  6262 ;; This function is called by:
  6263 ;;		_start_setup
  6264 ;;		_TMR2_ISR
  6265 ;; This function uses a non-reentrant model
  6266 ;;
  6267                           
  6268  02D9                     _ms_tick:	
  6269                           ;psect for function _ms_tick
  6270                           
  6271                           
  6272                           ;incstack = 0
  6273                           ; Regs used in _ms_tick: [wreg+status,2+status,0+pclath+cstack]
  6274  02D9                     i1l2219:
  6275                           
  6276                           ;main.c: 528:     static unsigned ms_count = 0;;main.c: 529:     static unsigned s_count
      +                           = 0;;main.c: 530:     ms_count++;
  6277  02D9  3001               	movlw	1
  6278  02DA  0020               	movlb	0	; select bank0
  6279  02DB  07BA               	addwf	ms_tick@ms_count,f
  6280  02DC  3000               	movlw	0
  6281  02DD  3DBB               	addwfc	ms_tick@ms_count+1,f
  6282  02DE                     __ccov286_end_blk0:
  6283  02DE                     __ccov287_start_blk1:
  6284  02DE                     i1l2221:
  6285                           
  6286                           ;main.c: 531:     if (time_tone > 0) {
  6287  02DE  0840               	movf	_time_tone,w
  6288  02DF  0441               	iorwf	_time_tone+1,w
  6289  02E0  1903               	btfsc	3,2
  6290  02E1  2AE3               	goto	u203_21
  6291  02E2  2AE4               	goto	u203_20
  6292  02E3                     u203_21:
  6293  02E3  2AF3               	goto	i1l2229
  6294  02E4                     __ccov287_end_blk1:
  6295  02E4                     u203_20:
  6296  02E4                     __ccov288_start_blk2:
  6297  02E4                     i1l2223:
  6298                           
  6299                           ;main.c: 532:         time_tone--;
  6300  02E4  3001               	movlw	1
  6301  02E5  02C0               	subwf	_time_tone,f
  6302  02E6  3000               	movlw	0
  6303  02E7  3BC1               	subwfb	_time_tone+1,f
  6304  02E8                     __ccov288_end_blk2:
  6305  02E8                     __ccov289_start_blk3:
  6306  02E8                     i1l2225:
  6307  02E8  16A4               	bsf	__ccovbit3_148/(0+8),__ccovbit3_148& (0+7)	;volatile
  6308                           
  6309                           ;main.c: 533:         if (time_tone == 0) {
  6310  02E9  0840               	movf	_time_tone,w
  6311  02EA  0441               	iorwf	_time_tone+1,w
  6312  02EB  1D03               	btfss	3,2
  6313  02EC  2AEE               	goto	u204_21
  6314  02ED  2AEF               	goto	u204_20
  6315  02EE                     u204_21:
  6316  02EE  2AF3               	goto	i1l2229
  6317  02EF                     __ccov289_end_blk3:
  6318  02EF                     u204_20:
  6319  02EF                     __ccov290_start_blk4:
  6320  02EF                     i1l2227:
  6321  02EF  1624               	bsf	__ccovbit4_149/(0+8),__ccovbit4_149& (0+7)	;volatile
  6322                           
  6323                           ;main.c: 534:             stop_tone();
  6324  02F0  3186  26B2  3182   	fcall	_stop_tone
  6325  02F3                     __ccov290_end_blk4:
  6326  02F3                     __ccov291_start_blk7:
  6327  02F3                     i1l2229:
  6328                           
  6329                           ;main.c: 538:     ff.bits.ALLOW_FUN = 1;
  6330  02F3  16F9               	bsf	_ff,5
  6331  02F4                     __ccov291_end_blk7:
  6332  02F4                     __ccov292_start_blk8:
  6333  02F4                     i1l2231:
  6334                           
  6335                           ;main.c: 539:     ff.bits.ALLOW_JUMP = 1;
  6336  02F4  1779               	bsf	_ff,6
  6337  02F5                     __ccov292_end_blk8:
  6338  02F5                     __ccov293_start_blk9:
  6339  02F5                     i1l2233:
  6340                           
  6341                           ;main.c: 541:     if (ms_count == 100) {
  6342  02F5  3064               	movlw	100
  6343  02F6  0020               	movlb	0	; select bank0
  6344  02F7  063A               	xorwf	ms_tick@ms_count,w
  6345  02F8  043B               	iorwf	ms_tick@ms_count+1,w
  6346  02F9  1D03               	btfss	3,2
  6347  02FA  2AFC               	goto	u205_21
  6348  02FB  2AFD               	goto	u205_20
  6349  02FC                     u205_21:
  6350  02FC  2B0B               	goto	i1l2243
  6351  02FD                     __ccov293_end_blk9:
  6352  02FD                     u205_20:
  6353  02FD                     __ccov294_start_blk10:
  6354  02FD                     i1l2235:
  6355                           
  6356                           ;main.c: 542:         ms_100_work();
  6357  02FD  3186  2667  3182   	fcall	_ms_100_work
  6358  0300                     __ccov294_end_blk10:
  6359  0300                     __ccov295_start_blk11:
  6360  0300                     i1l2237:
  6361                           
  6362                           ;main.c: 543:         ms_200_work();
  6363  0300  3182  2296  3182   	fcall	_ms_200_work
  6364                           
  6365                           ;main.c: 544:         s_count++;
  6366  0303  3001               	movlw	1
  6367  0304  0020               	movlb	0	; select bank0
  6368  0305  07B8               	addwf	ms_tick@s_count,f
  6369  0306  3000               	movlw	0
  6370  0307  3DB9               	addwfc	ms_tick@s_count+1,f
  6371  0308                     __ccov295_end_blk11:
  6372  0308                     __ccov296_start_blk12:
  6373  0308                     i1l2239:
  6374  0308  15A4               	bsf	__ccovbit12_150/(0+8),__ccovbit12_150& (0+7)	;volatile
  6375                           
  6376                           ;main.c: 545:         ms_count = 0;
  6377  0309  01BA               	clrf	ms_tick@ms_count
  6378  030A  01BB               	clrf	ms_tick@ms_count+1
  6379  030B                     __ccov296_end_blk12:
  6380  030B                     __ccov297_start_blk16:
  6381  030B                     i1l2243:
  6382                           
  6383                           ;main.c: 553:     if (s_count == 10) {
  6384  030B  300A               	movlw	10
  6385  030C  0638               	xorwf	ms_tick@s_count,w
  6386  030D  0439               	iorwf	ms_tick@s_count+1,w
  6387  030E  1D03               	btfss	3,2
  6388  030F  2B11               	goto	u206_21
  6389  0310  2B12               	goto	u206_20
  6390  0311                     u206_21:
  6391  0311  2B19               	goto	i1l461
  6392  0312                     __ccov297_end_blk16:
  6393  0312                     u206_20:
  6394  0312                     __ccov298_start_blk17:
  6395  0312                     i1l2245:
  6396                           
  6397                           ;main.c: 554:         sec_work();
  6398  0312  3180  2049  3182   	fcall	_sec_work
  6399  0315                     __ccov298_end_blk17:
  6400  0315                     __ccov299_start_blk18:
  6401  0315                     i1l2247:
  6402  0315  0020               	movlb	0	; select bank0
  6403  0316  1524               	bsf	__ccovbit18_151/(0+8),__ccovbit18_151& (0+7)	;volatile
  6404                           
  6405                           ;main.c: 555:         s_count = 0;
  6406  0317  01B8               	clrf	ms_tick@s_count
  6407  0318  01B9               	clrf	ms_tick@s_count+1
  6408  0319                     __ccov299_end_blk18:
  6409  0319                     __ccov300_start_blk20:
  6410  0319                     i1l461:
  6411  0319  14A4               	bsf	__ccovbit20_152/(0+8),__ccovbit20_152& (0+7)	;volatile
  6412  031A  0008               	return
  6413  031B                     __end_of_ms_tick:
  6414  031B                     
  6415                           	psect	text37
  6416  06B2                     __ptext37:	
  6417 ;; *************** function _stop_tone *****************
  6418 ;; Defined at:
  6419 ;;		line 127 in file "main.c"
  6420 ;; Parameters:    Size  Location     Type
  6421 ;;		None
  6422 ;; Auto vars:     Size  Location     Type
  6423 ;;		None
  6424 ;; Return value:  Size  Location     Type
  6425 ;;                  1    wreg      void 
  6426 ;; Registers used:
  6427 ;;		None
  6428 ;; Tracked objects:
  6429 ;;		On entry : 0/0
  6430 ;;		On exit  : 0/0
  6431 ;;		Unchanged: 0/0
  6432 ;; Data sizes:     COMMON   BANK0   BANK1
  6433 ;;      Params:         0       0       0
  6434 ;;      Locals:         0       0       0
  6435 ;;      Temps:          0       0       0
  6436 ;;      Totals:         0       0       0
  6437 ;;Total ram usage:        0 bytes
  6438 ;; Hardware stack levels used: 1
  6439 ;; This function calls:
  6440 ;;		Nothing
  6441 ;; This function is called by:
  6442 ;;		_ms_tick
  6443 ;; This function uses a non-reentrant model
  6444 ;;
  6445                           
  6446  06B2                     _stop_tone:	
  6447                           ;psect for function _stop_tone
  6448                           
  6449                           
  6450                           ;incstack = 0
  6451                           ; Regs used in _stop_tone: []
  6452  06B2                     i1l2053:
  6453                           
  6454                           ;main.c: 128:     ff.bits.ZUM_BUSY = 0;
  6455  06B2  117B               	bcf	_ff+2,2
  6456                           
  6457                           ;main.c: 129:     ff.bits.TONE_ON = 0;
  6458  06B3  13FA               	bcf	_ff+1,7
  6459                           
  6460                           ;main.c: 130:     ff.bits.TONE_OFF = 1;
  6461  06B4  147B               	bsf	_ff+2,0
  6462  06B5                     __ccov95_end_blk0:
  6463  06B5                     __ccov96_start_blk1:
  6464  06B5                     i1l302:
  6465  06B5  0020               	movlb	0	; select bank0
  6466  06B6  17B3               	bsf	__ccovbit1_26/(0+8),__ccovbit1_26& (0+7)	;volatile
  6467  06B7  0008               	return
  6468  06B8                     __end_of_stop_tone:
  6469  06B8                     
  6470                           	psect	text38
  6471  0049                     __ptext38:	
  6472 ;; *************** function _sec_work *****************
  6473 ;; Defined at:
  6474 ;;		line 445 in file "main.c"
  6475 ;; Parameters:    Size  Location     Type
  6476 ;;		None
  6477 ;; Auto vars:     Size  Location     Type
  6478 ;;		None
  6479 ;; Return value:  Size  Location     Type
  6480 ;;                  1    wreg      void 
  6481 ;; Registers used:
  6482 ;;		wreg, status,2, status,0, pclath, cstack
  6483 ;; Tracked objects:
  6484 ;;		On entry : 0/0
  6485 ;;		On exit  : 0/0
  6486 ;;		Unchanged: 0/0
  6487 ;; Data sizes:     COMMON   BANK0   BANK1
  6488 ;;      Params:         0       0       0
  6489 ;;      Locals:         0       0       0
  6490 ;;      Temps:          1       0       0
  6491 ;;      Totals:         1       0       0
  6492 ;;Total ram usage:        1 bytes
  6493 ;; Hardware stack levels used: 1
  6494 ;; Hardware stack levels required when called: 1
  6495 ;; This function calls:
  6496 ;;		_minute_tick
  6497 ;;		_rele_tick
  6498 ;;		_sec_30_work
  6499 ;; This function is called by:
  6500 ;;		_ms_tick
  6501 ;; This function uses a non-reentrant model
  6502 ;;
  6503                           
  6504  0049                     _sec_work:	
  6505                           ;psect for function _sec_work
  6506                           
  6507                           
  6508                           ;incstack = 0
  6509                           ; Regs used in _sec_work: [wreg+status,2+status,0+pclath+cstack]
  6510  0049                     i1l2083:
  6511                           
  6512                           ;main.c: 453:     sec_count++;
  6513  0049  3001               	movlw	1
  6514  004A  00F4               	movwf	??_sec_work
  6515  004B  0874               	movf	??_sec_work,w
  6516  004C  0020               	movlb	0	; select bank0
  6517  004D  07D3               	addwf	_sec_count,f
  6518  004E                     __ccov246_end_blk0:
  6519  004E                     __ccov247_start_blk1:
  6520  004E                     i1l2085:
  6521                           
  6522                           ;main.c: 454:     if (!ff.bits.MOVING_ALLOWED) {
  6523  004E  19FB               	btfsc	_ff+2,3
  6524  004F  2851               	goto	u167_21
  6525  0050  2852               	goto	u167_20
  6526  0051                     u167_21:
  6527  0051  285D               	goto	i1l415
  6528  0052                     __ccov247_end_blk1:
  6529  0052                     u167_20:
  6530  0052                     __ccov248_start_blk2:
  6531  0052                     i1l2087:
  6532                           
  6533                           ;main.c: 455:         if (time_moving_wait > 0) {
  6534  0052  0851               	movf	_time_moving_wait,w
  6535  0053  1903               	btfsc	3,2
  6536  0054  2856               	goto	u168_21
  6537  0055  2857               	goto	u168_20
  6538  0056                     u168_21:
  6539  0056  285B               	goto	i1l416
  6540  0057                     __ccov248_end_blk2:
  6541  0057                     u168_20:
  6542  0057                     __ccov249_start_blk3:
  6543  0057                     i1l2089:
  6544  0057  1727               	bsf	__ccovbit3_123/(0+8),__ccovbit3_123& (0+7)	;volatile
  6545                           
  6546                           ;main.c: 456:             time_moving_wait--;
  6547  0058  3001               	movlw	1
  6548  0059  02D1               	subwf	_time_moving_wait,f
  6549                           
  6550                           ;main.c: 457:         } else {
  6551  005A  285D               	goto	i1l415
  6552  005B                     __ccov249_end_blk3:
  6553  005B                     __ccov250_start_blk4:
  6554  005B                     i1l416:
  6555  005B  16A7               	bsf	__ccovbit4_124/(0+8),__ccovbit4_124& (0+7)	;volatile
  6556                           
  6557                           ;main.c: 458:             ff.bits.MOVING_ALLOWED = 1;
  6558  005C  15FB               	bsf	_ff+2,3
  6559  005D                     __ccov250_end_blk4:
  6560  005D                     __ccov251_start_blk6:
  6561  005D                     i1l415:	
  6562                           ;main.c: 460:     }
  6563                           
  6564                           
  6565                           ;main.c: 461:     if (ff.bits.NORMAL_WORK_MODE_ON) {
  6566  005D  1E7B               	btfss	_ff+2,4
  6567  005E  2860               	goto	u169_21
  6568  005F  2861               	goto	u169_20
  6569  0060                     u169_21:
  6570  0060  2874               	goto	i1l2097
  6571  0061                     __ccov251_end_blk6:
  6572  0061                     u169_20:
  6573  0061                     __ccov252_start_blk7:
  6574  0061                     i1l2091:
  6575                           
  6576                           ;main.c: 462:         if (ff.bits.OPENED){
  6577  0061  1D7A               	btfss	_ff+1,2
  6578  0062  2864               	goto	u170_21
  6579  0063  2865               	goto	u170_20
  6580  0064                     u170_21:
  6581  0064  2870               	goto	i1l2095
  6582  0065                     __ccov252_end_blk7:
  6583  0065                     u170_20:
  6584  0065                     __ccov253_start_blk8:
  6585  0065                     i1l2093:
  6586  0065  1627               	bsf	__ccovbit8_125/(0+8),__ccovbit8_125& (0+7)	;volatile
  6587                           
  6588                           ;main.c: 463:             time_rotation++;
  6589  0066  3001               	movlw	1
  6590  0067  07B5               	addwf	_time_rotation,f
  6591  0068  3000               	movlw	0
  6592  0069  1803               	skipnc
  6593  006A  3001               	movlw	1
  6594  006B  07B6               	addwf	_time_rotation+1,f
  6595  006C  3000               	movlw	0
  6596  006D  1803               	skipnc
  6597  006E  3001               	movlw	1
  6598  006F  07B7               	addwf	_time_rotation+2,f
  6599  0070                     __ccov253_end_blk8:
  6600  0070                     __ccov254_start_blk10:
  6601  0070                     i1l2095:
  6602  0070  15A7               	bsf	__ccovbit10_126/(0+8),__ccovbit10_126& (0+7)	;volatile
  6603                           
  6604                           ;main.c: 465:         rele_tick();
  6605  0071  3181  219D  3180   	fcall	_rele_tick
  6606  0074                     __ccov254_end_blk10:
  6607  0074                     __ccov255_start_blk12:
  6608  0074                     i1l2097:
  6609                           
  6610                           ;main.c: 468:     if (ff.bits.ALARM_ON) {
  6611  0074  1C79               	btfss	_ff,0
  6612  0075  2877               	goto	u171_21
  6613  0076  2878               	goto	u171_20
  6614  0077                     u171_21:
  6615  0077  289B               	goto	i1l420
  6616  0078                     __ccov255_end_blk12:
  6617  0078                     u171_20:
  6618  0078                     __ccov256_start_blk13:
  6619  0078                     i1l2099:
  6620                           
  6621                           ;main.c: 470:         if (sec_count == 30|| sec_count==60) {
  6622  0078  301E               	movlw	30
  6623  0079  0020               	movlb	0	; select bank0
  6624  007A  0653               	xorwf	_sec_count,w
  6625  007B  1903               	btfsc	3,2
  6626  007C  287E               	goto	u172_21
  6627  007D  287F               	goto	u172_20
  6628  007E                     u172_21:
  6629  007E  2886               	goto	i1l2103
  6630  007F                     __ccov256_end_blk13:
  6631  007F                     u172_20:
  6632  007F                     __ccov257_start_blk14:
  6633  007F                     i1l2101:
  6634  007F  1527               	bsf	__ccovbit14_127/(0+8),__ccovbit14_127& (0+7)	;volatile
  6635  0080  303C               	movlw	60
  6636  0081  0653               	xorwf	_sec_count,w
  6637  0082  1D03               	btfss	3,2
  6638  0083  2885               	goto	u173_21
  6639  0084  2886               	goto	u173_20
  6640  0085                     u173_21:
  6641  0085  288A               	goto	i1l2105
  6642  0086                     __ccov257_end_blk14:
  6643  0086                     u173_20:
  6644  0086                     __ccov258_start_blk16:
  6645  0086                     i1l2103:
  6646  0086  14A7               	bsf	__ccovbit16_128/(0+8),__ccovbit16_128& (0+7)	;volatile
  6647                           
  6648                           ;main.c: 471:             sec_30_work();
  6649  0087  3186  2657  3180   	fcall	_sec_30_work
  6650  008A                     __ccov258_end_blk16:
  6651  008A                     __ccov259_start_blk18:
  6652  008A                     i1l2105:
  6653  008A  0020               	movlb	0	; select bank0
  6654  008B  1427               	bsf	__ccovbit18_129/(0+8),__ccovbit18_129& (0+7)	;volatile
  6655                           
  6656                           ;main.c: 474:         ff.bits.LED_ON = !ff.bits.LED_ON;
  6657  008C  1003               	clrc
  6658  008D  1F7B               	btfss	_ff+2,6
  6659  008E  1403               	setc
  6660  008F  3000               	movlw	0
  6661  0090  3D09               	addwfc	9,w
  6662  0091  00F4               	movwf	??_sec_work
  6663  0092  0EF4               	swapf	??_sec_work,f
  6664  0093  0DF4               	rlf	??_sec_work,f
  6665  0094  0DF4               	rlf	??_sec_work,f
  6666  0095  087B               	movf	_ff+2,w
  6667  0096  0674               	xorwf	??_sec_work,w
  6668  0097  39BF               	andlw	-65
  6669  0098  0674               	xorwf	??_sec_work,w
  6670  0099  00FB               	movwf	_ff+2
  6671                           
  6672                           ;main.c: 476:     } else if (ff.bits.ALARM_OFF) {
  6673  009A  28BC               	goto	i1l2115
  6674  009B                     __ccov259_end_blk18:
  6675  009B                     __ccov260_start_blk19:
  6676  009B                     i1l420:
  6677  009B  0020               	movlb	0	; select bank0
  6678  009C  17A6               	bsf	__ccovbit19_130/(0+8),__ccovbit19_130& (0+7)	;volatile
  6679  009D  1CF9               	btfss	_ff,1
  6680  009E  28A0               	goto	u174_21
  6681  009F  28A1               	goto	u174_20
  6682  00A0                     u174_21:
  6683  00A0  28BC               	goto	i1l2115
  6684  00A1                     __ccov260_end_blk19:
  6685  00A1                     u174_20:
  6686  00A1                     __ccov261_start_blk20:
  6687  00A1                     i1l2107:
  6688                           
  6689                           ;main.c: 478:         static char iled;;main.c: 479:         iled++;
  6690  00A1  3001               	movlw	1
  6691  00A2  00F4               	movwf	??_sec_work
  6692  00A3  0874               	movf	??_sec_work,w
  6693  00A4  07CD               	addwf	sec_work@iled,f
  6694  00A5                     __ccov261_end_blk20:
  6695  00A5                     __ccov262_start_blk21:
  6696  00A5                     i1l2109:
  6697  00A5  1726               	bsf	__ccovbit21_131/(0+8),__ccovbit21_131& (0+7)	;volatile
  6698                           
  6699                           ;main.c: 480:         if (iled > 2) {
  6700  00A6  3003               	movlw	3
  6701  00A7  024D               	subwf	sec_work@iled,w
  6702  00A8  1C03               	skipc
  6703  00A9  28AB               	goto	u175_21
  6704  00AA  28AC               	goto	u175_20
  6705  00AB                     u175_21:
  6706  00AB  28BC               	goto	i1l2115
  6707  00AC                     __ccov262_end_blk21:
  6708  00AC                     u175_20:
  6709  00AC                     __ccov263_start_blk22:
  6710  00AC                     i1l2111:
  6711                           
  6712                           ;main.c: 481:             ff.bits.LED_ON = !ff.bits.LED_ON;
  6713  00AC  1003               	clrc
  6714  00AD  1F7B               	btfss	_ff+2,6
  6715  00AE  1403               	setc
  6716  00AF  3000               	movlw	0
  6717  00B0  3D09               	addwfc	9,w
  6718  00B1  00F4               	movwf	??_sec_work
  6719  00B2  0EF4               	swapf	??_sec_work,f
  6720  00B3  0DF4               	rlf	??_sec_work,f
  6721  00B4  0DF4               	rlf	??_sec_work,f
  6722  00B5  087B               	movf	_ff+2,w
  6723  00B6  0674               	xorwf	??_sec_work,w
  6724  00B7  39BF               	andlw	-65
  6725  00B8  0674               	xorwf	??_sec_work,w
  6726  00B9  00FB               	movwf	_ff+2
  6727  00BA                     __ccov263_end_blk22:
  6728  00BA                     __ccov264_start_blk23:
  6729  00BA                     i1l2113:
  6730  00BA  16A6               	bsf	__ccovbit23_132/(0+8),__ccovbit23_132& (0+7)	;volatile
  6731                           
  6732                           ;main.c: 482:             iled = 0;
  6733  00BB  01CD               	clrf	sec_work@iled
  6734  00BC                     __ccov264_end_blk23:
  6735  00BC                     __ccov265_start_blk27:
  6736  00BC                     i1l2115:
  6737                           
  6738                           ;main.c: 488:     if (sec_count == 60) {
  6739  00BC  303C               	movlw	60
  6740  00BD  0653               	xorwf	_sec_count,w
  6741  00BE  1D03               	btfss	3,2
  6742  00BF  28C1               	goto	u176_21
  6743  00C0  28C2               	goto	u176_20
  6744  00C1                     u176_21:
  6745  00C1  28C8               	goto	i1l430
  6746  00C2                     __ccov265_end_blk27:
  6747  00C2                     u176_20:
  6748  00C2                     __ccov266_start_blk28:
  6749  00C2                     i1l2117:
  6750                           
  6751                           ;main.c: 489:         minute_tick();
  6752  00C2  3185  2562  3180   	fcall	_minute_tick
  6753  00C5                     __ccov266_end_blk28:
  6754  00C5                     __ccov267_start_blk29:
  6755  00C5                     i1l2119:
  6756  00C5  0020               	movlb	0	; select bank0
  6757  00C6  1626               	bsf	__ccovbit29_133/(0+8),__ccovbit29_133& (0+7)	;volatile
  6758                           
  6759                           ;main.c: 490:         sec_count = 0;
  6760  00C7  01D3               	clrf	_sec_count
  6761  00C8                     __ccov267_end_blk29:
  6762  00C8                     __ccov268_start_blk31:
  6763  00C8                     i1l430:
  6764  00C8  15A6               	bsf	__ccovbit31_134/(0+8),__ccovbit31_134& (0+7)	;volatile
  6765  00C9  0008               	return
  6766  00CA                     __end_of_sec_work:
  6767  00CA                     
  6768                           	psect	text39
  6769  0657                     __ptext39:	
  6770 ;; *************** function _sec_30_work *****************
  6771 ;; Defined at:
  6772 ;;		line 437 in file "main.c"
  6773 ;; Parameters:    Size  Location     Type
  6774 ;;		None
  6775 ;; Auto vars:     Size  Location     Type
  6776 ;;		None
  6777 ;; Return value:  Size  Location     Type
  6778 ;;                  1    wreg      void 
  6779 ;; Registers used:
  6780 ;;		wreg
  6781 ;; Tracked objects:
  6782 ;;		On entry : 0/0
  6783 ;;		On exit  : 0/0
  6784 ;;		Unchanged: 0/0
  6785 ;; Data sizes:     COMMON   BANK0   BANK1
  6786 ;;      Params:         0       0       0
  6787 ;;      Locals:         0       0       0
  6788 ;;      Temps:          1       0       0
  6789 ;;      Totals:         1       0       0
  6790 ;;Total ram usage:        1 bytes
  6791 ;; Hardware stack levels used: 1
  6792 ;; This function calls:
  6793 ;;		Nothing
  6794 ;; This function is called by:
  6795 ;;		_sec_work
  6796 ;; This function uses a non-reentrant model
  6797 ;;
  6798                           
  6799  0657                     _sec_30_work:	
  6800                           ;psect for function _sec_30_work
  6801                           
  6802                           
  6803                           ;incstack = 0
  6804                           ; Regs used in _sec_30_work: [wreg]
  6805  0657                     i1l1997:
  6806                           
  6807                           ;main.c: 438:     if (ff.bits.SIREN) {
  6808  0657  1CFB               	btfss	_ff+2,1
  6809  0658  2E5A               	goto	u159_21
  6810  0659  2E5B               	goto	u159_20
  6811  065A                     u159_21:
  6812  065A  2E5F               	goto	i1l2001
  6813  065B                     __ccov242_end_blk0:
  6814  065B                     u159_20:
  6815  065B                     __ccov243_start_blk1:
  6816  065B                     i1l1999:
  6817  065B  0020               	movlb	0	; select bank0
  6818  065C  14A8               	bsf	__ccovbit1_120/(0+8),__ccovbit1_120& (0+7)	;volatile
  6819                           
  6820                           ;main.c: 439:         ff.bits.SIREN = 0;
  6821  065D  10FB               	bcf	_ff+2,1
  6822                           
  6823                           ;main.c: 440:     } else {
  6824  065E  2E65               	goto	i1l412
  6825  065F                     __ccov243_end_blk1:
  6826  065F                     __ccov244_start_blk3:
  6827  065F                     i1l2001:
  6828  065F  0020               	movlb	0	; select bank0
  6829  0660  1428               	bsf	__ccovbit3_121/(0+8),__ccovbit3_121& (0+7)	;volatile
  6830                           
  6831                           ;main.c: 441:         beep_short_count = 3;
  6832  0661  3003               	movlw	3
  6833  0662  00F3               	movwf	??_sec_30_work
  6834  0663  0873               	movf	??_sec_30_work,w
  6835  0664  00FD               	movwf	_beep_short_count
  6836  0665                     __ccov244_end_blk3:
  6837  0665                     __ccov245_start_blk5:
  6838  0665                     i1l412:
  6839  0665  17A7               	bsf	__ccovbit5_122/(0+8),__ccovbit5_122& (0+7)	;volatile
  6840  0666  0008               	return
  6841  0667                     __end_of_sec_30_work:
  6842  0667                     
  6843                           	psect	text40
  6844  019D                     __ptext40:	
  6845 ;; *************** function _rele_tick *****************
  6846 ;; Defined at:
  6847 ;;		line 276 in file "main.c"
  6848 ;; Parameters:    Size  Location     Type
  6849 ;;		None
  6850 ;; Auto vars:     Size  Location     Type
  6851 ;;		None
  6852 ;; Return value:  Size  Location     Type
  6853 ;;                  1    wreg      void 
  6854 ;; Registers used:
  6855 ;;		wreg, status,2, status,0
  6856 ;; Tracked objects:
  6857 ;;		On entry : 0/0
  6858 ;;		On exit  : 0/0
  6859 ;;		Unchanged: 0/0
  6860 ;; Data sizes:     COMMON   BANK0   BANK1
  6861 ;;      Params:         0       0       0
  6862 ;;      Locals:         0       0       0
  6863 ;;      Temps:          0       0       0
  6864 ;;      Totals:         0       0       0
  6865 ;;Total ram usage:        0 bytes
  6866 ;; Hardware stack levels used: 1
  6867 ;; This function calls:
  6868 ;;		Nothing
  6869 ;; This function is called by:
  6870 ;;		_sec_work
  6871 ;; This function uses a non-reentrant model
  6872 ;;
  6873                           
  6874  019D                     _rele_tick:	
  6875                           ;psect for function _rele_tick
  6876                           
  6877                           
  6878                           ;incstack = 0
  6879                           ; Regs used in _rele_tick: [wreg+status,2+status,0]
  6880  019D                     i1l1955:
  6881                           
  6882                           ;main.c: 278:     if (ff.bits.OPENING && ff.bits.CLOSING) {
  6883  019D  1CFA               	btfss	_ff+1,1
  6884  019E  29A0               	goto	u147_21
  6885  019F  29A1               	goto	u147_20
  6886  01A0                     u147_21:
  6887  01A0  29A8               	goto	i1l365
  6888  01A1                     __ccov162_end_blk0:
  6889  01A1                     u147_20:
  6890  01A1                     __ccov163_start_blk1:
  6891  01A1                     i1l1957:
  6892  01A1  0020               	movlb	0	; select bank0
  6893  01A2  16AE               	bsf	__ccovbit1_68/(0+8),__ccovbit1_68& (0+7)	;volatile
  6894  01A3  1DFA               	btfss	_ff+1,3
  6895  01A4  29A6               	goto	u148_21
  6896  01A5  29A7               	goto	u148_20
  6897  01A6                     u148_21:
  6898  01A6  29A8               	goto	i1l365
  6899  01A7                     u148_20:
  6900  01A7  29FA               	goto	i1l366
  6901  01A8                     __ccov163_end_blk1:
  6902  01A8                     __ccov164_start_blk3:
  6903  01A8                     i1l365:	
  6904                           ;main.c: 280:     }
  6905                           
  6906                           
  6907                           ;main.c: 283:     if (ff.bits.OPENING) {
  6908  01A8  1CFA               	btfss	_ff+1,1
  6909  01A9  29AB               	goto	u149_21
  6910  01AA  29AC               	goto	u149_20
  6911  01AB                     u149_21:
  6912  01AB  29C3               	goto	i1l367
  6913  01AC                     __ccov164_end_blk3:
  6914  01AC                     u149_20:
  6915  01AC                     __ccov165_start_blk4:
  6916  01AC                     i1l1961:
  6917  01AC  0020               	movlb	0	; select bank0
  6918  01AD  162E               	bsf	__ccovbit4_69/(0+8),__ccovbit4_69& (0+7)	;volatile
  6919                           
  6920                           ;main.c: 284:         if (time_rele_power > 0) {
  6921  01AE  0846               	movf	_time_rele_power,w
  6922  01AF  0447               	iorwf	_time_rele_power+1,w
  6923  01B0  1903               	btfsc	3,2
  6924  01B1  29B3               	goto	u150_21
  6925  01B2  29B4               	goto	u150_20
  6926  01B3                     u150_21:
  6927  01B3  29C3               	goto	i1l367
  6928  01B4                     __ccov165_end_blk4:
  6929  01B4                     u150_20:
  6930  01B4                     __ccov166_start_blk5:
  6931  01B4                     i1l1963:
  6932                           
  6933                           ;main.c: 285:             time_rele_power--;
  6934  01B4  3001               	movlw	1
  6935  01B5  02C6               	subwf	_time_rele_power,f
  6936  01B6  3000               	movlw	0
  6937  01B7  3BC7               	subwfb	_time_rele_power+1,f
  6938  01B8                     __ccov166_end_blk5:
  6939  01B8                     __ccov167_start_blk6:
  6940  01B8                     i1l1965:
  6941  01B8  15AE               	bsf	__ccovbit6_70/(0+8),__ccovbit6_70& (0+7)	;volatile
  6942                           
  6943                           ;main.c: 286:             if (time_rele_power == 0) {
  6944  01B9  0846               	movf	_time_rele_power,w
  6945  01BA  0447               	iorwf	_time_rele_power+1,w
  6946  01BB  1D03               	btfss	3,2
  6947  01BC  29BE               	goto	u151_21
  6948  01BD  29BF               	goto	u151_20
  6949  01BE                     u151_21:
  6950  01BE  29C3               	goto	i1l367
  6951  01BF                     __ccov167_end_blk6:
  6952  01BF                     u151_20:
  6953  01BF                     __ccov168_start_blk7:
  6954  01BF                     i1l1967:
  6955  01BF  152E               	bsf	__ccovbit7_71/(0+8),__ccovbit7_71& (0+7)	;volatile
  6956                           
  6957                           ;main.c: 287:                 ff.bits.RELE_POWER_ON = 0;
  6958  01C0  12FA               	bcf	_ff+1,5
  6959                           
  6960                           ;main.c: 288:                 ff.bits.OPENED = 1;
  6961  01C1  157A               	bsf	_ff+1,2
  6962                           
  6963                           ;main.c: 289:                 ff.bits.OPENING = 0;
  6964  01C2  10FA               	bcf	_ff+1,1
  6965  01C3                     __ccov168_end_blk7:
  6966  01C3                     __ccov169_start_blk10:
  6967  01C3                     i1l367:	
  6968                           ;main.c: 292:     }
  6969                           
  6970  01C3  0020               	movlb	0	; select bank0
  6971  01C4  14AE               	bsf	__ccovbit10_72/(0+8),__ccovbit10_72& (0+7)	;volatile
  6972                           
  6973                           ;main.c: 295:     if (ff.bits.CLOSING) {
  6974  01C5  1DFA               	btfss	_ff+1,3
  6975  01C6  29C8               	goto	u152_21
  6976  01C7  29C9               	goto	u152_20
  6977  01C8                     u152_21:
  6978  01C8  29FA               	goto	i1l366
  6979  01C9                     __ccov169_end_blk10:
  6980  01C9                     u152_20:
  6981  01C9                     __ccov170_start_blk11:
  6982  01C9                     i1l1969:
  6983                           
  6984                           ;main.c: 297:         if (time_rele_gap == 0) {
  6985  01C9  0842               	movf	_time_rele_gap,w
  6986  01CA  0443               	iorwf	_time_rele_gap+1,w
  6987  01CB  1D03               	btfss	3,2
  6988  01CC  29CE               	goto	u153_21
  6989  01CD  29CF               	goto	u153_20
  6990  01CE                     u153_21:
  6991  01CE  29DF               	goto	i1l1977
  6992  01CF                     __ccov170_end_blk11:
  6993  01CF                     u153_20:
  6994  01CF                     __ccov171_start_blk12:
  6995  01CF                     i1l1971:
  6996                           
  6997                           ;main.c: 298:             if (time_rele_power > 0) {
  6998  01CF  0846               	movf	_time_rele_power,w
  6999  01D0  0447               	iorwf	_time_rele_power+1,w
  7000  01D1  1903               	btfsc	3,2
  7001  01D2  29D4               	goto	u154_21
  7002  01D3  29D5               	goto	u154_20
  7003  01D4                     u154_21:
  7004  01D4  29DC               	goto	i1l372
  7005  01D5                     __ccov171_end_blk12:
  7006  01D5                     u154_20:
  7007  01D5                     __ccov172_start_blk13:
  7008  01D5                     i1l1973:
  7009                           
  7010                           ;main.c: 299:                 ff.bits.RELE_POWER_ON = 1;
  7011  01D5  16FA               	bsf	_ff+1,5
  7012  01D6                     __ccov172_end_blk13:
  7013  01D6                     __ccov173_start_blk14:
  7014  01D6                     i1l1975:
  7015  01D6  142E               	bsf	__ccovbit14_73/(0+8),__ccovbit14_73& (0+7)	;volatile
  7016                           
  7017                           ;main.c: 300:                 time_rele_power--;
  7018  01D7  3001               	movlw	1
  7019  01D8  02C6               	subwf	_time_rele_power,f
  7020  01D9  3000               	movlw	0
  7021  01DA  3BC7               	subwfb	_time_rele_power+1,f
  7022                           
  7023                           ;main.c: 301:             } else {
  7024  01DB  29E4               	goto	i1l1979
  7025  01DC                     __ccov173_end_blk14:
  7026  01DC                     __ccov174_start_blk15:
  7027  01DC                     i1l372:
  7028  01DC  17AD               	bsf	__ccovbit15_74/(0+8),__ccovbit15_74& (0+7)	;volatile
  7029                           
  7030                           ;main.c: 302:                 ff.bits.RELE_POWER_ON = 0;
  7031  01DD  12FA               	bcf	_ff+1,5
  7032  01DE  29E4               	goto	i1l1979
  7033  01DF                     __ccov174_end_blk15:
  7034  01DF                     __ccov175_start_blk18:
  7035  01DF                     i1l1977:
  7036  01DF  172D               	bsf	__ccovbit18_75/(0+8),__ccovbit18_75& (0+7)	;volatile
  7037                           
  7038                           ;main.c: 305:             time_rele_gap--;
  7039  01E0  3001               	movlw	1
  7040  01E1  02C2               	subwf	_time_rele_gap,f
  7041  01E2  3000               	movlw	0
  7042  01E3  3BC3               	subwfb	_time_rele_gap+1,f
  7043  01E4                     __ccov175_end_blk18:
  7044  01E4                     __ccov176_start_blk20:
  7045  01E4                     i1l1979:
  7046  01E4  16AD               	bsf	__ccovbit20_76/(0+8),__ccovbit20_76& (0+7)	;volatile
  7047                           
  7048                           ;main.c: 308:         if (time_rele_control > 0) {
  7049  01E5  0844               	movf	_time_rele_control,w
  7050  01E6  0445               	iorwf	_time_rele_control+1,w
  7051  01E7  1903               	btfsc	3,2
  7052  01E8  29EA               	goto	u155_21
  7053  01E9  29EB               	goto	u155_20
  7054  01EA                     u155_21:
  7055  01EA  29FA               	goto	i1l366
  7056  01EB                     __ccov176_end_blk20:
  7057  01EB                     u155_20:
  7058  01EB                     __ccov177_start_blk21:
  7059  01EB                     i1l1981:
  7060                           
  7061                           ;main.c: 309:             time_rele_control--;
  7062  01EB  3001               	movlw	1
  7063  01EC  02C4               	subwf	_time_rele_control,f
  7064  01ED  3000               	movlw	0
  7065  01EE  3BC5               	subwfb	_time_rele_control+1,f
  7066  01EF                     __ccov177_end_blk21:
  7067  01EF                     __ccov178_start_blk22:
  7068  01EF                     i1l1983:
  7069  01EF  162D               	bsf	__ccovbit22_77/(0+8),__ccovbit22_77& (0+7)	;volatile
  7070                           
  7071                           ;main.c: 310:             if (time_rele_control == 0) {
  7072  01F0  0844               	movf	_time_rele_control,w
  7073  01F1  0445               	iorwf	_time_rele_control+1,w
  7074  01F2  1D03               	btfss	3,2
  7075  01F3  29F5               	goto	u156_21
  7076  01F4  29F6               	goto	u156_20
  7077  01F5                     u156_21:
  7078  01F5  29FA               	goto	i1l366
  7079  01F6                     __ccov178_end_blk22:
  7080  01F6                     u156_20:
  7081  01F6                     __ccov179_start_blk23:
  7082  01F6                     i1l1985:
  7083  01F6  15AD               	bsf	__ccovbit23_78/(0+8),__ccovbit23_78& (0+7)	;volatile
  7084                           
  7085                           ;main.c: 311:                 ff.bits.RELE_CONTROL_ON = 0;
  7086  01F7  137A               	bcf	_ff+1,6
  7087                           
  7088                           ;main.c: 312:                 ff.bits.CLOSED = 1;
  7089  01F8  167A               	bsf	_ff+1,4
  7090                           
  7091                           ;main.c: 313:                 ff.bits.CLOSING = 0;
  7092  01F9  11FA               	bcf	_ff+1,3
  7093  01FA                     __ccov179_end_blk23:
  7094  01FA                     __ccov180_start_blk27:
  7095  01FA                     i1l366:
  7096  01FA  152D               	bsf	__ccovbit27_79/(0+8),__ccovbit27_79& (0+7)	;volatile
  7097  01FB  0008               	return
  7098  01FC                     __end_of_rele_tick:
  7099  01FC                     
  7100                           	psect	text41
  7101  0562                     __ptext41:	
  7102 ;; *************** function _minute_tick *****************
  7103 ;; Defined at:
  7104 ;;		line 416 in file "main.c"
  7105 ;; Parameters:    Size  Location     Type
  7106 ;;		None
  7107 ;; Auto vars:     Size  Location     Type
  7108 ;;		None
  7109 ;; Return value:  Size  Location     Type
  7110 ;;                  1    wreg      void 
  7111 ;; Registers used:
  7112 ;;		wreg, status,2, status,0
  7113 ;; Tracked objects:
  7114 ;;		On entry : 0/0
  7115 ;;		On exit  : 0/0
  7116 ;;		Unchanged: 0/0
  7117 ;; Data sizes:     COMMON   BANK0   BANK1
  7118 ;;      Params:         0       0       0
  7119 ;;      Locals:         0       0       0
  7120 ;;      Temps:          1       0       0
  7121 ;;      Totals:         1       0       0
  7122 ;;Total ram usage:        1 bytes
  7123 ;; Hardware stack levels used: 1
  7124 ;; This function calls:
  7125 ;;		Nothing
  7126 ;; This function is called by:
  7127 ;;		_sec_work
  7128 ;; This function uses a non-reentrant model
  7129 ;;
  7130                           
  7131  0562                     _minute_tick:	
  7132                           ;psect for function _minute_tick
  7133                           
  7134                           
  7135                           ;incstack = 0
  7136                           ; Regs used in _minute_tick: [wreg+status,2+status,0]
  7137  0562                     i1l1987:
  7138                           
  7139                           ;main.c: 420:     if (time_melody > 0) {
  7140  0562  0020               	movlb	0	; select bank0
  7141  0563  0852               	movf	_time_melody,w
  7142  0564  1903               	btfsc	3,2
  7143  0565  2D67               	goto	u157_21
  7144  0566  2D68               	goto	u157_20
  7145  0567                     u157_21:
  7146  0567  2D6C               	goto	i1l1991
  7147  0568                     __ccov236_end_blk0:
  7148  0568                     u157_20:
  7149  0568                     __ccov237_start_blk1:
  7150  0568                     i1l1989:
  7151  0568  16A8               	bsf	__ccovbit1_116/(0+8),__ccovbit1_116& (0+7)	;volatile
  7152                           
  7153                           ;main.c: 421:        time_melody--;
  7154  0569  3001               	movlw	1
  7155  056A  02D2               	subwf	_time_melody,f
  7156                           
  7157                           ;main.c: 422:     } else {
  7158  056B  2D78               	goto	i1l407
  7159  056C                     __ccov237_end_blk1:
  7160  056C                     __ccov238_start_blk3:
  7161  056C                     i1l1991:
  7162  056C  1628               	bsf	__ccovbit3_117/(0+8),__ccovbit3_117& (0+7)	;volatile
  7163                           
  7164                           ;main.c: 423:         if (time_melody == 0) {
  7165  056D  0852               	movf	_time_melody,w
  7166  056E  1D03               	btfss	3,2
  7167  056F  2D71               	goto	u158_21
  7168  0570  2D72               	goto	u158_20
  7169  0571                     u158_21:
  7170  0571  2D78               	goto	i1l407
  7171  0572                     __ccov238_end_blk3:
  7172  0572                     u158_20:
  7173  0572                     __ccov239_start_blk4:
  7174  0572                     i1l1993:
  7175                           
  7176                           ;main.c: 424:             ff.bits.SIREN = 1;
  7177  0572  14FB               	bsf	_ff+2,1
  7178  0573                     __ccov239_end_blk4:
  7179  0573                     __ccov240_start_blk5:
  7180  0573                     i1l1995:
  7181  0573  15A8               	bsf	__ccovbit5_118/(0+8),__ccovbit5_118& (0+7)	;volatile
  7182                           
  7183                           ;main.c: 425:             time_melody = MELODY_REPEAT_DELAY;
  7184  0574  3005               	movlw	5
  7185  0575  00F3               	movwf	??_minute_tick
  7186  0576  0873               	movf	??_minute_tick,w
  7187  0577  00D2               	movwf	_time_melody
  7188  0578                     __ccov240_end_blk5:
  7189  0578                     __ccov241_start_blk8:
  7190  0578                     i1l407:
  7191  0578  1528               	bsf	__ccovbit8_119/(0+8),__ccovbit8_119& (0+7)	;volatile
  7192  0579  0008               	return
  7193  057A                     __end_of_minute_tick:
  7194  057A                     
  7195                           	psect	text42
  7196  0296                     __ptext42:	
  7197 ;; *************** function _ms_200_work *****************
  7198 ;; Defined at:
  7199 ;;		line 495 in file "main.c"
  7200 ;; Parameters:    Size  Location     Type
  7201 ;;		None
  7202 ;; Auto vars:     Size  Location     Type
  7203 ;;		None
  7204 ;; Return value:  Size  Location     Type
  7205 ;;                  1    wreg      void 
  7206 ;; Registers used:
  7207 ;;		wreg, status,2, status,0, pclath, cstack
  7208 ;; Tracked objects:
  7209 ;;		On entry : 0/0
  7210 ;;		On exit  : 0/0
  7211 ;;		Unchanged: 0/0
  7212 ;; Data sizes:     COMMON   BANK0   BANK1
  7213 ;;      Params:         0       0       0
  7214 ;;      Locals:         0       0       0
  7215 ;;      Temps:          0       0       0
  7216 ;;      Totals:         0       0       0
  7217 ;;Total ram usage:        0 bytes
  7218 ;; Hardware stack levels used: 1
  7219 ;; Hardware stack levels required when called: 3
  7220 ;; This function calls:
  7221 ;;		_beep_double
  7222 ;;		_beep_long
  7223 ;;		_beep_short
  7224 ;; This function is called by:
  7225 ;;		_ms_tick
  7226 ;; This function uses a non-reentrant model
  7227 ;;
  7228                           
  7229  0296                     _ms_200_work:	
  7230                           ;psect for function _ms_200_work
  7231                           
  7232                           
  7233                           ;incstack = 0
  7234                           ; Regs used in _ms_200_work: [wreg+status,2+status,0+pclath+cstack]
  7235  0296                     i1l2121:
  7236                           
  7237                           ;main.c: 496:     if (ff.bits.ALARM_ON) {
  7238  0296  1C79               	btfss	_ff,0
  7239  0297  2A99               	goto	u177_21
  7240  0298  2A9A               	goto	u177_20
  7241  0299                     u177_21:
  7242  0299  2AB0               	goto	i1l433
  7243  029A                     __ccov269_end_blk0:
  7244  029A                     u177_20:
  7245  029A                     __ccov270_start_blk1:
  7246  029A                     i1l2123:
  7247  029A  0020               	movlb	0	; select bank0
  7248  029B  1526               	bsf	__ccovbit1_135/(0+8),__ccovbit1_135& (0+7)	;volatile
  7249                           
  7250                           ;main.c: 497:         if (ff.bits.SIREN) {
  7251  029C  1CFB               	btfss	_ff+2,1
  7252  029D  2A9F               	goto	u178_21
  7253  029E  2AA0               	goto	u178_20
  7254  029F                     u178_21:
  7255  029F  2AA5               	goto	i1l2127
  7256  02A0                     __ccov270_end_blk1:
  7257  02A0                     u178_20:
  7258  02A0                     __ccov271_start_blk2:
  7259  02A0                     i1l2125:
  7260  02A0  14A6               	bsf	__ccovbit2_136/(0+8),__ccovbit2_136& (0+7)	;volatile
  7261                           
  7262                           ;main.c: 498:             beep_double();
  7263  02A1  3186  2623  3182   	fcall	_beep_double
  7264                           
  7265                           ;main.c: 499:         } else {
  7266  02A4  2AD6               	goto	i1l443
  7267  02A5                     __ccov271_end_blk2:
  7268  02A5                     __ccov272_start_blk4:
  7269  02A5                     i1l2127:
  7270  02A5  1426               	bsf	__ccovbit4_137/(0+8),__ccovbit4_137& (0+7)	;volatile
  7271                           
  7272                           ;main.c: 500:             if (beep_short_count > 0) {
  7273  02A6  087D               	movf	_beep_short_count,w
  7274  02A7  1903               	btfsc	3,2
  7275  02A8  2AAA               	goto	u179_21
  7276  02A9  2AAB               	goto	u179_20
  7277  02AA                     u179_21:
  7278  02AA  2AD6               	goto	i1l443
  7279  02AB                     __ccov272_end_blk4:
  7280  02AB                     u179_20:
  7281  02AB                     __ccov273_start_blk5:
  7282  02AB                     i1l2129:
  7283  02AB  17A5               	bsf	__ccovbit5_138/(0+8),__ccovbit5_138& (0+7)	;volatile
  7284                           
  7285                           ;main.c: 501:                 beep_short();
  7286  02AC  3184  24FD  3182   	fcall	_beep_short
  7287  02AF  2AD6               	goto	i1l443
  7288  02B0                     __ccov273_end_blk5:
  7289  02B0                     __ccov274_start_blk8:
  7290  02B0                     i1l433:
  7291  02B0  0020               	movlb	0	; select bank0
  7292  02B1  1725               	bsf	__ccovbit8_139/(0+8),__ccovbit8_139& (0+7)	;volatile
  7293  02B2  1CF9               	btfss	_ff,1
  7294  02B3  2AB5               	goto	u180_21
  7295  02B4  2AB6               	goto	u180_20
  7296  02B5                     u180_21:
  7297  02B5  2AD6               	goto	i1l443
  7298  02B6                     __ccov274_end_blk8:
  7299  02B6                     u180_20:
  7300  02B6                     __ccov275_start_blk9:
  7301  02B6                     i1l2131:
  7302                           
  7303                           ;main.c: 507:         if ((beep_short_count > 0) && (beep_long_count > 0)) {
  7304  02B6  087D               	movf	_beep_short_count,w
  7305  02B7  1903               	btfsc	3,2
  7306  02B8  2ABA               	goto	u181_21
  7307  02B9  2ABB               	goto	u181_20
  7308  02BA                     u181_21:
  7309  02BA  2AC2               	goto	i1l2137
  7310  02BB                     __ccov275_end_blk9:
  7311  02BB                     u181_20:
  7312  02BB                     __ccov276_start_blk10:
  7313  02BB                     i1l2133:
  7314  02BB  16A5               	bsf	__ccovbit10_140/(0+8),__ccovbit10_140& (0+7)	;volatile
  7315  02BC  084F               	movf	_beep_long_count,w
  7316  02BD  1903               	btfsc	3,2
  7317  02BE  2AC0               	goto	u182_21
  7318  02BF  2AC1               	goto	u182_20
  7319  02C0                     u182_21:
  7320  02C0  2AC2               	goto	i1l2137
  7321  02C1                     u182_20:
  7322  02C1  2AA0               	goto	i1l2125
  7323  02C2                     __ccov276_end_blk10:
  7324  02C2                     __ccov277_start_blk13:
  7325  02C2                     i1l2137:
  7326                           
  7327                           ;main.c: 510:             if (beep_short_count > 0) {
  7328  02C2  087D               	movf	_beep_short_count,w
  7329  02C3  1903               	btfsc	3,2
  7330  02C4  2AC6               	goto	u183_21
  7331  02C5  2AC7               	goto	u183_20
  7332  02C6                     u183_21:
  7333  02C6  2ACB               	goto	i1l2141
  7334  02C7                     __ccov277_end_blk13:
  7335  02C7                     u183_20:
  7336  02C7                     __ccov278_start_blk14:
  7337  02C7                     i1l2139:
  7338  02C7  1625               	bsf	__ccovbit14_141/(0+8),__ccovbit14_141& (0+7)	;volatile
  7339                           
  7340                           ;main.c: 511:                 beep_short();
  7341  02C8  3184  24FD  3182   	fcall	_beep_short
  7342  02CB                     __ccov278_end_blk14:
  7343  02CB                     __ccov279_start_blk16:
  7344  02CB                     i1l2141:
  7345  02CB  0020               	movlb	0	; select bank0
  7346  02CC  15A5               	bsf	__ccovbit16_142/(0+8),__ccovbit16_142& (0+7)	;volatile
  7347                           
  7348                           ;main.c: 513:             if (beep_long_count > 0) {
  7349  02CD  084F               	movf	_beep_long_count,w
  7350  02CE  1903               	btfsc	3,2
  7351  02CF  2AD1               	goto	u184_21
  7352  02D0  2AD2               	goto	u184_20
  7353  02D1                     u184_21:
  7354  02D1  2AD6               	goto	i1l443
  7355  02D2                     __ccov279_end_blk16:
  7356  02D2                     u184_20:
  7357  02D2                     __ccov280_start_blk17:
  7358  02D2                     i1l2143:
  7359  02D2  1525               	bsf	__ccovbit17_143/(0+8),__ccovbit17_143& (0+7)	;volatile
  7360                           
  7361                           ;main.c: 514:                 beep_long();
  7362  02D3  3185  2549  3182   	fcall	_beep_long
  7363  02D6                     __ccov280_end_blk17:
  7364  02D6                     __ccov281_start_blk22:
  7365  02D6                     i1l443:
  7366  02D6  0020               	movlb	0	; select bank0
  7367  02D7  14A5               	bsf	__ccovbit22_144/(0+8),__ccovbit22_144& (0+7)	;volatile
  7368  02D8  0008               	return
  7369  02D9                     __end_of_ms_200_work:
  7370  02D9                     
  7371                           	psect	text43
  7372  0623                     __ptext43:	
  7373 ;; *************** function _beep_double *****************
  7374 ;; Defined at:
  7375 ;;		line 151 in file "main.c"
  7376 ;; Parameters:    Size  Location     Type
  7377 ;;		None
  7378 ;; Auto vars:     Size  Location     Type
  7379 ;;		None
  7380 ;; Return value:  Size  Location     Type
  7381 ;;                  1    wreg      void 
  7382 ;; Registers used:
  7383 ;;		wreg, status,2, status,0, pclath, cstack
  7384 ;; Tracked objects:
  7385 ;;		On entry : 0/0
  7386 ;;		On exit  : 0/0
  7387 ;;		Unchanged: 0/0
  7388 ;; Data sizes:     COMMON   BANK0   BANK1
  7389 ;;      Params:         0       0       0
  7390 ;;      Locals:         0       0       0
  7391 ;;      Temps:          0       0       0
  7392 ;;      Totals:         0       0       0
  7393 ;;Total ram usage:        0 bytes
  7394 ;; Hardware stack levels used: 1
  7395 ;; Hardware stack levels required when called: 2
  7396 ;; This function calls:
  7397 ;;		_beep_long
  7398 ;;		_beep_short
  7399 ;; This function is called by:
  7400 ;;		_ms_200_work
  7401 ;; This function uses a non-reentrant model
  7402 ;;
  7403                           
  7404  0623                     _beep_double:	
  7405                           ;psect for function _beep_double
  7406                           
  7407                           
  7408                           ;incstack = 0
  7409                           ; Regs used in _beep_double: [wreg+status,2+status,0+pclath+cstack]
  7410  0623                     i1l1949:
  7411                           
  7412                           ;main.c: 152:     if (ff.bits.LAST_BEEP_LONG) {
  7413  0623  1D7C               	btfss	_ff+3,2
  7414  0624  2E26               	goto	u146_21
  7415  0625  2E27               	goto	u146_20
  7416  0626                     u146_21:
  7417  0626  2E2D               	goto	i1l1953
  7418  0627                     __ccov111_end_blk0:
  7419  0627                     u146_20:
  7420  0627                     __ccov112_start_blk1:
  7421  0627                     i1l1951:
  7422  0627  0020               	movlb	0	; select bank0
  7423  0628  1433               	bsf	__ccovbit1_33/(0+8),__ccovbit1_33& (0+7)	;volatile
  7424                           
  7425                           ;main.c: 153:         beep_short();
  7426  0629  3184  24FD  3186   	fcall	_beep_short
  7427                           
  7428                           ;main.c: 154:     } else {
  7429  062C  2E32               	goto	i1l317
  7430  062D                     __ccov112_end_blk1:
  7431  062D                     __ccov113_start_blk3:
  7432  062D                     i1l1953:
  7433  062D  0020               	movlb	0	; select bank0
  7434  062E  17B2               	bsf	__ccovbit3_34/(0+8),__ccovbit3_34& (0+7)	;volatile
  7435                           
  7436                           ;main.c: 155:         beep_long();
  7437  062F  3185  2549  3186   	fcall	_beep_long
  7438  0632                     __ccov113_end_blk3:
  7439  0632                     __ccov114_start_blk5:
  7440  0632                     i1l317:
  7441  0632  0020               	movlb	0	; select bank0
  7442  0633  1732               	bsf	__ccovbit5_35/(0+8),__ccovbit5_35& (0+7)	;volatile
  7443  0634  0008               	return
  7444  0635                     __end_of_beep_double:
  7445  0635                     
  7446                           	psect	text44
  7447  04FD                     __ptext44:	
  7448 ;; *************** function _beep_short *****************
  7449 ;; Defined at:
  7450 ;;		line 133 in file "main.c"
  7451 ;; Parameters:    Size  Location     Type
  7452 ;;		None
  7453 ;; Auto vars:     Size  Location     Type
  7454 ;;		None
  7455 ;; Return value:  Size  Location     Type
  7456 ;;                  1    wreg      void 
  7457 ;; Registers used:
  7458 ;;		wreg, status,2, status,0, pclath, cstack
  7459 ;; Tracked objects:
  7460 ;;		On entry : 0/0
  7461 ;;		On exit  : 0/0
  7462 ;;		Unchanged: 0/0
  7463 ;; Data sizes:     COMMON   BANK0   BANK1
  7464 ;;      Params:         0       0       0
  7465 ;;      Locals:         0       0       0
  7466 ;;      Temps:          0       0       0
  7467 ;;      Totals:         0       0       0
  7468 ;;Total ram usage:        0 bytes
  7469 ;; Hardware stack levels used: 1
  7470 ;; Hardware stack levels required when called: 1
  7471 ;; This function calls:
  7472 ;;		_start_tone
  7473 ;; This function is called by:
  7474 ;;		_beep_double
  7475 ;;		_ms_200_work
  7476 ;; This function uses a non-reentrant model
  7477 ;;
  7478                           
  7479  04FD                     _beep_short:	
  7480                           ;psect for function _beep_short
  7481                           
  7482                           
  7483                           ;incstack = 0
  7484                           ; Regs used in _beep_short: [wreg+status,2+status,0+pclath+cstack]
  7485  04FD                     i1l1921:
  7486                           
  7487                           ;main.c: 134:     if (!ff.bits.ZUM_BUSY) {
  7488  04FD  197B               	btfsc	_ff+2,2
  7489  04FE  2D00               	goto	u142_21
  7490  04FF  2D01               	goto	u142_20
  7491  0500                     u142_21:
  7492  0500  2D14               	goto	i1l307
  7493  0501                     __ccov97_end_blk0:
  7494  0501                     u142_20:
  7495  0501                     __ccov98_start_blk1:
  7496  0501                     i1l1923:
  7497                           
  7498                           ;main.c: 135:         if (beep_short_count > 0) beep_short_count--;
  7499  0501  087D               	movf	_beep_short_count,w
  7500  0502  1903               	btfsc	3,2
  7501  0503  2D05               	goto	u143_21
  7502  0504  2D06               	goto	u143_20
  7503  0505                     u143_21:
  7504  0505  2D0A               	goto	i1l1927
  7505  0506                     __ccov98_end_blk1:
  7506  0506                     u143_20:
  7507  0506                     __ccov99_start_blk2:
  7508  0506                     i1l1925:
  7509  0506  0020               	movlb	0	; select bank0
  7510  0507  1733               	bsf	__ccovbit2_27/(0+8),__ccovbit2_27& (0+7)	;volatile
  7511  0508  3001               	movlw	1
  7512  0509  02FD               	subwf	_beep_short_count,f
  7513  050A                     __ccov99_end_blk2:
  7514  050A                     __ccov100_start_blk4:
  7515  050A                     i1l1927:
  7516                           
  7517                           ;main.c: 136:         time_tone = SHORT_ZUMMER_DELAY;
  7518  050A  301E               	movlw	30
  7519  050B  0020               	movlb	0	; select bank0
  7520  050C  00C0               	movwf	_time_tone
  7521  050D  3000               	movlw	0
  7522  050E  00C1               	movwf	_time_tone+1
  7523  050F                     __ccov100_end_blk4:
  7524  050F                     __ccov101_start_blk5:
  7525  050F                     i1l1929:
  7526                           
  7527                           ;main.c: 137:         ff.bits.LAST_BEEP_LONG = 0;
  7528  050F  117C               	bcf	_ff+3,2
  7529  0510                     __ccov101_end_blk5:
  7530  0510                     __ccov102_start_blk6:
  7531  0510                     i1l1931:
  7532  0510  16B3               	bsf	__ccovbit6_28/(0+8),__ccovbit6_28& (0+7)	;volatile
  7533                           
  7534                           ;main.c: 138:         start_tone();
  7535  0511  3186  26B8  3184   	fcall	_start_tone
  7536  0514                     __ccov102_end_blk6:
  7537  0514                     __ccov103_start_blk8:
  7538  0514                     i1l307:
  7539  0514  0020               	movlb	0	; select bank0
  7540  0515  1633               	bsf	__ccovbit8_29/(0+8),__ccovbit8_29& (0+7)	;volatile
  7541  0516  0008               	return
  7542  0517                     __end_of_beep_short:
  7543  0517                     
  7544                           	psect	text45
  7545  0549                     __ptext45:	
  7546 ;; *************** function _beep_long *****************
  7547 ;; Defined at:
  7548 ;;		line 142 in file "main.c"
  7549 ;; Parameters:    Size  Location     Type
  7550 ;;		None
  7551 ;; Auto vars:     Size  Location     Type
  7552 ;;		None
  7553 ;; Return value:  Size  Location     Type
  7554 ;;                  1    wreg      void 
  7555 ;; Registers used:
  7556 ;;		wreg, status,2, status,0, pclath, cstack
  7557 ;; Tracked objects:
  7558 ;;		On entry : 0/0
  7559 ;;		On exit  : 0/0
  7560 ;;		Unchanged: 0/0
  7561 ;; Data sizes:     COMMON   BANK0   BANK1
  7562 ;;      Params:         0       0       0
  7563 ;;      Locals:         0       0       0
  7564 ;;      Temps:          0       0       0
  7565 ;;      Totals:         0       0       0
  7566 ;;Total ram usage:        0 bytes
  7567 ;; Hardware stack levels used: 1
  7568 ;; Hardware stack levels required when called: 1
  7569 ;; This function calls:
  7570 ;;		_start_tone
  7571 ;; This function is called by:
  7572 ;;		_beep_double
  7573 ;;		_ms_200_work
  7574 ;; This function uses a non-reentrant model
  7575 ;;
  7576                           
  7577  0549                     _beep_long:	
  7578                           ;psect for function _beep_long
  7579                           
  7580                           
  7581                           ;incstack = 0
  7582                           ; Regs used in _beep_long: [wreg+status,2+status,0+pclath+cstack]
  7583  0549                     i1l1933:
  7584                           
  7585                           ;main.c: 143:     if (!ff.bits.ZUM_BUSY) {
  7586  0549  197B               	btfsc	_ff+2,2
  7587  054A  2D4C               	goto	u144_21
  7588  054B  2D4D               	goto	u144_20
  7589  054C                     u144_21:
  7590  054C  2D5F               	goto	i1l312
  7591  054D                     __ccov104_end_blk0:
  7592  054D                     u144_20:
  7593  054D                     __ccov105_start_blk1:
  7594  054D                     i1l1935:
  7595                           
  7596                           ;main.c: 144:         if (beep_long_count > 0) beep_long_count--;
  7597  054D  0020               	movlb	0	; select bank0
  7598  054E  084F               	movf	_beep_long_count,w
  7599  054F  1903               	btfsc	3,2
  7600  0550  2D52               	goto	u145_21
  7601  0551  2D53               	goto	u145_20
  7602  0552                     u145_21:
  7603  0552  2D56               	goto	i1l1939
  7604  0553                     __ccov105_end_blk1:
  7605  0553                     u145_20:
  7606  0553                     __ccov106_start_blk2:
  7607  0553                     i1l1937:
  7608  0553  15B3               	bsf	__ccovbit2_30/(0+8),__ccovbit2_30& (0+7)	;volatile
  7609  0554  3001               	movlw	1
  7610  0555  02CF               	subwf	_beep_long_count,f
  7611  0556                     __ccov106_end_blk2:
  7612  0556                     __ccov107_start_blk4:
  7613  0556                     i1l1939:
  7614                           
  7615                           ;main.c: 145:         time_tone = LONG_ZUMMER_DELAY;
  7616  0556  3082               	movlw	130
  7617  0557  00C0               	movwf	_time_tone
  7618  0558  3000               	movlw	0
  7619  0559  00C1               	movwf	_time_tone+1
  7620  055A                     __ccov107_end_blk4:
  7621  055A                     __ccov108_start_blk5:
  7622  055A                     i1l1941:
  7623                           
  7624                           ;main.c: 146:         ff.bits.LAST_BEEP_LONG = 1;
  7625  055A  157C               	bsf	_ff+3,2
  7626  055B                     __ccov108_end_blk5:
  7627  055B                     __ccov109_start_blk6:
  7628  055B                     i1l1943:
  7629  055B  1533               	bsf	__ccovbit6_31/(0+8),__ccovbit6_31& (0+7)	;volatile
  7630                           
  7631                           ;main.c: 147:         start_tone();
  7632  055C  3186  26B8  3185   	fcall	_start_tone
  7633  055F                     __ccov109_end_blk6:
  7634  055F                     __ccov110_start_blk8:
  7635  055F                     i1l312:
  7636  055F  0020               	movlb	0	; select bank0
  7637  0560  14B3               	bsf	__ccovbit8_32/(0+8),__ccovbit8_32& (0+7)	;volatile
  7638  0561  0008               	return
  7639  0562                     __end_of_beep_long:
  7640  0562                     
  7641                           	psect	text46
  7642  06B8                     __ptext46:	
  7643 ;; *************** function _start_tone *****************
  7644 ;; Defined at:
  7645 ;;		line 121 in file "main.c"
  7646 ;; Parameters:    Size  Location     Type
  7647 ;;		None
  7648 ;; Auto vars:     Size  Location     Type
  7649 ;;		None
  7650 ;; Return value:  Size  Location     Type
  7651 ;;                  1    wreg      void 
  7652 ;; Registers used:
  7653 ;;		None
  7654 ;; Tracked objects:
  7655 ;;		On entry : 0/0
  7656 ;;		On exit  : 0/0
  7657 ;;		Unchanged: 0/0
  7658 ;; Data sizes:     COMMON   BANK0   BANK1
  7659 ;;      Params:         0       0       0
  7660 ;;      Locals:         0       0       0
  7661 ;;      Temps:          0       0       0
  7662 ;;      Totals:         0       0       0
  7663 ;;Total ram usage:        0 bytes
  7664 ;; Hardware stack levels used: 1
  7665 ;; This function calls:
  7666 ;;		Nothing
  7667 ;; This function is called by:
  7668 ;;		_beep_short
  7669 ;;		_beep_long
  7670 ;; This function uses a non-reentrant model
  7671 ;;
  7672                           
  7673  06B8                     _start_tone:	
  7674                           ;psect for function _start_tone
  7675                           
  7676                           
  7677                           ;incstack = 0
  7678                           ; Regs used in _start_tone: []
  7679  06B8                     i1l1919:
  7680                           
  7681                           ;main.c: 122:     ff.bits.ZUM_BUSY = 1;
  7682  06B8  157B               	bsf	_ff+2,2
  7683                           
  7684                           ;main.c: 123:     ff.bits.TONE_ON = 1;
  7685  06B9  17FA               	bsf	_ff+1,7
  7686                           
  7687                           ;main.c: 124:     ff.bits.TONE_OFF = 0;
  7688  06BA  107B               	bcf	_ff+2,0
  7689  06BB                     __ccov93_end_blk0:
  7690  06BB                     __ccov94_start_blk1:
  7691  06BB                     i1l299:
  7692  06BB  0020               	movlb	0	; select bank0
  7693  06BC  1434               	bsf	__ccovbit1_25/(0+8),__ccovbit1_25& (0+7)	;volatile
  7694  06BD  0008               	return
  7695  06BE                     __end_of_start_tone:
  7696  06BE                     
  7697                           	psect	text47
  7698  0667                     __ptext47:	
  7699 ;; *************** function _ms_100_work *****************
  7700 ;; Defined at:
  7701 ;;		line 521 in file "main.c"
  7702 ;; Parameters:    Size  Location     Type
  7703 ;;		None
  7704 ;; Auto vars:     Size  Location     Type
  7705 ;;		None
  7706 ;; Return value:  Size  Location     Type
  7707 ;;                  1    wreg      void 
  7708 ;; Registers used:
  7709 ;;		None
  7710 ;; Tracked objects:
  7711 ;;		On entry : 0/0
  7712 ;;		On exit  : 0/0
  7713 ;;		Unchanged: 0/0
  7714 ;; Data sizes:     COMMON   BANK0   BANK1
  7715 ;;      Params:         0       0       0
  7716 ;;      Locals:         0       0       0
  7717 ;;      Temps:          0       0       0
  7718 ;;      Totals:         0       0       0
  7719 ;;Total ram usage:        0 bytes
  7720 ;; Hardware stack levels used: 1
  7721 ;; This function calls:
  7722 ;;		Nothing
  7723 ;; This function is called by:
  7724 ;;		_ms_tick
  7725 ;; This function uses a non-reentrant model
  7726 ;;
  7727                           
  7728  0667                     _ms_100_work:	
  7729                           ;psect for function _ms_100_work
  7730                           
  7731                           
  7732                           ;incstack = 0
  7733                           ; Regs used in _ms_100_work: []
  7734  0667                     i1l2145:
  7735                           
  7736                           ;main.c: 522:     if (ff.bits.NORMAL_WORK_MODE_ON || ff.bits.UNIVERSAL_VORK_MODE_ON) {
  7737  0667  1A7B               	btfsc	_ff+2,4
  7738  0668  2E6A               	goto	u185_21
  7739  0669  2E6B               	goto	u185_20
  7740  066A                     u185_21:
  7741  066A  2E71               	goto	i1l448
  7742  066B                     __ccov282_end_blk0:
  7743  066B                     u185_20:
  7744  066B                     __ccov283_start_blk1:
  7745  066B                     i1l2147:
  7746  066B  0020               	movlb	0	; select bank0
  7747  066C  1425               	bsf	__ccovbit1_145/(0+8),__ccovbit1_145& (0+7)	;volatile
  7748  066D  1EFB               	btfss	_ff+2,5
  7749  066E  2E70               	goto	u186_21
  7750  066F  2E71               	goto	u186_20
  7751  0670                     u186_21:
  7752  0670  2E74               	goto	i1l449
  7753  0671                     __ccov283_end_blk1:
  7754  0671                     u186_20:
  7755  0671                     __ccov284_start_blk2:
  7756  0671                     i1l448:
  7757  0671  0020               	movlb	0	; select bank0
  7758  0672  17A4               	bsf	__ccovbit2_146/(0+8),__ccovbit2_146& (0+7)	;volatile
  7759                           
  7760                           ;main.c: 523:         ff.bits.ALLOW_MEASURE = 1;
  7761  0673  1679               	bsf	_ff,4
  7762  0674                     __ccov284_end_blk2:
  7763  0674                     __ccov285_start_blk4:
  7764  0674                     i1l449:
  7765  0674  1724               	bsf	__ccovbit4_147/(0+8),__ccovbit4_147& (0+7)	;volatile
  7766  0675  0008               	return
  7767  0676                     __end_of_ms_100_work:
  7768  0676                     
  7769                           	psect	text48
  7770  0635                     __ptext48:	
  7771 ;; *************** function _TMR0_ISR *****************
  7772 ;; Defined at:
  7773 ;;		line 108 in file "mcc_generated_files/tmr0.c"
  7774 ;; Parameters:    Size  Location     Type
  7775 ;;		None
  7776 ;; Auto vars:     Size  Location     Type
  7777 ;;		None
  7778 ;; Return value:  Size  Location     Type
  7779 ;;                  1    wreg      void 
  7780 ;; Registers used:
  7781 ;;		wreg, status,2, status,0, pclath, cstack
  7782 ;; Tracked objects:
  7783 ;;		On entry : 0/0
  7784 ;;		On exit  : 0/0
  7785 ;;		Unchanged: 0/0
  7786 ;; Data sizes:     COMMON   BANK0   BANK1
  7787 ;;      Params:         0       0       0
  7788 ;;      Locals:         0       0       0
  7789 ;;      Temps:          0       0       0
  7790 ;;      Totals:         0       0       0
  7791 ;;Total ram usage:        0 bytes
  7792 ;; Hardware stack levels used: 1
  7793 ;; Hardware stack levels required when called: 1
  7794 ;; This function calls:
  7795 ;;		Absolute function
  7796 ;;		_TMR0_DefaultInterruptHandler
  7797 ;;		_zummer_switch
  7798 ;; This function is called by:
  7799 ;;		_INTERRUPT_InterruptManager
  7800 ;; This function uses a non-reentrant model
  7801 ;;
  7802                           
  7803  0635                     _TMR0_ISR:	
  7804                           ;psect for function _TMR0_ISR
  7805                           
  7806                           
  7807                           ;incstack = 0
  7808                           ; Regs used in _TMR0_ISR: [wreg+status,2+status,0+pclath+cstack]
  7809  0635                     i1l2257:
  7810                           
  7811                           ;mcc_generated_files/tmr0.c: 112:     INTCONbits.TMR0IF = 0;
  7812  0635  110B               	bcf	11,2	;volatile
  7813  0636                     __ccov85_end_blk0:
  7814  0636                     __ccov86_start_blk1:
  7815  0636                     i1l2259:
  7816                           
  7817                           ;mcc_generated_files/tmr0.c: 114:     TMR0 = timer0ReloadVal;
  7818  0636  0020               	movlb	0	; select bank0
  7819  0637  0858               	movf	_timer0ReloadVal,w	;volatile
  7820  0638  0095               	movwf	21	;volatile
  7821  0639                     __ccov86_end_blk1:
  7822  0639                     __ccov87_start_blk2:
  7823  0639                     i1l2261:
  7824                           
  7825                           ;mcc_generated_files/tmr0.c: 116:     if(TMR0_InterruptHandler)
  7826  0639  0854               	movf	_TMR0_InterruptHandler,w
  7827  063A  0455               	iorwf	_TMR0_InterruptHandler+1,w
  7828  063B  1903               	btfsc	3,2
  7829  063C  2E3E               	goto	u210_21
  7830  063D  2E3F               	goto	u210_20
  7831  063E                     u210_21:
  7832  063E  2E45               	goto	i1l190
  7833  063F                     __ccov87_end_blk2:
  7834  063F                     u210_20:
  7835  063F                     __ccov88_start_blk3:
  7836  063F                     i1l2263:
  7837  063F  1570               	bsf	__ccovbit3_21/(0+8),__ccovbit3_21& (0+7)	;volatile
  7838                           
  7839                           ;mcc_generated_files/tmr0.c: 117:     {;mcc_generated_files/tmr0.c: 118:         TMR0_In
      +                          terruptHandler();
  7840  0640  0855               	movf	_TMR0_InterruptHandler+1,w
  7841  0641  008A               	movwf	10
  7842  0642  0854               	movf	_TMR0_InterruptHandler,w
  7843  0643  000A               	callw
  7844  0644  3186               	pagesel	$
  7845  0645                     __ccov88_end_blk3:
  7846  0645                     __ccov89_start_blk5:
  7847  0645                     i1l190:
  7848  0645  14F0               	bsf	__ccovbit5_22/(0+8),__ccovbit5_22& (0+7)	;volatile
  7849  0646  0008               	return
  7850  0647                     __end_of_TMR0_ISR:
  7851  0647                     
  7852                           	psect	text49
  7853  06CF                     __ptext49:	
  7854 ;; *************** function _TMR0_DefaultInterruptHandler *****************
  7855 ;; Defined at:
  7856 ;;		line 129 in file "mcc_generated_files/tmr0.c"
  7857 ;; Parameters:    Size  Location     Type
  7858 ;;		None
  7859 ;; Auto vars:     Size  Location     Type
  7860 ;;		None
  7861 ;; Return value:  Size  Location     Type
  7862 ;;                  1    wreg      void 
  7863 ;; Registers used:
  7864 ;;		None
  7865 ;; Tracked objects:
  7866 ;;		On entry : 0/0
  7867 ;;		On exit  : 0/0
  7868 ;;		Unchanged: 0/0
  7869 ;; Data sizes:     COMMON   BANK0   BANK1
  7870 ;;      Params:         0       0       0
  7871 ;;      Locals:         0       0       0
  7872 ;;      Temps:          0       0       0
  7873 ;;      Totals:         0       0       0
  7874 ;;Total ram usage:        0 bytes
  7875 ;; Hardware stack levels used: 1
  7876 ;; This function calls:
  7877 ;;		Nothing
  7878 ;; This function is called by:
  7879 ;;		_TMR0_Initialize
  7880 ;;		_TMR0_ISR
  7881 ;; This function uses a non-reentrant model
  7882 ;;
  7883                           
  7884  06CF                     _TMR0_DefaultInterruptHandler:	
  7885                           ;psect for function _TMR0_DefaultInterruptHandler
  7886                           
  7887                           
  7888                           ;incstack = 0
  7889                           ; Regs used in _TMR0_DefaultInterruptHandler: []
  7890  06CF                     i1l196:
  7891  06CF  0020               	movlb	0	; select bank0
  7892  06D0  14B4               	bsf	__ccovbit0_24/(0+8),__ccovbit0_24& (0+7)	;volatile
  7893  06D1  0008               	return
  7894  06D2                     __end_of_TMR0_DefaultInterruptHandler:
  7895  06D2                     
  7896                           	psect	text50
  7897  0676                     __ptext50:	
  7898 ;; *************** function _zummer_switch *****************
  7899 ;; Defined at:
  7900 ;;		line 588 in file "main.c"
  7901 ;; Parameters:    Size  Location     Type
  7902 ;;		None
  7903 ;; Auto vars:     Size  Location     Type
  7904 ;;		None
  7905 ;; Return value:  Size  Location     Type
  7906 ;;                  1    wreg      void 
  7907 ;; Registers used:
  7908 ;;		status,0
  7909 ;; Tracked objects:
  7910 ;;		On entry : 0/0
  7911 ;;		On exit  : 0/0
  7912 ;;		Unchanged: 0/0
  7913 ;; Data sizes:     COMMON   BANK0   BANK1
  7914 ;;      Params:         0       0       0
  7915 ;;      Locals:         0       0       0
  7916 ;;      Temps:          0       0       0
  7917 ;;      Totals:         0       0       0
  7918 ;;Total ram usage:        0 bytes
  7919 ;; Hardware stack levels used: 1
  7920 ;; This function calls:
  7921 ;;		Nothing
  7922 ;; This function is called by:
  7923 ;;		_start_setup
  7924 ;;		_TMR0_ISR
  7925 ;; This function uses a non-reentrant model
  7926 ;;
  7927                           
  7928  0676                     _zummer_switch:	
  7929                           ;psect for function _zummer_switch
  7930                           
  7931  0676                     i1l475:	
  7932                           ;incstack = 0
  7933                           ; Regs used in _zummer_switch: [status,0]
  7934                           ;main.c: 593:     do { LATAbits.LATA5 = ~LATAbits.LATA5; } while(0);
  7935                           
  7936  0676                     i1l2255:
  7937  0676  1003               	clrc
  7938  0677  0022               	movlb	2	; select bank2
  7939  0678  1E8C               	btfss	12,5	;volatile
  7940  0679  1403               	setc
  7941  067A  1803               	btfsc	3,0
  7942  067B  2E7D               	goto	u208_21
  7943  067C  2E80               	goto	u208_20
  7944  067D                     u208_21:
  7945  067D  0022               	movlb	2	; select bank2
  7946  067E  168C               	bsf	12,5	;volatile
  7947  067F  2E82               	goto	u209_24
  7948  0680                     u208_20:
  7949  0680  0022               	movlb	2	; select bank2
  7950  0681  128C               	bcf	12,5	;volatile
  7951  0682                     __ccov312_end_blk1:
  7952  0682                     u209_24:
  7953  0682                     __ccov313_start_blk3:
  7954  0682                     i1l477:
  7955  0682  0020               	movlb	0	; select bank0
  7956  0683  15A3               	bsf	__ccovbit3_158/(0+8),__ccovbit3_158& (0+7)	;volatile
  7957  0684  0008               	return
  7958  0685                     __end_of_zummer_switch:
  7959  0685                     
  7960                           	psect	codecov_info_hdr
  7961  0000                     __pcodecov_info_hdr:	
  7962                           ;
  7963                           ; Code-coverage Info Header
  7964                           ;
  7965                           
  7966  0000  0010               	db	16	; SIZE
  7967  0001  00000001           	ddw	1	; VERSION
  7968  0005  0001               	db	1	; POINTSIZE
  7969  0006  0008               	db	8	; UNITSIZE
  7970  0007  0001               	db	1	; FLAGS=SET
  7971  0008  00000000           	ddw	0	; Reserved
  7972  000C  00000000           	ddw	0	; Reserved
  7973                           
  7974                           	psect	codecov_info
  7975  0000                     __pcodecov_info:	
  7976                           ;
  7977                           ; Code-coverage Info
  7978                           ;
  7979                           
  7980                           
  7981                           ; Function: SYSTEM_Initialize, coverage: 1,0
  7982  0000  00000000           	ddw	0	; CC_ADDR_SPACE=Data
  7983  0004  00000072           	ddw	__ccovbit1_1/(0+8)	; CC_ADDR
  7984  0008  00000001           	ddw	1	; NUM_POINTS
  7985  000C  00000006           	ddw	__ccovbit1_1& (0+7)	; OFFSET
  7986  0010  00000000           	ddw	0	; Reserved
  7987  0014  FFFFFFFF           	ddw	4294967295	; RANGE_SPACE=restricted
  7988  0018  00000002           	ddw	2	; NUM_RANGES
  7989  001C  000005FC           	ddw	__ccov2_start_blk1	; block 1 START_ADDR
  7990  0020  000005FE           	ddw	__end_of_SYSTEM_Initialize	; block 1 END_ADDR
  7991  0024  000005EA           	ddw	_SYSTEM_Initialize	; block 0 START_ADDR
  7992  0028  000005FC           	ddw	__ccov1_end_blk0	; block 0 END_ADDR
  7993                           
  7994                           ; Function: OSCILLATOR_Initialize, coverage: 3,2,1,0
  7995  002C  00000000           	ddw	0	; CC_ADDR_SPACE=Data
  7996  0030  00000072           	ddw	__ccovbit3_2/(0+8)	; CC_ADDR
  7997  0034  00000001           	ddw	1	; NUM_POINTS
  7998  0038  00000005           	ddw	__ccovbit3_2& (0+7)	; OFFSET
  7999  003C  00000000           	ddw	0	; Reserved
  8000  0040  FFFFFFFF           	ddw	4294967295	; RANGE_SPACE=restricted
  8001  0044  00000004           	ddw	4	; NUM_RANGES
  8002  0048  00000694           	ddw	__ccov6_start_blk3	; block 3 START_ADDR
  8003  004C  00000696           	ddw	__end_of_OSCILLATOR_Initialize	; block 3 END_ADDR
  8004  0050  00000692           	ddw	__ccov5_start_blk2	; block 2 START_ADDR
  8005  0054  00000694           	ddw	__ccov5_end_blk2	; block 2 END_ADDR
  8006  0058  00000691           	ddw	__ccov4_start_blk1	; block 1 START_ADDR
  8007  005C  00000692           	ddw	__ccov4_end_blk1	; block 1 END_ADDR
  8008  0060  0000068E           	ddw	_OSCILLATOR_Initialize	; block 0 START_ADDR
  8009  0064  00000691           	ddw	__ccov3_end_blk0	; block 0 END_ADDR
  8010                           
  8011                           ; Function: WDT_Initialize, coverage: 1,0
  8012  0068  00000000           	ddw	0	; CC_ADDR_SPACE=Data
  8013  006C  00000072           	ddw	__ccovbit1_3/(0+8)	; CC_ADDR
  8014  0070  00000001           	ddw	1	; NUM_POINTS
  8015  0074  00000004           	ddw	__ccovbit1_3& (0+7)	; OFFSET
  8016  0078  00000000           	ddw	0	; Reserved
  8017  007C  FFFFFFFF           	ddw	4294967295	; RANGE_SPACE=restricted
  8018  0080  00000002           	ddw	2	; NUM_RANGES
  8019  0084  000006C1           	ddw	__ccov8_start_blk1	; block 1 START_ADDR
  8020  0088  000006C3           	ddw	__end_of_WDT_Initialize	; block 1 END_ADDR
  8021  008C  000006BE           	ddw	_WDT_Initialize	; block 0 START_ADDR
  8022  0090  000006C1           	ddw	__ccov7_end_blk0	; block 0 END_ADDR
  8023                           
  8024                           ; Function: ADC_Initialize, coverage: 3,2,1,0
  8025  0094  00000000           	ddw	0	; CC_ADDR_SPACE=Data
  8026  0098  00000072           	ddw	__ccovbit3_4/(0+8)	; CC_ADDR
  8027  009C  00000001           	ddw	1	; NUM_POINTS
  8028  00A0  00000003           	ddw	__ccovbit3_4& (0+7)	; OFFSET
  8029  00A4  00000000           	ddw	0	; Reserved
  8030  00A8  FFFFFFFF           	ddw	4294967295	; RANGE_SPACE=restricted
  8031  00AC  00000004           	ddw	4	; NUM_RANGES
  8032  00B0  0000068C           	ddw	__ccov12_start_blk3	; block 3 START_ADDR
  8033  00B4  0000068E           	ddw	__end_of_ADC_Initialize	; block 3 END_ADDR
  8034  00B8  00000689           	ddw	__ccov11_start_blk2	; block 2 START_ADDR
  8035  00BC  0000068C           	ddw	__ccov11_end_blk2	; block 2 END_ADDR
  8036  00C0  00000688           	ddw	__ccov10_start_blk1	; block 1 START_ADDR
  8037  00C4  00000689           	ddw	__ccov10_end_blk1	; block 1 END_ADDR
  8038  00C8  00000685           	ddw	_ADC_Initialize	; block 0 START_ADDR
  8039  00CC  00000688           	ddw	__ccov9_end_blk0	; block 0 END_ADDR
  8040                           
  8041                           ; Function: ADC_GetConversion, coverage: 9,7,5,3,2,1,0
  8042  00D0  00000000           	ddw	0	; CC_ADDR_SPACE=Data
  8043  00D4  00000072           	ddw	__ccovbit9_5/(0+8)	; CC_ADDR
  8044  00D8  00000001           	ddw	1	; NUM_POINTS
  8045  00DC  00000002           	ddw	__ccovbit9_5& (0+7)	; OFFSET
  8046  00E0  00000000           	ddw	0	; Reserved
  8047  00E4  FFFFFFFF           	ddw	4294967295	; RANGE_SPACE=restricted
  8048  00E8  00000007           	ddw	7	; NUM_RANGES
  8049  00EC  00000547           	ddw	__ccov28_start_blk9	; block 9 START_ADDR
  8050  00F0  00000549           	ddw	__end_of_ADC_GetConversion	; block 9 END_ADDR
  8051  00F4  00000546           	ddw	__ccov27_start_blk7	; block 7 START_ADDR
  8052  00F8  00000547           	ddw	__ccov27_end_blk7	; block 7 END_ADDR
  8053  00FC  00000542           	ddw	__ccov26_start_blk5	; block 5 START_ADDR
  8054  0100  00000546           	ddw	__ccov26_end_blk5	; block 5 END_ADDR
  8055  0104  00000540           	ddw	__ccov25_start_blk3	; block 3 START_ADDR
  8056  0108  00000542           	ddw	__ccov25_end_blk3	; block 3 END_ADDR
  8057  010C  0000053C           	ddw	__ccov24_start_blk2	; block 2 START_ADDR
  8058  0110  00000540           	ddw	__ccov24_end_blk2	; block 2 END_ADDR
  8059  0114  0000053B           	ddw	__ccov23_start_blk1	; block 1 START_ADDR
  8060  0118  0000053C           	ddw	__ccov23_end_blk1	; block 1 END_ADDR
  8061  011C  00000530           	ddw	_ADC_GetConversion	; block 0 START_ADDR
  8062  0120  0000053B           	ddw	__ccov22_end_blk0	; block 0 END_ADDR
  8063                           
  8064                           ; Function: PIN_MANAGER_Initialize, coverage: 6,5,4,3,2,1,0
  8065  0124  00000000           	ddw	0	; CC_ADDR_SPACE=Data
  8066  0128  00000072           	ddw	__ccovbit6_6/(0+8)	; CC_ADDR
  8067  012C  00000001           	ddw	1	; NUM_POINTS
  8068  0130  00000001           	ddw	__ccovbit6_6& (0+7)	; OFFSET
  8069  0134  00000000           	ddw	0	; Reserved
  8070  0138  FFFFFFFF           	ddw	4294967295	; RANGE_SPACE=restricted
  8071  013C  00000007           	ddw	7	; NUM_RANGES
  8072  0140  000005D3           	ddw	__ccov37_start_blk6	; block 6 START_ADDR
  8073  0144  000005D5           	ddw	__end_of_PIN_MANAGER_Initialize	; block 6 END_ADDR
  8074  0148  000005CF           	ddw	__ccov36_start_blk5	; block 5 START_ADDR
  8075  014C  000005D3           	ddw	__ccov36_end_blk5	; block 5 END_ADDR
  8076  0150  000005CA           	ddw	__ccov35_start_blk4	; block 4 START_ADDR
  8077  0154  000005CF           	ddw	__ccov35_end_blk4	; block 4 END_ADDR
  8078  0158  000005C7           	ddw	__ccov34_start_blk3	; block 3 START_ADDR
  8079  015C  000005CA           	ddw	__ccov34_end_blk3	; block 3 END_ADDR
  8080  0160  000005C5           	ddw	__ccov33_start_blk2	; block 2 START_ADDR
  8081  0164  000005C7           	ddw	__ccov33_end_blk2	; block 2 END_ADDR
  8082  0168  000005C2           	ddw	__ccov32_start_blk1	; block 1 START_ADDR
  8083  016C  000005C5           	ddw	__ccov32_end_blk1	; block 1 END_ADDR
  8084  0170  000005BF           	ddw	_PIN_MANAGER_Initialize	; block 0 START_ADDR
  8085  0174  000005C2           	ddw	__ccov31_end_blk0	; block 0 END_ADDR
  8086                           
  8087                           ; Function: INTERRUPT_InterruptManager, coverage: 1,0
  8088  0178  00000000           	ddw	0	; CC_ADDR_SPACE=Data
  8089  017C  00000072           	ddw	__ccovbit1_7/(0+8)	; CC_ADDR
  8090  0180  00000001           	ddw	1	; NUM_POINTS
  8091  0184  00000000           	ddw	__ccovbit1_7& (0+7)	; OFFSET
  8092  0188  00000000           	ddw	0	; Reserved
  8093  018C  FFFFFFFF           	ddw	4294967295	; RANGE_SPACE=restricted
  8094  0190  00000002           	ddw	2	; NUM_RANGES
  8095  0194  0000000A           	ddw	__ccov40_start_blk1	; block 1 START_ADDR
  8096  0198  0000000F           	ddw	__ccov40_end_blk1	; block 1 END_ADDR
  8097  019C  00000004           	ddw	_INTERRUPT_InterruptManager	; block 0 START_ADDR
  8098  01A0  0000000A           	ddw	__ccov39_end_blk0	; block 0 END_ADDR
  8099                           
  8100                           ; Function: INTERRUPT_InterruptManager, coverage: 2,1,0
  8101  01A4  00000000           	ddw	0	; CC_ADDR_SPACE=Data
  8102  01A8  00000071           	ddw	__ccovbit2_8/(0+8)	; CC_ADDR
  8103  01AC  00000001           	ddw	1	; NUM_POINTS
  8104  01B0  00000007           	ddw	__ccovbit2_8& (0+7)	; OFFSET
  8105  01B4  00000000           	ddw	0	; Reserved
  8106  01B8  FFFFFFFF           	ddw	4294967295	; RANGE_SPACE=restricted
  8107  01BC  00000003           	ddw	3	; NUM_RANGES
  8108  01C0  0000000F           	ddw	__ccov41_start_blk2	; block 2 START_ADDR
  8109  01C4  00000014           	ddw	__ccov41_end_blk2	; block 2 END_ADDR
  8110  01C8  0000000A           	ddw	__ccov40_start_blk1	; block 1 START_ADDR
  8111  01CC  0000000F           	ddw	__ccov40_end_blk1	; block 1 END_ADDR
  8112  01D0  00000004           	ddw	_INTERRUPT_InterruptManager	; block 0 START_ADDR
  8113  01D4  0000000A           	ddw	__ccov39_end_blk0	; block 0 END_ADDR
  8114                           
  8115                           ; Function: INTERRUPT_InterruptManager, coverage: 3,0
  8116  01D8  00000000           	ddw	0	; CC_ADDR_SPACE=Data
  8117  01DC  00000071           	ddw	__ccovbit3_9/(0+8)	; CC_ADDR
  8118  01E0  00000001           	ddw	1	; NUM_POINTS
  8119  01E4  00000006           	ddw	__ccovbit3_9& (0+7)	; OFFSET
  8120  01E8  00000000           	ddw	0	; Reserved
  8121  01EC  FFFFFFFF           	ddw	4294967295	; RANGE_SPACE=restricted
  8122  01F0  00000002           	ddw	2	; NUM_RANGES
  8123  01F4  00000014           	ddw	__ccov42_start_blk3	; block 3 START_ADDR
  8124  01F8  00000019           	ddw	__ccov42_end_blk3	; block 3 END_ADDR
  8125  01FC  00000004           	ddw	_INTERRUPT_InterruptManager	; block 0 START_ADDR
  8126  0200  0000000A           	ddw	__ccov39_end_blk0	; block 0 END_ADDR
  8127                           
  8128                           ; Function: INTERRUPT_InterruptManager, coverage: 5,4,3,0
  8129  0204  00000000           	ddw	0	; CC_ADDR_SPACE=Data
  8130  0208  00000071           	ddw	__ccovbit5_10/(0+8)	; CC_ADDR
  8131  020C  00000001           	ddw	1	; NUM_POINTS
  8132  0210  00000005           	ddw	__ccovbit5_10& (0+7)	; OFFSET
  8133  0214  00000000           	ddw	0	; Reserved
  8134  0218  FFFFFFFF           	ddw	4294967295	; RANGE_SPACE=restricted
  8135  021C  00000004           	ddw	4	; NUM_RANGES
  8136  0220  0000001E           	ddw	__ccov44_start_blk5	; block 5 START_ADDR
  8137  0224  00000024           	ddw	__ccov44_end_blk5	; block 5 END_ADDR
  8138  0228  00000019           	ddw	__ccov43_start_blk4	; block 4 START_ADDR
  8139  022C  0000001E           	ddw	__ccov43_end_blk4	; block 4 END_ADDR
  8140  0230  00000014           	ddw	__ccov42_start_blk3	; block 3 START_ADDR
  8141  0234  00000019           	ddw	__ccov42_end_blk3	; block 3 END_ADDR
  8142  0238  00000004           	ddw	_INTERRUPT_InterruptManager	; block 0 START_ADDR
  8143  023C  0000000A           	ddw	__ccov39_end_blk0	; block 0 END_ADDR
  8144                           
  8145                           ; Function: INTERRUPT_InterruptManager, coverage: 6,5,4,3,0
  8146  0240  00000000           	ddw	0	; CC_ADDR_SPACE=Data
  8147  0244  00000071           	ddw	__ccovbit6_11/(0+8)	; CC_ADDR
  8148  0248  00000001           	ddw	1	; NUM_POINTS
  8149  024C  00000004           	ddw	__ccovbit6_11& (0+7)	; OFFSET
  8150  0250  00000000           	ddw	0	; Reserved
  8151  0254  FFFFFFFF           	ddw	4294967295	; RANGE_SPACE=restricted
  8152  0258  00000005           	ddw	5	; NUM_RANGES
  8153  025C  00000024           	ddw	__ccov45_start_blk6	; block 6 START_ADDR
  8154  0260  00000029           	ddw	__ccov45_end_blk6	; block 6 END_ADDR
  8155  0264  0000001E           	ddw	__ccov44_start_blk5	; block 5 START_ADDR
  8156  0268  00000024           	ddw	__ccov44_end_blk5	; block 5 END_ADDR
  8157  026C  00000019           	ddw	__ccov43_start_blk4	; block 4 START_ADDR
  8158  0270  0000001E           	ddw	__ccov43_end_blk4	; block 4 END_ADDR
  8159  0274  00000014           	ddw	__ccov42_start_blk3	; block 3 START_ADDR
  8160  0278  00000019           	ddw	__ccov42_end_blk3	; block 3 END_ADDR
  8161  027C  00000004           	ddw	_INTERRUPT_InterruptManager	; block 0 START_ADDR
  8162  0280  0000000A           	ddw	__ccov39_end_blk0	; block 0 END_ADDR
  8163                           
  8164                           ; Function: INTERRUPT_InterruptManager, coverage: 10,4,3,0
  8165  0284  00000000           	ddw	0	; CC_ADDR_SPACE=Data
  8166  0288  00000071           	ddw	__ccovbit10_12/(0+8)	; CC_ADDR
  8167  028C  00000001           	ddw	1	; NUM_POINTS
  8168  0290  00000003           	ddw	__ccovbit10_12& (0+7)	; OFFSET
  8169  0294  00000000           	ddw	0	; Reserved
  8170  0298  FFFFFFFF           	ddw	4294967295	; RANGE_SPACE=restricted
  8171  029C  00000004           	ddw	4	; NUM_RANGES
  8172  02A0  00000029           	ddw	__ccov46_start_blk10	; block 10 START_ADDR
  8173  02A4  0000002A           	ddw	__ccov46_end_blk10	; block 10 END_ADDR
  8174  02A8  00000019           	ddw	__ccov43_start_blk4	; block 4 START_ADDR
  8175  02AC  0000001E           	ddw	__ccov43_end_blk4	; block 4 END_ADDR
  8176  02B0  00000014           	ddw	__ccov42_start_blk3	; block 3 START_ADDR
  8177  02B4  00000019           	ddw	__ccov42_end_blk3	; block 3 END_ADDR
  8178  02B8  00000004           	ddw	_INTERRUPT_InterruptManager	; block 0 START_ADDR
  8179  02BC  0000000A           	ddw	__ccov39_end_blk0	; block 0 END_ADDR
  8180                           
  8181                           ; Function: INTERRUPT_InterruptManager, coverage: 12,0
  8182  02C0  00000000           	ddw	0	; CC_ADDR_SPACE=Data
  8183  02C4  00000071           	ddw	__ccovbit12_13/(0+8)	; CC_ADDR
  8184  02C8  00000001           	ddw	1	; NUM_POINTS
  8185  02CC  00000002           	ddw	__ccovbit12_13& (0+7)	; OFFSET
  8186  02D0  00000000           	ddw	0	; Reserved
  8187  02D4  FFFFFFFF           	ddw	4294967295	; RANGE_SPACE=restricted
  8188  02D8  00000002           	ddw	2	; NUM_RANGES
  8189  02DC  0000002A           	ddw	__ccov47_start_blk12	; block 12 START_ADDR
  8190  02E0  0000002D           	ddw	__end_of_INTERRUPT_InterruptManager	; block 12 END_ADDR
  8191  02E4  00000004           	ddw	_INTERRUPT_InterruptManager	; block 0 START_ADDR
  8192  02E8  0000000A           	ddw	__ccov39_end_blk0	; block 0 END_ADDR
  8193                           
  8194                           ; Function: TMR2_Initialize, coverage: 6,5,4,3,2,1,0
  8195  02EC  00000000           	ddw	0	; CC_ADDR_SPACE=Data
  8196  02F0  00000071           	ddw	__ccovbit6_14/(0+8)	; CC_ADDR
  8197  02F4  00000001           	ddw	1	; NUM_POINTS
  8198  02F8  00000001           	ddw	__ccovbit6_14& (0+7)	; OFFSET
  8199  02FC  00000000           	ddw	0	; Reserved
  8200  0300  FFFFFFFF           	ddw	4294967295	; RANGE_SPACE=restricted
  8201  0304  00000007           	ddw	7	; NUM_RANGES
  8202  0308  0000060F           	ddw	__ccov54_start_blk6	; block 6 START_ADDR
  8203  030C  00000611           	ddw	__end_of_TMR2_Initialize	; block 6 END_ADDR
  8204  0310  0000060C           	ddw	__ccov53_start_blk5	; block 5 START_ADDR
  8205  0314  0000060F           	ddw	__ccov53_end_blk5	; block 5 END_ADDR
  8206  0318  00000605           	ddw	__ccov52_start_blk4	; block 4 START_ADDR
  8207  031C  0000060C           	ddw	__ccov52_end_blk4	; block 4 END_ADDR
  8208  0320  00000603           	ddw	__ccov51_start_blk3	; block 3 START_ADDR
  8209  0324  00000605           	ddw	__ccov51_end_blk3	; block 3 END_ADDR
  8210  0328  00000602           	ddw	__ccov50_start_blk2	; block 2 START_ADDR
  8211  032C  00000603           	ddw	__ccov50_end_blk2	; block 2 END_ADDR
  8212  0330  00000601           	ddw	__ccov49_start_blk1	; block 1 START_ADDR
  8213  0334  00000602           	ddw	__ccov49_end_blk1	; block 1 END_ADDR
  8214  0338  000005FE           	ddw	_TMR2_Initialize	; block 0 START_ADDR
  8215  033C  00000601           	ddw	__ccov48_end_blk0	; block 0 END_ADDR
  8216                           
  8217                           ; Function: TMR2_StartTimer, coverage: 1,0
  8218  0340  00000000           	ddw	0	; CC_ADDR_SPACE=Data
  8219  0344  00000071           	ddw	__ccovbit1_15/(0+8)	; CC_ADDR
  8220  0348  00000001           	ddw	1	; NUM_POINTS
  8221  034C  00000000           	ddw	__ccovbit1_15& (0+7)	; OFFSET
  8222  0350  00000000           	ddw	0	; Reserved
  8223  0354  FFFFFFFF           	ddw	4294967295	; RANGE_SPACE=restricted
  8224  0358  00000002           	ddw	2	; NUM_RANGES
  8225  035C  000006CA           	ddw	__ccov56_start_blk1	; block 1 START_ADDR
  8226  0360  000006CC           	ddw	__end_of_TMR2_StartTimer	; block 1 END_ADDR
  8227  0364  000006C8           	ddw	_TMR2_StartTimer	; block 0 START_ADDR
  8228  0368  000006CA           	ddw	__ccov55_end_blk0	; block 0 END_ADDR
  8229                           
  8230                           ; Function: TMR2_ISR, coverage: 2,1,0
  8231  036C  00000000           	ddw	0	; CC_ADDR_SPACE=Data
  8232  0370  00000070           	ddw	__ccovbit2_16/(0+8)	; CC_ADDR
  8233  0374  00000001           	ddw	1	; NUM_POINTS
  8234  0378  00000007           	ddw	__ccovbit2_16& (0+7)	; OFFSET
  8235  037C  00000000           	ddw	0	; Reserved
  8236  0380  FFFFFFFF           	ddw	4294967295	; RANGE_SPACE=restricted
  8237  0384  00000003           	ddw	3	; NUM_RANGES
  8238  0388  0000064F           	ddw	__ccov67_start_blk2	; block 2 START_ADDR
  8239  038C  00000655           	ddw	__ccov67_end_blk2	; block 2 END_ADDR
  8240  0390  00000649           	ddw	__ccov66_start_blk1	; block 1 START_ADDR
  8241  0394  0000064F           	ddw	__ccov66_end_blk1	; block 1 END_ADDR
  8242  0398  00000647           	ddw	_TMR2_ISR	; block 0 START_ADDR
  8243  039C  00000649           	ddw	__ccov65_end_blk0	; block 0 END_ADDR
  8244                           
  8245                           ; Function: TMR2_ISR, coverage: 4,1,0
  8246  03A0  00000000           	ddw	0	; CC_ADDR_SPACE=Data
  8247  03A4  00000070           	ddw	__ccovbit4_17/(0+8)	; CC_ADDR
  8248  03A8  00000001           	ddw	1	; NUM_POINTS
  8249  03AC  00000006           	ddw	__ccovbit4_17& (0+7)	; OFFSET
  8250  03B0  00000000           	ddw	0	; Reserved
  8251  03B4  FFFFFFFF           	ddw	4294967295	; RANGE_SPACE=restricted
  8252  03B8  00000003           	ddw	3	; NUM_RANGES
  8253  03BC  00000655           	ddw	__ccov68_start_blk4	; block 4 START_ADDR
  8254  03C0  00000657           	ddw	__end_of_TMR2_ISR	; block 4 END_ADDR
  8255  03C4  00000649           	ddw	__ccov66_start_blk1	; block 1 START_ADDR
  8256  03C8  0000064F           	ddw	__ccov66_end_blk1	; block 1 END_ADDR
  8257  03CC  00000647           	ddw	_TMR2_ISR	; block 0 START_ADDR
  8258  03D0  00000649           	ddw	__ccov65_end_blk0	; block 0 END_ADDR
  8259                           
  8260                           ; Function: TMR2_SetInterruptHandler, coverage: 1,0
  8261  03D4  00000000           	ddw	0	; CC_ADDR_SPACE=Data
  8262  03D8  00000070           	ddw	__ccovbit1_18/(0+8)	; CC_ADDR
  8263  03DC  00000001           	ddw	1	; NUM_POINTS
  8264  03E0  00000005           	ddw	__ccovbit1_18& (0+7)	; OFFSET
  8265  03E4  00000000           	ddw	0	; Reserved
  8266  03E8  FFFFFFFF           	ddw	4294967295	; RANGE_SPACE=restricted
  8267  03EC  00000002           	ddw	2	; NUM_RANGES
  8268  03F0  000006A3           	ddw	__ccov70_start_blk1	; block 1 START_ADDR
  8269  03F4  000006A5           	ddw	__end_of_TMR2_SetInterruptHandler	; block 1 END_ADDR
  8270  03F8  0000069E           	ddw	_TMR2_SetInterruptHandler	; block 0 START_ADDR
  8271  03FC  000006A3           	ddw	__ccov69_end_blk0	; block 0 END_ADDR
  8272                           
  8273                           ; Function: TMR2_DefaultInterruptHandler, coverage: 0
  8274  0400  00000000           	ddw	0	; CC_ADDR_SPACE=Data
  8275  0404  00000070           	ddw	__ccovbit0_19/(0+8)	; CC_ADDR
  8276  0408  00000001           	ddw	1	; NUM_POINTS
  8277  040C  00000004           	ddw	__ccovbit0_19& (0+7)	; OFFSET
  8278  0410  00000000           	ddw	0	; Reserved
  8279  0414  FFFFFFFF           	ddw	4294967295	; RANGE_SPACE=restricted
  8280  0418  00000001           	ddw	1	; NUM_RANGES
  8281  041C  000006DE           	ddw	_TMR2_DefaultInterruptHandler	; block 0 START_ADDR
  8282  0420  000006E0           	ddw	__end_of_TMR2_DefaultInterruptHandler	; block 0 END_ADDR
  8283                           
  8284                           ; Function: TMR0_Initialize, coverage: 6,5,4,3,2,1,0
  8285  0424  00000000           	ddw	0	; CC_ADDR_SPACE=Data
  8286  0428  00000070           	ddw	__ccovbit6_20/(0+8)	; CC_ADDR
  8287  042C  00000001           	ddw	1	; NUM_POINTS
  8288  0430  00000003           	ddw	__ccovbit6_20& (0+7)	; OFFSET
  8289  0434  00000000           	ddw	0	; Reserved
  8290  0438  FFFFFFFF           	ddw	4294967295	; RANGE_SPACE=restricted
  8291  043C  00000007           	ddw	7	; NUM_RANGES
  8292  0440  000005A6           	ddw	__ccov78_start_blk6	; block 6 START_ADDR
  8293  0444  000005A8           	ddw	__end_of_TMR0_Initialize	; block 6 END_ADDR
  8294  0448  0000059F           	ddw	__ccov77_start_blk5	; block 5 START_ADDR
  8295  044C  000005A6           	ddw	__ccov77_end_blk5	; block 5 END_ADDR
  8296  0450  0000059E           	ddw	__ccov76_start_blk4	; block 4 START_ADDR
  8297  0454  0000059F           	ddw	__ccov76_end_blk4	; block 4 END_ADDR
  8298  0458  0000059D           	ddw	__ccov75_start_blk3	; block 3 START_ADDR
  8299  045C  0000059E           	ddw	__ccov75_end_blk3	; block 3 END_ADDR
  8300  0460  00000599           	ddw	__ccov74_start_blk2	; block 2 START_ADDR
  8301  0464  0000059D           	ddw	__ccov74_end_blk2	; block 2 END_ADDR
  8302  0468  00000596           	ddw	__ccov73_start_blk1	; block 1 START_ADDR
  8303  046C  00000599           	ddw	__ccov73_end_blk1	; block 1 END_ADDR
  8304  0470  00000591           	ddw	_TMR0_Initialize	; block 0 START_ADDR
  8305  0474  00000596           	ddw	__ccov72_end_blk0	; block 0 END_ADDR
  8306                           
  8307                           ; Function: TMR0_ISR, coverage: 3,2,1,0
  8308  0478  00000000           	ddw	0	; CC_ADDR_SPACE=Data
  8309  047C  00000070           	ddw	__ccovbit3_21/(0+8)	; CC_ADDR
  8310  0480  00000001           	ddw	1	; NUM_POINTS
  8311  0484  00000002           	ddw	__ccovbit3_21& (0+7)	; OFFSET
  8312  0488  00000000           	ddw	0	; Reserved
  8313  048C  FFFFFFFF           	ddw	4294967295	; RANGE_SPACE=restricted
  8314  0490  00000004           	ddw	4	; NUM_RANGES
  8315  0494  0000063F           	ddw	__ccov88_start_blk3	; block 3 START_ADDR
  8316  0498  00000645           	ddw	__ccov88_end_blk3	; block 3 END_ADDR
  8317  049C  00000639           	ddw	__ccov87_start_blk2	; block 2 START_ADDR
  8318  04A0  0000063F           	ddw	__ccov87_end_blk2	; block 2 END_ADDR
  8319  04A4  00000636           	ddw	__ccov86_start_blk1	; block 1 START_ADDR
  8320  04A8  00000639           	ddw	__ccov86_end_blk1	; block 1 END_ADDR
  8321  04AC  00000635           	ddw	_TMR0_ISR	; block 0 START_ADDR
  8322  04B0  00000636           	ddw	__ccov85_end_blk0	; block 0 END_ADDR
  8323                           
  8324                           ; Function: TMR0_ISR, coverage: 5,2,1,0
  8325  04B4  00000000           	ddw	0	; CC_ADDR_SPACE=Data
  8326  04B8  00000070           	ddw	__ccovbit5_22/(0+8)	; CC_ADDR
  8327  04BC  00000001           	ddw	1	; NUM_POINTS
  8328  04C0  00000001           	ddw	__ccovbit5_22& (0+7)	; OFFSET
  8329  04C4  00000000           	ddw	0	; Reserved
  8330  04C8  FFFFFFFF           	ddw	4294967295	; RANGE_SPACE=restricted
  8331  04CC  00000004           	ddw	4	; NUM_RANGES
  8332  04D0  00000645           	ddw	__ccov89_start_blk5	; block 5 START_ADDR
  8333  04D4  00000647           	ddw	__end_of_TMR0_ISR	; block 5 END_ADDR
  8334  04D8  00000639           	ddw	__ccov87_start_blk2	; block 2 START_ADDR
  8335  04DC  0000063F           	ddw	__ccov87_end_blk2	; block 2 END_ADDR
  8336  04E0  00000636           	ddw	__ccov86_start_blk1	; block 1 START_ADDR
  8337  04E4  00000639           	ddw	__ccov86_end_blk1	; block 1 END_ADDR
  8338  04E8  00000635           	ddw	_TMR0_ISR	; block 0 START_ADDR
  8339  04EC  00000636           	ddw	__ccov85_end_blk0	; block 0 END_ADDR
  8340                           
  8341                           ; Function: TMR0_SetInterruptHandler, coverage: 1,0
  8342  04F0  00000000           	ddw	0	; CC_ADDR_SPACE=Data
  8343  04F4  00000070           	ddw	__ccovbit1_23/(0+8)	; CC_ADDR
  8344  04F8  00000001           	ddw	1	; NUM_POINTS
  8345  04FC  00000000           	ddw	__ccovbit1_23& (0+7)	; OFFSET
  8346  0500  00000000           	ddw	0	; Reserved
  8347  0504  FFFFFFFF           	ddw	4294967295	; RANGE_SPACE=restricted
  8348  0508  00000002           	ddw	2	; NUM_RANGES
  8349  050C  000006AA           	ddw	__ccov91_start_blk1	; block 1 START_ADDR
  8350  0510  000006AC           	ddw	__end_of_TMR0_SetInterruptHandler	; block 1 END_ADDR
  8351  0514  000006A5           	ddw	_TMR0_SetInterruptHandler	; block 0 START_ADDR
  8352  0518  000006AA           	ddw	__ccov90_end_blk0	; block 0 END_ADDR
  8353                           
  8354                           ; Function: TMR0_DefaultInterruptHandler, coverage: 0
  8355  051C  00000000           	ddw	0	; CC_ADDR_SPACE=Data
  8356  0520  00000034           	ddw	__ccovbit0_24/(0+8)	; CC_ADDR
  8357  0524  00000001           	ddw	1	; NUM_POINTS
  8358  0528  00000001           	ddw	__ccovbit0_24& (0+7)	; OFFSET
  8359  052C  00000000           	ddw	0	; Reserved
  8360  0530  FFFFFFFF           	ddw	4294967295	; RANGE_SPACE=restricted
  8361  0534  00000001           	ddw	1	; NUM_RANGES
  8362  0538  000006CF           	ddw	_TMR0_DefaultInterruptHandler	; block 0 START_ADDR
  8363  053C  000006D2           	ddw	__end_of_TMR0_DefaultInterruptHandler	; block 0 END_ADDR
  8364                           
  8365                           ; Function: start_tone, coverage: 1,0
  8366  0540  00000000           	ddw	0	; CC_ADDR_SPACE=Data
  8367  0544  00000034           	ddw	__ccovbit1_25/(0+8)	; CC_ADDR
  8368  0548  00000001           	ddw	1	; NUM_POINTS
  8369  054C  00000000           	ddw	__ccovbit1_25& (0+7)	; OFFSET
  8370  0550  00000000           	ddw	0	; Reserved
  8371  0554  FFFFFFFF           	ddw	4294967295	; RANGE_SPACE=restricted
  8372  0558  00000002           	ddw	2	; NUM_RANGES
  8373  055C  000006BB           	ddw	__ccov94_start_blk1	; block 1 START_ADDR
  8374  0560  000006BE           	ddw	__end_of_start_tone	; block 1 END_ADDR
  8375  0564  000006B8           	ddw	_start_tone	; block 0 START_ADDR
  8376  0568  000006BB           	ddw	__ccov93_end_blk0	; block 0 END_ADDR
  8377                           
  8378                           ; Function: stop_tone, coverage: 1,0
  8379  056C  00000000           	ddw	0	; CC_ADDR_SPACE=Data
  8380  0570  00000033           	ddw	__ccovbit1_26/(0+8)	; CC_ADDR
  8381  0574  00000001           	ddw	1	; NUM_POINTS
  8382  0578  00000007           	ddw	__ccovbit1_26& (0+7)	; OFFSET
  8383  057C  00000000           	ddw	0	; Reserved
  8384  0580  FFFFFFFF           	ddw	4294967295	; RANGE_SPACE=restricted
  8385  0584  00000002           	ddw	2	; NUM_RANGES
  8386  0588  000006B5           	ddw	__ccov96_start_blk1	; block 1 START_ADDR
  8387  058C  000006B8           	ddw	__end_of_stop_tone	; block 1 END_ADDR
  8388  0590  000006B2           	ddw	_stop_tone	; block 0 START_ADDR
  8389  0594  000006B5           	ddw	__ccov95_end_blk0	; block 0 END_ADDR
  8390                           
  8391                           ; Function: beep_short, coverage: 2,1,0
  8392  0598  00000000           	ddw	0	; CC_ADDR_SPACE=Data
  8393  059C  00000033           	ddw	__ccovbit2_27/(0+8)	; CC_ADDR
  8394  05A0  00000001           	ddw	1	; NUM_POINTS
  8395  05A4  00000006           	ddw	__ccovbit2_27& (0+7)	; OFFSET
  8396  05A8  00000000           	ddw	0	; Reserved
  8397  05AC  FFFFFFFF           	ddw	4294967295	; RANGE_SPACE=restricted
  8398  05B0  00000003           	ddw	3	; NUM_RANGES
  8399  05B4  00000506           	ddw	__ccov99_start_blk2	; block 2 START_ADDR
  8400  05B8  0000050A           	ddw	__ccov99_end_blk2	; block 2 END_ADDR
  8401  05BC  00000501           	ddw	__ccov98_start_blk1	; block 1 START_ADDR
  8402  05C0  00000506           	ddw	__ccov98_end_blk1	; block 1 END_ADDR
  8403  05C4  000004FD           	ddw	_beep_short	; block 0 START_ADDR
  8404  05C8  00000501           	ddw	__ccov97_end_blk0	; block 0 END_ADDR
  8405                           
  8406                           ; Function: beep_short, coverage: 6,5,4,1,0
  8407  05CC  00000000           	ddw	0	; CC_ADDR_SPACE=Data
  8408  05D0  00000033           	ddw	__ccovbit6_28/(0+8)	; CC_ADDR
  8409  05D4  00000001           	ddw	1	; NUM_POINTS
  8410  05D8  00000005           	ddw	__ccovbit6_28& (0+7)	; OFFSET
  8411  05DC  00000000           	ddw	0	; Reserved
  8412  05E0  FFFFFFFF           	ddw	4294967295	; RANGE_SPACE=restricted
  8413  05E4  00000005           	ddw	5	; NUM_RANGES
  8414  05E8  00000510           	ddw	__ccov102_start_blk6	; block 6 START_ADDR
  8415  05EC  00000514           	ddw	__ccov102_end_blk6	; block 6 END_ADDR
  8416  05F0  0000050F           	ddw	__ccov101_start_blk5	; block 5 START_ADDR
  8417  05F4  00000510           	ddw	__ccov101_end_blk5	; block 5 END_ADDR
  8418  05F8  0000050A           	ddw	__ccov100_start_blk4	; block 4 START_ADDR
  8419  05FC  0000050F           	ddw	__ccov100_end_blk4	; block 4 END_ADDR
  8420  0600  00000501           	ddw	__ccov98_start_blk1	; block 1 START_ADDR
  8421  0604  00000506           	ddw	__ccov98_end_blk1	; block 1 END_ADDR
  8422  0608  000004FD           	ddw	_beep_short	; block 0 START_ADDR
  8423  060C  00000501           	ddw	__ccov97_end_blk0	; block 0 END_ADDR
  8424                           
  8425                           ; Function: beep_short, coverage: 8,0
  8426  0610  00000000           	ddw	0	; CC_ADDR_SPACE=Data
  8427  0614  00000033           	ddw	__ccovbit8_29/(0+8)	; CC_ADDR
  8428  0618  00000001           	ddw	1	; NUM_POINTS
  8429  061C  00000004           	ddw	__ccovbit8_29& (0+7)	; OFFSET
  8430  0620  00000000           	ddw	0	; Reserved
  8431  0624  FFFFFFFF           	ddw	4294967295	; RANGE_SPACE=restricted
  8432  0628  00000002           	ddw	2	; NUM_RANGES
  8433  062C  00000514           	ddw	__ccov103_start_blk8	; block 8 START_ADDR
  8434  0630  00000517           	ddw	__end_of_beep_short	; block 8 END_ADDR
  8435  0634  000004FD           	ddw	_beep_short	; block 0 START_ADDR
  8436  0638  00000501           	ddw	__ccov97_end_blk0	; block 0 END_ADDR
  8437                           
  8438                           ; Function: beep_long, coverage: 2,1,0
  8439  063C  00000000           	ddw	0	; CC_ADDR_SPACE=Data
  8440  0640  00000033           	ddw	__ccovbit2_30/(0+8)	; CC_ADDR
  8441  0644  00000001           	ddw	1	; NUM_POINTS
  8442  0648  00000003           	ddw	__ccovbit2_30& (0+7)	; OFFSET
  8443  064C  00000000           	ddw	0	; Reserved
  8444  0650  FFFFFFFF           	ddw	4294967295	; RANGE_SPACE=restricted
  8445  0654  00000003           	ddw	3	; NUM_RANGES
  8446  0658  00000553           	ddw	__ccov106_start_blk2	; block 2 START_ADDR
  8447  065C  00000556           	ddw	__ccov106_end_blk2	; block 2 END_ADDR
  8448  0660  0000054D           	ddw	__ccov105_start_blk1	; block 1 START_ADDR
  8449  0664  00000553           	ddw	__ccov105_end_blk1	; block 1 END_ADDR
  8450  0668  00000549           	ddw	_beep_long	; block 0 START_ADDR
  8451  066C  0000054D           	ddw	__ccov104_end_blk0	; block 0 END_ADDR
  8452                           
  8453                           ; Function: beep_long, coverage: 6,5,4,1,0
  8454  0670  00000000           	ddw	0	; CC_ADDR_SPACE=Data
  8455  0674  00000033           	ddw	__ccovbit6_31/(0+8)	; CC_ADDR
  8456  0678  00000001           	ddw	1	; NUM_POINTS
  8457  067C  00000002           	ddw	__ccovbit6_31& (0+7)	; OFFSET
  8458  0680  00000000           	ddw	0	; Reserved
  8459  0684  FFFFFFFF           	ddw	4294967295	; RANGE_SPACE=restricted
  8460  0688  00000005           	ddw	5	; NUM_RANGES
  8461  068C  0000055B           	ddw	__ccov109_start_blk6	; block 6 START_ADDR
  8462  0690  0000055F           	ddw	__ccov109_end_blk6	; block 6 END_ADDR
  8463  0694  0000055A           	ddw	__ccov108_start_blk5	; block 5 START_ADDR
  8464  0698  0000055B           	ddw	__ccov108_end_blk5	; block 5 END_ADDR
  8465  069C  00000556           	ddw	__ccov107_start_blk4	; block 4 START_ADDR
  8466  06A0  0000055A           	ddw	__ccov107_end_blk4	; block 4 END_ADDR
  8467  06A4  0000054D           	ddw	__ccov105_start_blk1	; block 1 START_ADDR
  8468  06A8  00000553           	ddw	__ccov105_end_blk1	; block 1 END_ADDR
  8469  06AC  00000549           	ddw	_beep_long	; block 0 START_ADDR
  8470  06B0  0000054D           	ddw	__ccov104_end_blk0	; block 0 END_ADDR
  8471                           
  8472                           ; Function: beep_long, coverage: 8,0
  8473  06B4  00000000           	ddw	0	; CC_ADDR_SPACE=Data
  8474  06B8  00000033           	ddw	__ccovbit8_32/(0+8)	; CC_ADDR
  8475  06BC  00000001           	ddw	1	; NUM_POINTS
  8476  06C0  00000001           	ddw	__ccovbit8_32& (0+7)	; OFFSET
  8477  06C4  00000000           	ddw	0	; Reserved
  8478  06C8  FFFFFFFF           	ddw	4294967295	; RANGE_SPACE=restricted
  8479  06CC  00000002           	ddw	2	; NUM_RANGES
  8480  06D0  0000055F           	ddw	__ccov110_start_blk8	; block 8 START_ADDR
  8481  06D4  00000562           	ddw	__end_of_beep_long	; block 8 END_ADDR
  8482  06D8  00000549           	ddw	_beep_long	; block 0 START_ADDR
  8483  06DC  0000054D           	ddw	__ccov104_end_blk0	; block 0 END_ADDR
  8484                           
  8485                           ; Function: beep_double, coverage: 1,0
  8486  06E0  00000000           	ddw	0	; CC_ADDR_SPACE=Data
  8487  06E4  00000033           	ddw	__ccovbit1_33/(0+8)	; CC_ADDR
  8488  06E8  00000001           	ddw	1	; NUM_POINTS
  8489  06EC  00000000           	ddw	__ccovbit1_33& (0+7)	; OFFSET
  8490  06F0  00000000           	ddw	0	; Reserved
  8491  06F4  FFFFFFFF           	ddw	4294967295	; RANGE_SPACE=restricted
  8492  06F8  00000002           	ddw	2	; NUM_RANGES
  8493  06FC  00000627           	ddw	__ccov112_start_blk1	; block 1 START_ADDR
  8494  0700  0000062D           	ddw	__ccov112_end_blk1	; block 1 END_ADDR
  8495  0704  00000623           	ddw	_beep_double	; block 0 START_ADDR
  8496  0708  00000627           	ddw	__ccov111_end_blk0	; block 0 END_ADDR
  8497                           
  8498                           ; Function: beep_double, coverage: 3,0
  8499  070C  00000000           	ddw	0	; CC_ADDR_SPACE=Data
  8500  0710  00000032           	ddw	__ccovbit3_34/(0+8)	; CC_ADDR
  8501  0714  00000001           	ddw	1	; NUM_POINTS
  8502  0718  00000007           	ddw	__ccovbit3_34& (0+7)	; OFFSET
  8503  071C  00000000           	ddw	0	; Reserved
  8504  0720  FFFFFFFF           	ddw	4294967295	; RANGE_SPACE=restricted
  8505  0724  00000002           	ddw	2	; NUM_RANGES
  8506  0728  0000062D           	ddw	__ccov113_start_blk3	; block 3 START_ADDR
  8507  072C  00000632           	ddw	__ccov113_end_blk3	; block 3 END_ADDR
  8508  0730  00000623           	ddw	_beep_double	; block 0 START_ADDR
  8509  0734  00000627           	ddw	__ccov111_end_blk0	; block 0 END_ADDR
  8510                           
  8511                           ; Function: beep_double, coverage: 5,0
  8512  0738  00000000           	ddw	0	; CC_ADDR_SPACE=Data
  8513  073C  00000032           	ddw	__ccovbit5_35/(0+8)	; CC_ADDR
  8514  0740  00000001           	ddw	1	; NUM_POINTS
  8515  0744  00000006           	ddw	__ccovbit5_35& (0+7)	; OFFSET
  8516  0748  00000000           	ddw	0	; Reserved
  8517  074C  FFFFFFFF           	ddw	4294967295	; RANGE_SPACE=restricted
  8518  0750  00000002           	ddw	2	; NUM_RANGES
  8519  0754  00000632           	ddw	__ccov114_start_blk5	; block 5 START_ADDR
  8520  0758  00000635           	ddw	__end_of_beep_double	; block 5 END_ADDR
  8521  075C  00000623           	ddw	_beep_double	; block 0 START_ADDR
  8522  0760  00000627           	ddw	__ccov111_end_blk0	; block 0 END_ADDR
  8523                           
  8524                           ; Function: go_close, coverage: 1,0
  8525  0764  00000000           	ddw	0	; CC_ADDR_SPACE=Data
  8526  0768  00000032           	ddw	__ccovbit1_36/(0+8)	; CC_ADDR
  8527  076C  00000001           	ddw	1	; NUM_POINTS
  8528  0770  00000005           	ddw	__ccovbit1_36& (0+7)	; OFFSET
  8529  0774  00000000           	ddw	0	; Reserved
  8530  0778  FFFFFFFF           	ddw	4294967295	; RANGE_SPACE=restricted
  8531  077C  00000002           	ddw	2	; NUM_RANGES
  8532  0780  00000401           	ddw	__ccov116_start_blk1	; block 1 START_ADDR
  8533  0784  00000407           	ddw	__ccov116_end_blk1	; block 1 END_ADDR
  8534  0788  000003FD           	ddw	_go_close	; block 0 START_ADDR
  8535  078C  00000401           	ddw	__ccov115_end_blk0	; block 0 END_ADDR
  8536                           
  8537                           ; Function: go_close, coverage: 2,1,0
  8538  0790  00000000           	ddw	0	; CC_ADDR_SPACE=Data
  8539  0794  00000032           	ddw	__ccovbit2_37/(0+8)	; CC_ADDR
  8540  0798  00000001           	ddw	1	; NUM_POINTS
  8541  079C  00000004           	ddw	__ccovbit2_37& (0+7)	; OFFSET
  8542  07A0  00000000           	ddw	0	; Reserved
  8543  07A4  FFFFFFFF           	ddw	4294967295	; RANGE_SPACE=restricted
  8544  07A8  00000003           	ddw	3	; NUM_RANGES
  8545  07AC  00000407           	ddw	__ccov117_start_blk2	; block 2 START_ADDR
  8546  07B0  0000040C           	ddw	__ccov117_end_blk2	; block 2 END_ADDR
  8547  07B4  00000401           	ddw	__ccov116_start_blk1	; block 1 START_ADDR
  8548  07B8  00000407           	ddw	__ccov116_end_blk1	; block 1 END_ADDR
  8549  07BC  000003FD           	ddw	_go_close	; block 0 START_ADDR
  8550  07C0  00000401           	ddw	__ccov115_end_blk0	; block 0 END_ADDR
  8551                           
  8552                           ; Function: go_close, coverage: 4,3,2,1,0
  8553  07C4  00000000           	ddw	0	; CC_ADDR_SPACE=Data
  8554  07C8  00000032           	ddw	__ccovbit4_38/(0+8)	; CC_ADDR
  8555  07CC  00000001           	ddw	1	; NUM_POINTS
  8556  07D0  00000003           	ddw	__ccovbit4_38& (0+7)	; OFFSET
  8557  07D4  00000000           	ddw	0	; Reserved
  8558  07D8  FFFFFFFF           	ddw	4294967295	; RANGE_SPACE=restricted
  8559  07DC  00000005           	ddw	5	; NUM_RANGES
  8560  07E0  00000411           	ddw	__ccov119_start_blk4	; block 4 START_ADDR
  8561  07E4  00000424           	ddw	__ccov119_end_blk4	; block 4 END_ADDR
  8562  07E8  0000040C           	ddw	__ccov118_start_blk3	; block 3 START_ADDR
  8563  07EC  00000411           	ddw	__ccov118_end_blk3	; block 3 END_ADDR
  8564  07F0  00000407           	ddw	__ccov117_start_blk2	; block 2 START_ADDR
  8565  07F4  0000040C           	ddw	__ccov117_end_blk2	; block 2 END_ADDR
  8566  07F8  00000401           	ddw	__ccov116_start_blk1	; block 1 START_ADDR
  8567  07FC  00000407           	ddw	__ccov116_end_blk1	; block 1 END_ADDR
  8568  0800  000003FD           	ddw	_go_close	; block 0 START_ADDR
  8569  0804  00000401           	ddw	__ccov115_end_blk0	; block 0 END_ADDR
  8570                           
  8571                           ; Function: go_close, coverage: 6,0
  8572  0808  00000000           	ddw	0	; CC_ADDR_SPACE=Data
  8573  080C  00000032           	ddw	__ccovbit6_39/(0+8)	; CC_ADDR
  8574  0810  00000001           	ddw	1	; NUM_POINTS
  8575  0814  00000002           	ddw	__ccovbit6_39& (0+7)	; OFFSET
  8576  0818  00000000           	ddw	0	; Reserved
  8577  081C  FFFFFFFF           	ddw	4294967295	; RANGE_SPACE=restricted
  8578  0820  00000002           	ddw	2	; NUM_RANGES
  8579  0824  00000424           	ddw	__ccov120_start_blk6	; block 6 START_ADDR
  8580  0828  00000427           	ddw	__end_of_go_close	; block 6 END_ADDR
  8581  082C  000003FD           	ddw	_go_close	; block 0 START_ADDR
  8582  0830  00000401           	ddw	__ccov115_end_blk0	; block 0 END_ADDR
  8583                           
  8584                           ; Function: go_close_short, coverage: 1,0
  8585  0834  00000000           	ddw	0	; CC_ADDR_SPACE=Data
  8586  0838  00000032           	ddw	__ccovbit1_40/(0+8)	; CC_ADDR
  8587  083C  00000001           	ddw	1	; NUM_POINTS
  8588  0840  00000001           	ddw	__ccovbit1_40& (0+7)	; OFFSET
  8589  0844  00000000           	ddw	0	; Reserved
  8590  0848  FFFFFFFF           	ddw	4294967295	; RANGE_SPACE=restricted
  8591  084C  00000002           	ddw	2	; NUM_RANGES
  8592  0850  0000042B           	ddw	__ccov122_start_blk1	; block 1 START_ADDR
  8593  0854  00000431           	ddw	__ccov122_end_blk1	; block 1 END_ADDR
  8594  0858  00000427           	ddw	_go_close_short	; block 0 START_ADDR
  8595  085C  0000042B           	ddw	__ccov121_end_blk0	; block 0 END_ADDR
  8596                           
  8597                           ; Function: go_close_short, coverage: 2,1,0
  8598  0860  00000000           	ddw	0	; CC_ADDR_SPACE=Data
  8599  0864  00000032           	ddw	__ccovbit2_41/(0+8)	; CC_ADDR
  8600  0868  00000001           	ddw	1	; NUM_POINTS
  8601  086C  00000000           	ddw	__ccovbit2_41& (0+7)	; OFFSET
  8602  0870  00000000           	ddw	0	; Reserved
  8603  0874  FFFFFFFF           	ddw	4294967295	; RANGE_SPACE=restricted
  8604  0878  00000003           	ddw	3	; NUM_RANGES
  8605  087C  00000431           	ddw	__ccov123_start_blk2	; block 2 START_ADDR
  8606  0880  00000436           	ddw	__ccov123_end_blk2	; block 2 END_ADDR
  8607  0884  0000042B           	ddw	__ccov122_start_blk1	; block 1 START_ADDR
  8608  0888  00000431           	ddw	__ccov122_end_blk1	; block 1 END_ADDR
  8609  088C  00000427           	ddw	_go_close_short	; block 0 START_ADDR
  8610  0890  0000042B           	ddw	__ccov121_end_blk0	; block 0 END_ADDR
  8611                           
  8612                           ; Function: go_close_short, coverage: 4,3,2,1,0
  8613  0894  00000000           	ddw	0	; CC_ADDR_SPACE=Data
  8614  0898  00000031           	ddw	__ccovbit4_42/(0+8)	; CC_ADDR
  8615  089C  00000001           	ddw	1	; NUM_POINTS
  8616  08A0  00000007           	ddw	__ccovbit4_42& (0+7)	; OFFSET
  8617  08A4  00000000           	ddw	0	; Reserved
  8618  08A8  FFFFFFFF           	ddw	4294967295	; RANGE_SPACE=restricted
  8619  08AC  00000005           	ddw	5	; NUM_RANGES
  8620  08B0  0000043B           	ddw	__ccov125_start_blk4	; block 4 START_ADDR
  8621  08B4  0000044E           	ddw	__ccov125_end_blk4	; block 4 END_ADDR
  8622  08B8  00000436           	ddw	__ccov124_start_blk3	; block 3 START_ADDR
  8623  08BC  0000043B           	ddw	__ccov124_end_blk3	; block 3 END_ADDR
  8624  08C0  00000431           	ddw	__ccov123_start_blk2	; block 2 START_ADDR
  8625  08C4  00000436           	ddw	__ccov123_end_blk2	; block 2 END_ADDR
  8626  08C8  0000042B           	ddw	__ccov122_start_blk1	; block 1 START_ADDR
  8627  08CC  00000431           	ddw	__ccov122_end_blk1	; block 1 END_ADDR
  8628  08D0  00000427           	ddw	_go_close_short	; block 0 START_ADDR
  8629  08D4  0000042B           	ddw	__ccov121_end_blk0	; block 0 END_ADDR
  8630                           
  8631                           ; Function: go_close_short, coverage: 6,0
  8632  08D8  00000000           	ddw	0	; CC_ADDR_SPACE=Data
  8633  08DC  00000031           	ddw	__ccovbit6_43/(0+8)	; CC_ADDR
  8634  08E0  00000001           	ddw	1	; NUM_POINTS
  8635  08E4  00000006           	ddw	__ccovbit6_43& (0+7)	; OFFSET
  8636  08E8  00000000           	ddw	0	; Reserved
  8637  08EC  FFFFFFFF           	ddw	4294967295	; RANGE_SPACE=restricted
  8638  08F0  00000002           	ddw	2	; NUM_RANGES
  8639  08F4  0000044E           	ddw	__ccov126_start_blk6	; block 6 START_ADDR
  8640  08F8  00000451           	ddw	__end_of_go_close_short	; block 6 END_ADDR
  8641  08FC  00000427           	ddw	_go_close_short	; block 0 START_ADDR
  8642  0900  0000042B           	ddw	__ccov121_end_blk0	; block 0 END_ADDR
  8643                           
  8644                           ; Function: go_open, coverage: 1,0
  8645  0904  00000000           	ddw	0	; CC_ADDR_SPACE=Data
  8646  0908  00000031           	ddw	__ccovbit1_44/(0+8)	; CC_ADDR
  8647  090C  00000001           	ddw	1	; NUM_POINTS
  8648  0910  00000005           	ddw	__ccovbit1_44& (0+7)	; OFFSET
  8649  0914  00000000           	ddw	0	; Reserved
  8650  0918  FFFFFFFF           	ddw	4294967295	; RANGE_SPACE=restricted
  8651  091C  00000002           	ddw	2	; NUM_RANGES
  8652  0920  000004E4           	ddw	__ccov128_start_blk1	; block 1 START_ADDR
  8653  0924  000004EA           	ddw	__ccov128_end_blk1	; block 1 END_ADDR
  8654  0928  000004E0           	ddw	_go_open	; block 0 START_ADDR
  8655  092C  000004E4           	ddw	__ccov127_end_blk0	; block 0 END_ADDR
  8656                           
  8657                           ; Function: go_open, coverage: 2,1,0
  8658  0930  00000000           	ddw	0	; CC_ADDR_SPACE=Data
  8659  0934  00000031           	ddw	__ccovbit2_45/(0+8)	; CC_ADDR
  8660  0938  00000001           	ddw	1	; NUM_POINTS
  8661  093C  00000004           	ddw	__ccovbit2_45& (0+7)	; OFFSET
  8662  0940  00000000           	ddw	0	; Reserved
  8663  0944  FFFFFFFF           	ddw	4294967295	; RANGE_SPACE=restricted
  8664  0948  00000003           	ddw	3	; NUM_RANGES
  8665  094C  000004EA           	ddw	__ccov129_start_blk2	; block 2 START_ADDR
  8666  0950  000004EF           	ddw	__ccov129_end_blk2	; block 2 END_ADDR
  8667  0954  000004E4           	ddw	__ccov128_start_blk1	; block 1 START_ADDR
  8668  0958  000004EA           	ddw	__ccov128_end_blk1	; block 1 END_ADDR
  8669  095C  000004E0           	ddw	_go_open	; block 0 START_ADDR
  8670  0960  000004E4           	ddw	__ccov127_end_blk0	; block 0 END_ADDR
  8671                           
  8672                           ; Function: go_open, coverage: 5,4,3,2,1,0
  8673  0964  00000000           	ddw	0	; CC_ADDR_SPACE=Data
  8674  0968  00000031           	ddw	__ccovbit5_46/(0+8)	; CC_ADDR
  8675  096C  00000001           	ddw	1	; NUM_POINTS
  8676  0970  00000003           	ddw	__ccovbit5_46& (0+7)	; OFFSET
  8677  0974  00000000           	ddw	0	; Reserved
  8678  0978  FFFFFFFF           	ddw	4294967295	; RANGE_SPACE=restricted
  8679  097C  00000006           	ddw	6	; NUM_RANGES
  8680  0980  000004F8           	ddw	__ccov132_start_blk5	; block 5 START_ADDR
  8681  0984  000004FA           	ddw	__ccov132_end_blk5	; block 5 END_ADDR
  8682  0988  000004F4           	ddw	__ccov131_start_blk4	; block 4 START_ADDR
  8683  098C  000004F8           	ddw	__ccov131_end_blk4	; block 4 END_ADDR
  8684  0990  000004EF           	ddw	__ccov130_start_blk3	; block 3 START_ADDR
  8685  0994  000004F4           	ddw	__ccov130_end_blk3	; block 3 END_ADDR
  8686  0998  000004EA           	ddw	__ccov129_start_blk2	; block 2 START_ADDR
  8687  099C  000004EF           	ddw	__ccov129_end_blk2	; block 2 END_ADDR
  8688  09A0  000004E4           	ddw	__ccov128_start_blk1	; block 1 START_ADDR
  8689  09A4  000004EA           	ddw	__ccov128_end_blk1	; block 1 END_ADDR
  8690  09A8  000004E0           	ddw	_go_open	; block 0 START_ADDR
  8691  09AC  000004E4           	ddw	__ccov127_end_blk0	; block 0 END_ADDR
  8692                           
  8693                           ; Function: go_open, coverage: 8,0
  8694  09B0  00000000           	ddw	0	; CC_ADDR_SPACE=Data
  8695  09B4  00000031           	ddw	__ccovbit8_47/(0+8)	; CC_ADDR
  8696  09B8  00000001           	ddw	1	; NUM_POINTS
  8697  09BC  00000002           	ddw	__ccovbit8_47& (0+7)	; OFFSET
  8698  09C0  00000000           	ddw	0	; Reserved
  8699  09C4  FFFFFFFF           	ddw	4294967295	; RANGE_SPACE=restricted
  8700  09C8  00000002           	ddw	2	; NUM_RANGES
  8701  09CC  000004FA           	ddw	__ccov133_start_blk8	; block 8 START_ADDR
  8702  09D0  000004FD           	ddw	__end_of_go_open	; block 8 END_ADDR
  8703  09D4  000004E0           	ddw	_go_open	; block 0 START_ADDR
  8704  09D8  000004E4           	ddw	__ccov127_end_blk0	; block 0 END_ADDR
  8705                           
  8706                           ; Function: go_close_alt, coverage: 1,0
  8707  09DC  00000000           	ddw	0	; CC_ADDR_SPACE=Data
  8708  09E0  00000031           	ddw	__ccovbit1_48/(0+8)	; CC_ADDR
  8709  09E4  00000001           	ddw	1	; NUM_POINTS
  8710  09E8  00000001           	ddw	__ccovbit1_48& (0+7)	; OFFSET
  8711  09EC  00000000           	ddw	0	; Reserved
  8712  09F0  FFFFFFFF           	ddw	4294967295	; RANGE_SPACE=restricted
  8713  09F4  00000002           	ddw	2	; NUM_RANGES
  8714  09F8  000005AC           	ddw	__ccov135_start_blk1	; block 1 START_ADDR
  8715  09FC  000005B2           	ddw	__ccov135_end_blk1	; block 1 END_ADDR
  8716  0A00  000005A8           	ddw	_go_close_alt	; block 0 START_ADDR
  8717  0A04  000005AC           	ddw	__ccov134_end_blk0	; block 0 END_ADDR
  8718                           
  8719                           ; Function: go_close_alt, coverage: 2,0
  8720  0A08  00000000           	ddw	0	; CC_ADDR_SPACE=Data
  8721  0A0C  00000031           	ddw	__ccovbit2_49/(0+8)	; CC_ADDR
  8722  0A10  00000001           	ddw	1	; NUM_POINTS
  8723  0A14  00000000           	ddw	__ccovbit2_49& (0+7)	; OFFSET
  8724  0A18  00000000           	ddw	0	; Reserved
  8725  0A1C  FFFFFFFF           	ddw	4294967295	; RANGE_SPACE=restricted
  8726  0A20  00000002           	ddw	2	; NUM_RANGES
  8727  0A24  000005B2           	ddw	__ccov136_start_blk2	; block 2 START_ADDR
  8728  0A28  000005B8           	ddw	__ccov136_end_blk2	; block 2 END_ADDR
  8729  0A2C  000005A8           	ddw	_go_close_alt	; block 0 START_ADDR
  8730  0A30  000005AC           	ddw	__ccov134_end_blk0	; block 0 END_ADDR
  8731                           
  8732                           ; Function: go_close_alt, coverage: 3,0
  8733  0A34  00000000           	ddw	0	; CC_ADDR_SPACE=Data
  8734  0A38  00000030           	ddw	__ccovbit3_50/(0+8)	; CC_ADDR
  8735  0A3C  00000001           	ddw	1	; NUM_POINTS
  8736  0A40  00000007           	ddw	__ccovbit3_50& (0+7)	; OFFSET
  8737  0A44  00000000           	ddw	0	; Reserved
  8738  0A48  FFFFFFFF           	ddw	4294967295	; RANGE_SPACE=restricted
  8739  0A4C  00000002           	ddw	2	; NUM_RANGES
  8740  0A50  000005B8           	ddw	__ccov137_start_blk3	; block 3 START_ADDR
  8741  0A54  000005BD           	ddw	__ccov137_end_blk3	; block 3 END_ADDR
  8742  0A58  000005A8           	ddw	_go_close_alt	; block 0 START_ADDR
  8743  0A5C  000005AC           	ddw	__ccov134_end_blk0	; block 0 END_ADDR
  8744                           
  8745                           ; Function: go_close_alt, coverage: 5,0
  8746  0A60  00000000           	ddw	0	; CC_ADDR_SPACE=Data
  8747  0A64  00000030           	ddw	__ccovbit5_51/(0+8)	; CC_ADDR
  8748  0A68  00000001           	ddw	1	; NUM_POINTS
  8749  0A6C  00000006           	ddw	__ccovbit5_51& (0+7)	; OFFSET
  8750  0A70  00000000           	ddw	0	; Reserved
  8751  0A74  FFFFFFFF           	ddw	4294967295	; RANGE_SPACE=restricted
  8752  0A78  00000002           	ddw	2	; NUM_RANGES
  8753  0A7C  000005BD           	ddw	__ccov138_start_blk5	; block 5 START_ADDR
  8754  0A80  000005BF           	ddw	__end_of_go_close_alt	; block 5 END_ADDR
  8755  0A84  000005A8           	ddw	_go_close_alt	; block 0 START_ADDR
  8756  0A88  000005AC           	ddw	__ccov134_end_blk0	; block 0 END_ADDR
  8757                           
  8758                           ; Function: go_open_alt, coverage: 1,0
  8759  0A8C  00000000           	ddw	0	; CC_ADDR_SPACE=Data
  8760  0A90  00000030           	ddw	__ccovbit1_52/(0+8)	; CC_ADDR
  8761  0A94  00000001           	ddw	1	; NUM_POINTS
  8762  0A98  00000005           	ddw	__ccovbit1_52& (0+7)	; OFFSET
  8763  0A9C  00000000           	ddw	0	; Reserved
  8764  0AA0  FFFFFFFF           	ddw	4294967295	; RANGE_SPACE=restricted
  8765  0AA4  00000002           	ddw	2	; NUM_RANGES
  8766  0AA8  00000615           	ddw	__ccov140_start_blk1	; block 1 START_ADDR
  8767  0AAC  0000061B           	ddw	__ccov140_end_blk1	; block 1 END_ADDR
  8768  0AB0  00000611           	ddw	_go_open_alt	; block 0 START_ADDR
  8769  0AB4  00000615           	ddw	__ccov139_end_blk0	; block 0 END_ADDR
  8770                           
  8771                           ; Function: go_open_alt, coverage: 2,1,0
  8772  0AB8  00000000           	ddw	0	; CC_ADDR_SPACE=Data
  8773  0ABC  00000030           	ddw	__ccovbit2_53/(0+8)	; CC_ADDR
  8774  0AC0  00000001           	ddw	1	; NUM_POINTS
  8775  0AC4  00000004           	ddw	__ccovbit2_53& (0+7)	; OFFSET
  8776  0AC8  00000000           	ddw	0	; Reserved
  8777  0ACC  FFFFFFFF           	ddw	4294967295	; RANGE_SPACE=restricted
  8778  0AD0  00000003           	ddw	3	; NUM_RANGES
  8779  0AD4  0000061B           	ddw	__ccov141_start_blk2	; block 2 START_ADDR
  8780  0AD8  00000620           	ddw	__ccov141_end_blk2	; block 2 END_ADDR
  8781  0ADC  00000615           	ddw	__ccov140_start_blk1	; block 1 START_ADDR
  8782  0AE0  0000061B           	ddw	__ccov140_end_blk1	; block 1 END_ADDR
  8783  0AE4  00000611           	ddw	_go_open_alt	; block 0 START_ADDR
  8784  0AE8  00000615           	ddw	__ccov139_end_blk0	; block 0 END_ADDR
  8785                           
  8786                           ; Function: go_open_alt, coverage: 4,0
  8787  0AEC  00000000           	ddw	0	; CC_ADDR_SPACE=Data
  8788  0AF0  00000030           	ddw	__ccovbit4_54/(0+8)	; CC_ADDR
  8789  0AF4  00000001           	ddw	1	; NUM_POINTS
  8790  0AF8  00000003           	ddw	__ccovbit4_54& (0+7)	; OFFSET
  8791  0AFC  00000000           	ddw	0	; Reserved
  8792  0B00  FFFFFFFF           	ddw	4294967295	; RANGE_SPACE=restricted
  8793  0B04  00000002           	ddw	2	; NUM_RANGES
  8794  0B08  00000620           	ddw	__ccov142_start_blk4	; block 4 START_ADDR
  8795  0B0C  00000623           	ddw	__end_of_go_open_alt	; block 4 END_ADDR
  8796  0B10  00000611           	ddw	_go_open_alt	; block 0 START_ADDR
  8797  0B14  00000615           	ddw	__ccov139_end_blk0	; block 0 END_ADDR
  8798                           
  8799                           ; Function: rele_off, coverage: 1,0
  8800  0B18  00000000           	ddw	0	; CC_ADDR_SPACE=Data
  8801  0B1C  00000030           	ddw	__ccovbit1_55/(0+8)	; CC_ADDR
  8802  0B20  00000001           	ddw	1	; NUM_POINTS
  8803  0B24  00000002           	ddw	__ccovbit1_55& (0+7)	; OFFSET
  8804  0B28  00000000           	ddw	0	; Reserved
  8805  0B2C  FFFFFFFF           	ddw	4294967295	; RANGE_SPACE=restricted
  8806  0B30  00000002           	ddw	2	; NUM_RANGES
  8807  0B34  000005DE           	ddw	__ccov144_start_blk1	; block 1 START_ADDR
  8808  0B38  000005E2           	ddw	__ccov144_end_blk1	; block 1 END_ADDR
  8809  0B3C  000005D5           	ddw	_rele_off	; block 0 START_ADDR
  8810  0B40  000005DE           	ddw	__ccov143_end_blk0	; block 0 END_ADDR
  8811                           
  8812                           ; Function: rele_off, coverage: 2,0
  8813  0B44  00000000           	ddw	0	; CC_ADDR_SPACE=Data
  8814  0B48  00000030           	ddw	__ccovbit2_56/(0+8)	; CC_ADDR
  8815  0B4C  00000001           	ddw	1	; NUM_POINTS
  8816  0B50  00000001           	ddw	__ccovbit2_56& (0+7)	; OFFSET
  8817  0B54  00000000           	ddw	0	; Reserved
  8818  0B58  FFFFFFFF           	ddw	4294967295	; RANGE_SPACE=restricted
  8819  0B5C  00000002           	ddw	2	; NUM_RANGES
  8820  0B60  000005E2           	ddw	__ccov145_start_blk2	; block 2 START_ADDR
  8821  0B64  000005E5           	ddw	__ccov145_end_blk2	; block 2 END_ADDR
  8822  0B68  000005D5           	ddw	_rele_off	; block 0 START_ADDR
  8823  0B6C  000005DE           	ddw	__ccov143_end_blk0	; block 0 END_ADDR
  8824                           
  8825                           ; Function: rele_off, coverage: 4,3,0
  8826  0B70  00000000           	ddw	0	; CC_ADDR_SPACE=Data
  8827  0B74  00000030           	ddw	__ccovbit4_57/(0+8)	; CC_ADDR
  8828  0B78  00000001           	ddw	1	; NUM_POINTS
  8829  0B7C  00000000           	ddw	__ccovbit4_57& (0+7)	; OFFSET
  8830  0B80  00000000           	ddw	0	; Reserved
  8831  0B84  FFFFFFFF           	ddw	4294967295	; RANGE_SPACE=restricted
  8832  0B88  00000003           	ddw	3	; NUM_RANGES
  8833  0B8C  000005E8           	ddw	__ccov147_start_blk4	; block 4 START_ADDR
  8834  0B90  000005EA           	ddw	__end_of_rele_off	; block 4 END_ADDR
  8835  0B94  000005E5           	ddw	__ccov146_start_blk3	; block 3 START_ADDR
  8836  0B98  000005E8           	ddw	__ccov146_end_blk3	; block 3 END_ADDR
  8837  0B9C  000005D5           	ddw	_rele_off	; block 0 START_ADDR
  8838  0BA0  000005DE           	ddw	__ccov143_end_blk0	; block 0 END_ADDR
  8839                           
  8840                           ; Function: close, coverage: 1,0
  8841  0BA4  00000000           	ddw	0	; CC_ADDR_SPACE=Data
  8842  0BA8  0000002F           	ddw	__ccovbit1_58/(0+8)	; CC_ADDR
  8843  0BAC  00000001           	ddw	1	; NUM_POINTS
  8844  0BB0  00000007           	ddw	__ccovbit1_58& (0+7)	; OFFSET
  8845  0BB4  00000000           	ddw	0	; Reserved
  8846  0BB8  FFFFFFFF           	ddw	4294967295	; RANGE_SPACE=restricted
  8847  0BBC  00000002           	ddw	2	; NUM_RANGES
  8848  0BC0  000004C3           	ddw	__ccov149_start_blk1	; block 1 START_ADDR
  8849  0BC4  000004C9           	ddw	__ccov149_end_blk1	; block 1 END_ADDR
  8850  0BC8  000004BF           	ddw	_close	; block 0 START_ADDR
  8851  0BCC  000004C3           	ddw	__ccov148_end_blk0	; block 0 END_ADDR
  8852                           
  8853                           ; Function: close, coverage: 3,2,0
  8854  0BD0  00000000           	ddw	0	; CC_ADDR_SPACE=Data
  8855  0BD4  0000002F           	ddw	__ccovbit3_59/(0+8)	; CC_ADDR
  8856  0BD8  00000001           	ddw	1	; NUM_POINTS
  8857  0BDC  00000006           	ddw	__ccovbit3_59& (0+7)	; OFFSET
  8858  0BE0  00000000           	ddw	0	; Reserved
  8859  0BE4  FFFFFFFF           	ddw	4294967295	; RANGE_SPACE=restricted
  8860  0BE8  00000003           	ddw	3	; NUM_RANGES
  8861  0BEC  000004CD           	ddw	__ccov151_start_blk3	; block 3 START_ADDR
  8862  0BF0  000004D3           	ddw	__ccov151_end_blk3	; block 3 END_ADDR
  8863  0BF4  000004C9           	ddw	__ccov150_start_blk2	; block 2 START_ADDR
  8864  0BF8  000004CD           	ddw	__ccov150_end_blk2	; block 2 END_ADDR
  8865  0BFC  000004BF           	ddw	_close	; block 0 START_ADDR
  8866  0C00  000004C3           	ddw	__ccov148_end_blk0	; block 0 END_ADDR
  8867                           
  8868                           ; Function: close, coverage: 4,2,0
  8869  0C04  00000000           	ddw	0	; CC_ADDR_SPACE=Data
  8870  0C08  0000002F           	ddw	__ccovbit4_60/(0+8)	; CC_ADDR
  8871  0C0C  00000001           	ddw	1	; NUM_POINTS
  8872  0C10  00000005           	ddw	__ccovbit4_60& (0+7)	; OFFSET
  8873  0C14  00000000           	ddw	0	; Reserved
  8874  0C18  FFFFFFFF           	ddw	4294967295	; RANGE_SPACE=restricted
  8875  0C1C  00000003           	ddw	3	; NUM_RANGES
  8876  0C20  000004D3           	ddw	__ccov152_start_blk4	; block 4 START_ADDR
  8877  0C24  000004D9           	ddw	__ccov152_end_blk4	; block 4 END_ADDR
  8878  0C28  000004C9           	ddw	__ccov150_start_blk2	; block 2 START_ADDR
  8879  0C2C  000004CD           	ddw	__ccov150_end_blk2	; block 2 END_ADDR
  8880  0C30  000004BF           	ddw	_close	; block 0 START_ADDR
  8881  0C34  000004C3           	ddw	__ccov148_end_blk0	; block 0 END_ADDR
  8882                           
  8883                           ; Function: close, coverage: 5,4,2,0
  8884  0C38  00000000           	ddw	0	; CC_ADDR_SPACE=Data
  8885  0C3C  0000002F           	ddw	__ccovbit5_61/(0+8)	; CC_ADDR
  8886  0C40  00000001           	ddw	1	; NUM_POINTS
  8887  0C44  00000004           	ddw	__ccovbit5_61& (0+7)	; OFFSET
  8888  0C48  00000000           	ddw	0	; Reserved
  8889  0C4C  FFFFFFFF           	ddw	4294967295	; RANGE_SPACE=restricted
  8890  0C50  00000004           	ddw	4	; NUM_RANGES
  8891  0C54  000004D9           	ddw	__ccov153_start_blk5	; block 5 START_ADDR
  8892  0C58  000004DD           	ddw	__ccov153_end_blk5	; block 5 END_ADDR
  8893  0C5C  000004D3           	ddw	__ccov152_start_blk4	; block 4 START_ADDR
  8894  0C60  000004D9           	ddw	__ccov152_end_blk4	; block 4 END_ADDR
  8895  0C64  000004C9           	ddw	__ccov150_start_blk2	; block 2 START_ADDR
  8896  0C68  000004CD           	ddw	__ccov150_end_blk2	; block 2 END_ADDR
  8897  0C6C  000004BF           	ddw	_close	; block 0 START_ADDR
  8898  0C70  000004C3           	ddw	__ccov148_end_blk0	; block 0 END_ADDR
  8899                           
  8900                           ; Function: close, coverage: 9,0
  8901  0C74  00000000           	ddw	0	; CC_ADDR_SPACE=Data
  8902  0C78  0000002F           	ddw	__ccovbit9_62/(0+8)	; CC_ADDR
  8903  0C7C  00000001           	ddw	1	; NUM_POINTS
  8904  0C80  00000003           	ddw	__ccovbit9_62& (0+7)	; OFFSET
  8905  0C84  00000000           	ddw	0	; Reserved
  8906  0C88  FFFFFFFF           	ddw	4294967295	; RANGE_SPACE=restricted
  8907  0C8C  00000002           	ddw	2	; NUM_RANGES
  8908  0C90  000004DD           	ddw	__ccov154_start_blk9	; block 9 START_ADDR
  8909  0C94  000004E0           	ddw	__end_of_close	; block 9 END_ADDR
  8910  0C98  000004BF           	ddw	_close	; block 0 START_ADDR
  8911  0C9C  000004C3           	ddw	__ccov148_end_blk0	; block 0 END_ADDR
  8912                           
  8913                           ; Function: open, coverage: 1,0
  8914  0CA0  00000000           	ddw	0	; CC_ADDR_SPACE=Data
  8915  0CA4  0000002F           	ddw	__ccovbit1_63/(0+8)	; CC_ADDR
  8916  0CA8  00000001           	ddw	1	; NUM_POINTS
  8917  0CAC  00000002           	ddw	__ccovbit1_63& (0+7)	; OFFSET
  8918  0CB0  00000000           	ddw	0	; Reserved
  8919  0CB4  FFFFFFFF           	ddw	4294967295	; RANGE_SPACE=restricted
  8920  0CB8  00000002           	ddw	2	; NUM_RANGES
  8921  0CBC  000004A2           	ddw	__ccov156_start_blk1	; block 1 START_ADDR
  8922  0CC0  000004A8           	ddw	__ccov156_end_blk1	; block 1 END_ADDR
  8923  0CC4  0000049E           	ddw	_open	; block 0 START_ADDR
  8924  0CC8  000004A2           	ddw	__ccov155_end_blk0	; block 0 END_ADDR
  8925                           
  8926                           ; Function: open, coverage: 3,2,0
  8927  0CCC  00000000           	ddw	0	; CC_ADDR_SPACE=Data
  8928  0CD0  0000002F           	ddw	__ccovbit3_64/(0+8)	; CC_ADDR
  8929  0CD4  00000001           	ddw	1	; NUM_POINTS
  8930  0CD8  00000001           	ddw	__ccovbit3_64& (0+7)	; OFFSET
  8931  0CDC  00000000           	ddw	0	; Reserved
  8932  0CE0  FFFFFFFF           	ddw	4294967295	; RANGE_SPACE=restricted
  8933  0CE4  00000003           	ddw	3	; NUM_RANGES
  8934  0CE8  000004AC           	ddw	__ccov158_start_blk3	; block 3 START_ADDR
  8935  0CEC  000004B2           	ddw	__ccov158_end_blk3	; block 3 END_ADDR
  8936  0CF0  000004A8           	ddw	__ccov157_start_blk2	; block 2 START_ADDR
  8937  0CF4  000004AC           	ddw	__ccov157_end_blk2	; block 2 END_ADDR
  8938  0CF8  0000049E           	ddw	_open	; block 0 START_ADDR
  8939  0CFC  000004A2           	ddw	__ccov155_end_blk0	; block 0 END_ADDR
  8940                           
  8941                           ; Function: open, coverage: 4,2,0
  8942  0D00  00000000           	ddw	0	; CC_ADDR_SPACE=Data
  8943  0D04  0000002F           	ddw	__ccovbit4_65/(0+8)	; CC_ADDR
  8944  0D08  00000001           	ddw	1	; NUM_POINTS
  8945  0D0C  00000000           	ddw	__ccovbit4_65& (0+7)	; OFFSET
  8946  0D10  00000000           	ddw	0	; Reserved
  8947  0D14  FFFFFFFF           	ddw	4294967295	; RANGE_SPACE=restricted
  8948  0D18  00000003           	ddw	3	; NUM_RANGES
  8949  0D1C  000004B2           	ddw	__ccov159_start_blk4	; block 4 START_ADDR
  8950  0D20  000004B8           	ddw	__ccov159_end_blk4	; block 4 END_ADDR
  8951  0D24  000004A8           	ddw	__ccov157_start_blk2	; block 2 START_ADDR
  8952  0D28  000004AC           	ddw	__ccov157_end_blk2	; block 2 END_ADDR
  8953  0D2C  0000049E           	ddw	_open	; block 0 START_ADDR
  8954  0D30  000004A2           	ddw	__ccov155_end_blk0	; block 0 END_ADDR
  8955                           
  8956                           ; Function: open, coverage: 5,4,2,0
  8957  0D34  00000000           	ddw	0	; CC_ADDR_SPACE=Data
  8958  0D38  0000002E           	ddw	__ccovbit5_66/(0+8)	; CC_ADDR
  8959  0D3C  00000001           	ddw	1	; NUM_POINTS
  8960  0D40  00000007           	ddw	__ccovbit5_66& (0+7)	; OFFSET
  8961  0D44  00000000           	ddw	0	; Reserved
  8962  0D48  FFFFFFFF           	ddw	4294967295	; RANGE_SPACE=restricted
  8963  0D4C  00000004           	ddw	4	; NUM_RANGES
  8964  0D50  000004B8           	ddw	__ccov160_start_blk5	; block 5 START_ADDR
  8965  0D54  000004BC           	ddw	__ccov160_end_blk5	; block 5 END_ADDR
  8966  0D58  000004B2           	ddw	__ccov159_start_blk4	; block 4 START_ADDR
  8967  0D5C  000004B8           	ddw	__ccov159_end_blk4	; block 4 END_ADDR
  8968  0D60  000004A8           	ddw	__ccov157_start_blk2	; block 2 START_ADDR
  8969  0D64  000004AC           	ddw	__ccov157_end_blk2	; block 2 END_ADDR
  8970  0D68  0000049E           	ddw	_open	; block 0 START_ADDR
  8971  0D6C  000004A2           	ddw	__ccov155_end_blk0	; block 0 END_ADDR
  8972                           
  8973                           ; Function: open, coverage: 9,0
  8974  0D70  00000000           	ddw	0	; CC_ADDR_SPACE=Data
  8975  0D74  0000002E           	ddw	__ccovbit9_67/(0+8)	; CC_ADDR
  8976  0D78  00000001           	ddw	1	; NUM_POINTS
  8977  0D7C  00000006           	ddw	__ccovbit9_67& (0+7)	; OFFSET
  8978  0D80  00000000           	ddw	0	; Reserved
  8979  0D84  FFFFFFFF           	ddw	4294967295	; RANGE_SPACE=restricted
  8980  0D88  00000002           	ddw	2	; NUM_RANGES
  8981  0D8C  000004BC           	ddw	__ccov161_start_blk9	; block 9 START_ADDR
  8982  0D90  000004BF           	ddw	__end_of_open	; block 9 END_ADDR
  8983  0D94  0000049E           	ddw	_open	; block 0 START_ADDR
  8984  0D98  000004A2           	ddw	__ccov155_end_blk0	; block 0 END_ADDR
  8985                           
  8986                           ; Function: rele_tick, coverage: 1,0
  8987  0D9C  00000000           	ddw	0	; CC_ADDR_SPACE=Data
  8988  0DA0  0000002E           	ddw	__ccovbit1_68/(0+8)	; CC_ADDR
  8989  0DA4  00000001           	ddw	1	; NUM_POINTS
  8990  0DA8  00000005           	ddw	__ccovbit1_68& (0+7)	; OFFSET
  8991  0DAC  00000000           	ddw	0	; Reserved
  8992  0DB0  FFFFFFFF           	ddw	4294967295	; RANGE_SPACE=restricted
  8993  0DB4  00000002           	ddw	2	; NUM_RANGES
  8994  0DB8  000001A1           	ddw	__ccov163_start_blk1	; block 1 START_ADDR
  8995  0DBC  000001A8           	ddw	__ccov163_end_blk1	; block 1 END_ADDR
  8996  0DC0  0000019D           	ddw	_rele_tick	; block 0 START_ADDR
  8997  0DC4  000001A1           	ddw	__ccov162_end_blk0	; block 0 END_ADDR
  8998                           
  8999                           ; Function: rele_tick, coverage: 4,3,0
  9000  0DC8  00000000           	ddw	0	; CC_ADDR_SPACE=Data
  9001  0DCC  0000002E           	ddw	__ccovbit4_69/(0+8)	; CC_ADDR
  9002  0DD0  00000001           	ddw	1	; NUM_POINTS
  9003  0DD4  00000004           	ddw	__ccovbit4_69& (0+7)	; OFFSET
  9004  0DD8  00000000           	ddw	0	; Reserved
  9005  0DDC  FFFFFFFF           	ddw	4294967295	; RANGE_SPACE=restricted
  9006  0DE0  00000003           	ddw	3	; NUM_RANGES
  9007  0DE4  000001AC           	ddw	__ccov165_start_blk4	; block 4 START_ADDR
  9008  0DE8  000001B4           	ddw	__ccov165_end_blk4	; block 4 END_ADDR
  9009  0DEC  000001A8           	ddw	__ccov164_start_blk3	; block 3 START_ADDR
  9010  0DF0  000001AC           	ddw	__ccov164_end_blk3	; block 3 END_ADDR
  9011  0DF4  0000019D           	ddw	_rele_tick	; block 0 START_ADDR
  9012  0DF8  000001A1           	ddw	__ccov162_end_blk0	; block 0 END_ADDR
  9013                           
  9014                           ; Function: rele_tick, coverage: 6,5,4,3,0
  9015  0DFC  00000000           	ddw	0	; CC_ADDR_SPACE=Data
  9016  0E00  0000002E           	ddw	__ccovbit6_70/(0+8)	; CC_ADDR
  9017  0E04  00000001           	ddw	1	; NUM_POINTS
  9018  0E08  00000003           	ddw	__ccovbit6_70& (0+7)	; OFFSET
  9019  0E0C  00000000           	ddw	0	; Reserved
  9020  0E10  FFFFFFFF           	ddw	4294967295	; RANGE_SPACE=restricted
  9021  0E14  00000005           	ddw	5	; NUM_RANGES
  9022  0E18  000001B8           	ddw	__ccov167_start_blk6	; block 6 START_ADDR
  9023  0E1C  000001BF           	ddw	__ccov167_end_blk6	; block 6 END_ADDR
  9024  0E20  000001B4           	ddw	__ccov166_start_blk5	; block 5 START_ADDR
  9025  0E24  000001B8           	ddw	__ccov166_end_blk5	; block 5 END_ADDR
  9026  0E28  000001AC           	ddw	__ccov165_start_blk4	; block 4 START_ADDR
  9027  0E2C  000001B4           	ddw	__ccov165_end_blk4	; block 4 END_ADDR
  9028  0E30  000001A8           	ddw	__ccov164_start_blk3	; block 3 START_ADDR
  9029  0E34  000001AC           	ddw	__ccov164_end_blk3	; block 3 END_ADDR
  9030  0E38  0000019D           	ddw	_rele_tick	; block 0 START_ADDR
  9031  0E3C  000001A1           	ddw	__ccov162_end_blk0	; block 0 END_ADDR
  9032                           
  9033                           ; Function: rele_tick, coverage: 7,6,5,4,3,0
  9034  0E40  00000000           	ddw	0	; CC_ADDR_SPACE=Data
  9035  0E44  0000002E           	ddw	__ccovbit7_71/(0+8)	; CC_ADDR
  9036  0E48  00000001           	ddw	1	; NUM_POINTS
  9037  0E4C  00000002           	ddw	__ccovbit7_71& (0+7)	; OFFSET
  9038  0E50  00000000           	ddw	0	; Reserved
  9039  0E54  FFFFFFFF           	ddw	4294967295	; RANGE_SPACE=restricted
  9040  0E58  00000006           	ddw	6	; NUM_RANGES
  9041  0E5C  000001BF           	ddw	__ccov168_start_blk7	; block 7 START_ADDR
  9042  0E60  000001C3           	ddw	__ccov168_end_blk7	; block 7 END_ADDR
  9043  0E64  000001B8           	ddw	__ccov167_start_blk6	; block 6 START_ADDR
  9044  0E68  000001BF           	ddw	__ccov167_end_blk6	; block 6 END_ADDR
  9045  0E6C  000001B4           	ddw	__ccov166_start_blk5	; block 5 START_ADDR
  9046  0E70  000001B8           	ddw	__ccov166_end_blk5	; block 5 END_ADDR
  9047  0E74  000001AC           	ddw	__ccov165_start_blk4	; block 4 START_ADDR
  9048  0E78  000001B4           	ddw	__ccov165_end_blk4	; block 4 END_ADDR
  9049  0E7C  000001A8           	ddw	__ccov164_start_blk3	; block 3 START_ADDR
  9050  0E80  000001AC           	ddw	__ccov164_end_blk3	; block 3 END_ADDR
  9051  0E84  0000019D           	ddw	_rele_tick	; block 0 START_ADDR
  9052  0E88  000001A1           	ddw	__ccov162_end_blk0	; block 0 END_ADDR
  9053                           
  9054                           ; Function: rele_tick, coverage: 10,3,0
  9055  0E8C  00000000           	ddw	0	; CC_ADDR_SPACE=Data
  9056  0E90  0000002E           	ddw	__ccovbit10_72/(0+8)	; CC_ADDR
  9057  0E94  00000001           	ddw	1	; NUM_POINTS
  9058  0E98  00000001           	ddw	__ccovbit10_72& (0+7)	; OFFSET
  9059  0E9C  00000000           	ddw	0	; Reserved
  9060  0EA0  FFFFFFFF           	ddw	4294967295	; RANGE_SPACE=restricted
  9061  0EA4  00000003           	ddw	3	; NUM_RANGES
  9062  0EA8  000001C3           	ddw	__ccov169_start_blk10	; block 10 START_ADDR
  9063  0EAC  000001C9           	ddw	__ccov169_end_blk10	; block 10 END_ADDR
  9064  0EB0  000001A8           	ddw	__ccov164_start_blk3	; block 3 START_ADDR
  9065  0EB4  000001AC           	ddw	__ccov164_end_blk3	; block 3 END_ADDR
  9066  0EB8  0000019D           	ddw	_rele_tick	; block 0 START_ADDR
  9067  0EBC  000001A1           	ddw	__ccov162_end_blk0	; block 0 END_ADDR
  9068                           
  9069                           ; Function: rele_tick, coverage: 14,13,12,11,10,3,0
  9070  0EC0  00000000           	ddw	0	; CC_ADDR_SPACE=Data
  9071  0EC4  0000002E           	ddw	__ccovbit14_73/(0+8)	; CC_ADDR
  9072  0EC8  00000001           	ddw	1	; NUM_POINTS
  9073  0ECC  00000000           	ddw	__ccovbit14_73& (0+7)	; OFFSET
  9074  0ED0  00000000           	ddw	0	; Reserved
  9075  0ED4  FFFFFFFF           	ddw	4294967295	; RANGE_SPACE=restricted
  9076  0ED8  00000007           	ddw	7	; NUM_RANGES
  9077  0EDC  000001D6           	ddw	__ccov173_start_blk14	; block 14 START_ADDR
  9078  0EE0  000001DC           	ddw	__ccov173_end_blk14	; block 14 END_ADDR
  9079  0EE4  000001D5           	ddw	__ccov172_start_blk13	; block 13 START_ADDR
  9080  0EE8  000001D6           	ddw	__ccov172_end_blk13	; block 13 END_ADDR
  9081  0EEC  000001CF           	ddw	__ccov171_start_blk12	; block 12 START_ADDR
  9082  0EF0  000001D5           	ddw	__ccov171_end_blk12	; block 12 END_ADDR
  9083  0EF4  000001C9           	ddw	__ccov170_start_blk11	; block 11 START_ADDR
  9084  0EF8  000001CF           	ddw	__ccov170_end_blk11	; block 11 END_ADDR
  9085  0EFC  000001C3           	ddw	__ccov169_start_blk10	; block 10 START_ADDR
  9086  0F00  000001C9           	ddw	__ccov169_end_blk10	; block 10 END_ADDR
  9087  0F04  000001A8           	ddw	__ccov164_start_blk3	; block 3 START_ADDR
  9088  0F08  000001AC           	ddw	__ccov164_end_blk3	; block 3 END_ADDR
  9089  0F0C  0000019D           	ddw	_rele_tick	; block 0 START_ADDR
  9090  0F10  000001A1           	ddw	__ccov162_end_blk0	; block 0 END_ADDR
  9091                           
  9092                           ; Function: rele_tick, coverage: 15,12,11,10,3,0
  9093  0F14  00000000           	ddw	0	; CC_ADDR_SPACE=Data
  9094  0F18  0000002D           	ddw	__ccovbit15_74/(0+8)	; CC_ADDR
  9095  0F1C  00000001           	ddw	1	; NUM_POINTS
  9096  0F20  00000007           	ddw	__ccovbit15_74& (0+7)	; OFFSET
  9097  0F24  00000000           	ddw	0	; Reserved
  9098  0F28  FFFFFFFF           	ddw	4294967295	; RANGE_SPACE=restricted
  9099  0F2C  00000006           	ddw	6	; NUM_RANGES
  9100  0F30  000001DC           	ddw	__ccov174_start_blk15	; block 15 START_ADDR
  9101  0F34  000001DF           	ddw	__ccov174_end_blk15	; block 15 END_ADDR
  9102  0F38  000001CF           	ddw	__ccov171_start_blk12	; block 12 START_ADDR
  9103  0F3C  000001D5           	ddw	__ccov171_end_blk12	; block 12 END_ADDR
  9104  0F40  000001C9           	ddw	__ccov170_start_blk11	; block 11 START_ADDR
  9105  0F44  000001CF           	ddw	__ccov170_end_blk11	; block 11 END_ADDR
  9106  0F48  000001C3           	ddw	__ccov169_start_blk10	; block 10 START_ADDR
  9107  0F4C  000001C9           	ddw	__ccov169_end_blk10	; block 10 END_ADDR
  9108  0F50  000001A8           	ddw	__ccov164_start_blk3	; block 3 START_ADDR
  9109  0F54  000001AC           	ddw	__ccov164_end_blk3	; block 3 END_ADDR
  9110  0F58  0000019D           	ddw	_rele_tick	; block 0 START_ADDR
  9111  0F5C  000001A1           	ddw	__ccov162_end_blk0	; block 0 END_ADDR
  9112                           
  9113                           ; Function: rele_tick, coverage: 18,11,10,3,0
  9114  0F60  00000000           	ddw	0	; CC_ADDR_SPACE=Data
  9115  0F64  0000002D           	ddw	__ccovbit18_75/(0+8)	; CC_ADDR
  9116  0F68  00000001           	ddw	1	; NUM_POINTS
  9117  0F6C  00000006           	ddw	__ccovbit18_75& (0+7)	; OFFSET
  9118  0F70  00000000           	ddw	0	; Reserved
  9119  0F74  FFFFFFFF           	ddw	4294967295	; RANGE_SPACE=restricted
  9120  0F78  00000005           	ddw	5	; NUM_RANGES
  9121  0F7C  000001DF           	ddw	__ccov175_start_blk18	; block 18 START_ADDR
  9122  0F80  000001E4           	ddw	__ccov175_end_blk18	; block 18 END_ADDR
  9123  0F84  000001C9           	ddw	__ccov170_start_blk11	; block 11 START_ADDR
  9124  0F88  000001CF           	ddw	__ccov170_end_blk11	; block 11 END_ADDR
  9125  0F8C  000001C3           	ddw	__ccov169_start_blk10	; block 10 START_ADDR
  9126  0F90  000001C9           	ddw	__ccov169_end_blk10	; block 10 END_ADDR
  9127  0F94  000001A8           	ddw	__ccov164_start_blk3	; block 3 START_ADDR
  9128  0F98  000001AC           	ddw	__ccov164_end_blk3	; block 3 END_ADDR
  9129  0F9C  0000019D           	ddw	_rele_tick	; block 0 START_ADDR
  9130  0FA0  000001A1           	ddw	__ccov162_end_blk0	; block 0 END_ADDR
  9131                           
  9132                           ; Function: rele_tick, coverage: 20,11,10,3,0
  9133  0FA4  00000000           	ddw	0	; CC_ADDR_SPACE=Data
  9134  0FA8  0000002D           	ddw	__ccovbit20_76/(0+8)	; CC_ADDR
  9135  0FAC  00000001           	ddw	1	; NUM_POINTS
  9136  0FB0  00000005           	ddw	__ccovbit20_76& (0+7)	; OFFSET
  9137  0FB4  00000000           	ddw	0	; Reserved
  9138  0FB8  FFFFFFFF           	ddw	4294967295	; RANGE_SPACE=restricted
  9139  0FBC  00000005           	ddw	5	; NUM_RANGES
  9140  0FC0  000001E4           	ddw	__ccov176_start_blk20	; block 20 START_ADDR
  9141  0FC4  000001EB           	ddw	__ccov176_end_blk20	; block 20 END_ADDR
  9142  0FC8  000001C9           	ddw	__ccov170_start_blk11	; block 11 START_ADDR
  9143  0FCC  000001CF           	ddw	__ccov170_end_blk11	; block 11 END_ADDR
  9144  0FD0  000001C3           	ddw	__ccov169_start_blk10	; block 10 START_ADDR
  9145  0FD4  000001C9           	ddw	__ccov169_end_blk10	; block 10 END_ADDR
  9146  0FD8  000001A8           	ddw	__ccov164_start_blk3	; block 3 START_ADDR
  9147  0FDC  000001AC           	ddw	__ccov164_end_blk3	; block 3 END_ADDR
  9148  0FE0  0000019D           	ddw	_rele_tick	; block 0 START_ADDR
  9149  0FE4  000001A1           	ddw	__ccov162_end_blk0	; block 0 END_ADDR
  9150                           
  9151                           ; Function: rele_tick, coverage: 22,21,20,11,10,3,0
  9152  0FE8  00000000           	ddw	0	; CC_ADDR_SPACE=Data
  9153  0FEC  0000002D           	ddw	__ccovbit22_77/(0+8)	; CC_ADDR
  9154  0FF0  00000001           	ddw	1	; NUM_POINTS
  9155  0FF4  00000004           	ddw	__ccovbit22_77& (0+7)	; OFFSET
  9156  0FF8  00000000           	ddw	0	; Reserved
  9157  0FFC  FFFFFFFF           	ddw	4294967295	; RANGE_SPACE=restricted
  9158  1000  00000007           	ddw	7	; NUM_RANGES
  9159  1004  000001EF           	ddw	__ccov178_start_blk22	; block 22 START_ADDR
  9160  1008  000001F6           	ddw	__ccov178_end_blk22	; block 22 END_ADDR
  9161  100C  000001EB           	ddw	__ccov177_start_blk21	; block 21 START_ADDR
  9162  1010  000001EF           	ddw	__ccov177_end_blk21	; block 21 END_ADDR
  9163  1014  000001E4           	ddw	__ccov176_start_blk20	; block 20 START_ADDR
  9164  1018  000001EB           	ddw	__ccov176_end_blk20	; block 20 END_ADDR
  9165  101C  000001C9           	ddw	__ccov170_start_blk11	; block 11 START_ADDR
  9166  1020  000001CF           	ddw	__ccov170_end_blk11	; block 11 END_ADDR
  9167  1024  000001C3           	ddw	__ccov169_start_blk10	; block 10 START_ADDR
  9168  1028  000001C9           	ddw	__ccov169_end_blk10	; block 10 END_ADDR
  9169  102C  000001A8           	ddw	__ccov164_start_blk3	; block 3 START_ADDR
  9170  1030  000001AC           	ddw	__ccov164_end_blk3	; block 3 END_ADDR
  9171  1034  0000019D           	ddw	_rele_tick	; block 0 START_ADDR
  9172  1038  000001A1           	ddw	__ccov162_end_blk0	; block 0 END_ADDR
  9173                           
  9174                           ; Function: rele_tick, coverage: 23,22,21,20,11,10,3,0
  9175  103C  00000000           	ddw	0	; CC_ADDR_SPACE=Data
  9176  1040  0000002D           	ddw	__ccovbit23_78/(0+8)	; CC_ADDR
  9177  1044  00000001           	ddw	1	; NUM_POINTS
  9178  1048  00000003           	ddw	__ccovbit23_78& (0+7)	; OFFSET
  9179  104C  00000000           	ddw	0	; Reserved
  9180  1050  FFFFFFFF           	ddw	4294967295	; RANGE_SPACE=restricted
  9181  1054  00000008           	ddw	8	; NUM_RANGES
  9182  1058  000001F6           	ddw	__ccov179_start_blk23	; block 23 START_ADDR
  9183  105C  000001FA           	ddw	__ccov179_end_blk23	; block 23 END_ADDR
  9184  1060  000001EF           	ddw	__ccov178_start_blk22	; block 22 START_ADDR
  9185  1064  000001F6           	ddw	__ccov178_end_blk22	; block 22 END_ADDR
  9186  1068  000001EB           	ddw	__ccov177_start_blk21	; block 21 START_ADDR
  9187  106C  000001EF           	ddw	__ccov177_end_blk21	; block 21 END_ADDR
  9188  1070  000001E4           	ddw	__ccov176_start_blk20	; block 20 START_ADDR
  9189  1074  000001EB           	ddw	__ccov176_end_blk20	; block 20 END_ADDR
  9190  1078  000001C9           	ddw	__ccov170_start_blk11	; block 11 START_ADDR
  9191  107C  000001CF           	ddw	__ccov170_end_blk11	; block 11 END_ADDR
  9192  1080  000001C3           	ddw	__ccov169_start_blk10	; block 10 START_ADDR
  9193  1084  000001C9           	ddw	__ccov169_end_blk10	; block 10 END_ADDR
  9194  1088  000001A8           	ddw	__ccov164_start_blk3	; block 3 START_ADDR
  9195  108C  000001AC           	ddw	__ccov164_end_blk3	; block 3 END_ADDR
  9196  1090  0000019D           	ddw	_rele_tick	; block 0 START_ADDR
  9197  1094  000001A1           	ddw	__ccov162_end_blk0	; block 0 END_ADDR
  9198                           
  9199                           ; Function: rele_tick, coverage: 27,0
  9200  1098  00000000           	ddw	0	; CC_ADDR_SPACE=Data
  9201  109C  0000002D           	ddw	__ccovbit27_79/(0+8)	; CC_ADDR
  9202  10A0  00000001           	ddw	1	; NUM_POINTS
  9203  10A4  00000002           	ddw	__ccovbit27_79& (0+7)	; OFFSET
  9204  10A8  00000000           	ddw	0	; Reserved
  9205  10AC  FFFFFFFF           	ddw	4294967295	; RANGE_SPACE=restricted
  9206  10B0  00000002           	ddw	2	; NUM_RANGES
  9207  10B4  000001FA           	ddw	__ccov180_start_blk27	; block 27 START_ADDR
  9208  10B8  000001FC           	ddw	__end_of_rele_tick	; block 27 END_ADDR
  9209  10BC  0000019D           	ddw	_rele_tick	; block 0 START_ADDR
  9210  10C0  000001A1           	ddw	__ccov162_end_blk0	; block 0 END_ADDR
  9211                           
  9212                           ; Function: start_alarm, coverage: 2,1,0
  9213  10C4  00000000           	ddw	0	; CC_ADDR_SPACE=Data
  9214  10C8  0000002D           	ddw	__ccovbit2_80/(0+8)	; CC_ADDR
  9215  10CC  00000001           	ddw	1	; NUM_POINTS
  9216  10D0  00000001           	ddw	__ccovbit2_80& (0+7)	; OFFSET
  9217  10D4  00000000           	ddw	0	; Reserved
  9218  10D8  FFFFFFFF           	ddw	4294967295	; RANGE_SPACE=restricted
  9219  10DC  00000003           	ddw	3	; NUM_RANGES
  9220  10E0  0000069C           	ddw	__ccov183_start_blk2	; block 2 START_ADDR
  9221  10E4  0000069E           	ddw	__end_of_start_alarm	; block 2 END_ADDR
  9222  10E8  0000069A           	ddw	__ccov182_start_blk1	; block 1 START_ADDR
  9223  10EC  0000069C           	ddw	__ccov182_end_blk1	; block 1 END_ADDR
  9224  10F0  00000696           	ddw	_start_alarm	; block 0 START_ADDR
  9225  10F4  0000069A           	ddw	__ccov181_end_blk0	; block 0 END_ADDR
  9226                           
  9227                           ; Function: clear_alarm, coverage: 1,0
  9228  10F8  00000000           	ddw	0	; CC_ADDR_SPACE=Data
  9229  10FC  0000002D           	ddw	__ccovbit1_81/(0+8)	; CC_ADDR
  9230  1100  00000001           	ddw	1	; NUM_POINTS
  9231  1104  00000000           	ddw	__ccovbit1_81& (0+7)	; OFFSET
  9232  1108  00000000           	ddw	0	; Reserved
  9233  110C  FFFFFFFF           	ddw	4294967295	; RANGE_SPACE=restricted
  9234  1110  00000002           	ddw	2	; NUM_RANGES
  9235  1114  000006C5           	ddw	__ccov185_start_blk1	; block 1 START_ADDR
  9236  1118  000006C8           	ddw	__end_of_clear_alarm	; block 1 END_ADDR
  9237  111C  000006C3           	ddw	_clear_alarm	; block 0 START_ADDR
  9238  1120  000006C5           	ddw	__ccov184_end_blk0	; block 0 END_ADDR
  9239                           
  9240                           ; Function: fun_work, coverage: 1,0
  9241  1124  00000000           	ddw	0	; CC_ADDR_SPACE=Data
  9242  1128  0000002C           	ddw	__ccovbit1_82/(0+8)	; CC_ADDR
  9243  112C  00000001           	ddw	1	; NUM_POINTS
  9244  1130  00000007           	ddw	__ccovbit1_82& (0+7)	; OFFSET
  9245  1134  00000000           	ddw	0	; Reserved
  9246  1138  FFFFFFFF           	ddw	4294967295	; RANGE_SPACE=restricted
  9247  113C  00000002           	ddw	2	; NUM_RANGES
  9248  1140  00000200           	ddw	__ccov187_start_blk1	; block 1 START_ADDR
  9249  1144  00000206           	ddw	__ccov187_end_blk1	; block 1 END_ADDR
  9250  1148  000001FC           	ddw	_fun_work	; block 0 START_ADDR
  9251  114C  00000200           	ddw	__ccov186_end_blk0	; block 0 END_ADDR
  9252                           
  9253                           ; Function: fun_work, coverage: 2,1,0
  9254  1150  00000000           	ddw	0	; CC_ADDR_SPACE=Data
  9255  1154  0000002C           	ddw	__ccovbit2_83/(0+8)	; CC_ADDR
  9256  1158  00000001           	ddw	1	; NUM_POINTS
  9257  115C  00000006           	ddw	__ccovbit2_83& (0+7)	; OFFSET
  9258  1160  00000000           	ddw	0	; Reserved
  9259  1164  FFFFFFFF           	ddw	4294967295	; RANGE_SPACE=restricted
  9260  1168  00000003           	ddw	3	; NUM_RANGES
  9261  116C  00000206           	ddw	__ccov188_start_blk2	; block 2 START_ADDR
  9262  1170  0000020B           	ddw	__ccov188_end_blk2	; block 2 END_ADDR
  9263  1174  00000200           	ddw	__ccov187_start_blk1	; block 1 START_ADDR
  9264  1178  00000206           	ddw	__ccov187_end_blk1	; block 1 END_ADDR
  9265  117C  000001FC           	ddw	_fun_work	; block 0 START_ADDR
  9266  1180  00000200           	ddw	__ccov186_end_blk0	; block 0 END_ADDR
  9267                           
  9268                           ; Function: fun_work, coverage: 3,2,1,0
  9269  1184  00000000           	ddw	0	; CC_ADDR_SPACE=Data
  9270  1188  0000002C           	ddw	__ccovbit3_84/(0+8)	; CC_ADDR
  9271  118C  00000001           	ddw	1	; NUM_POINTS
  9272  1190  00000005           	ddw	__ccovbit3_84& (0+7)	; OFFSET
  9273  1194  00000000           	ddw	0	; Reserved
  9274  1198  FFFFFFFF           	ddw	4294967295	; RANGE_SPACE=restricted
  9275  119C  00000004           	ddw	4	; NUM_RANGES
  9276  11A0  0000020B           	ddw	__ccov189_start_blk3	; block 3 START_ADDR
  9277  11A4  00000210           	ddw	__ccov189_end_blk3	; block 3 END_ADDR
  9278  11A8  00000206           	ddw	__ccov188_start_blk2	; block 2 START_ADDR
  9279  11AC  0000020B           	ddw	__ccov188_end_blk2	; block 2 END_ADDR
  9280  11B0  00000200           	ddw	__ccov187_start_blk1	; block 1 START_ADDR
  9281  11B4  00000206           	ddw	__ccov187_end_blk1	; block 1 END_ADDR
  9282  11B8  000001FC           	ddw	_fun_work	; block 0 START_ADDR
  9283  11BC  00000200           	ddw	__ccov186_end_blk0	; block 0 END_ADDR
  9284                           
  9285                           ; Function: fun_work, coverage: 4,3,2,1,0
  9286  11C0  00000000           	ddw	0	; CC_ADDR_SPACE=Data
  9287  11C4  0000002C           	ddw	__ccovbit4_85/(0+8)	; CC_ADDR
  9288  11C8  00000001           	ddw	1	; NUM_POINTS
  9289  11CC  00000004           	ddw	__ccovbit4_85& (0+7)	; OFFSET
  9290  11D0  00000000           	ddw	0	; Reserved
  9291  11D4  FFFFFFFF           	ddw	4294967295	; RANGE_SPACE=restricted
  9292  11D8  00000005           	ddw	5	; NUM_RANGES
  9293  11DC  00000210           	ddw	__ccov190_start_blk4	; block 4 START_ADDR
  9294  11E0  00000215           	ddw	__ccov190_end_blk4	; block 4 END_ADDR
  9295  11E4  0000020B           	ddw	__ccov189_start_blk3	; block 3 START_ADDR
  9296  11E8  00000210           	ddw	__ccov189_end_blk3	; block 3 END_ADDR
  9297  11EC  00000206           	ddw	__ccov188_start_blk2	; block 2 START_ADDR
  9298  11F0  0000020B           	ddw	__ccov188_end_blk2	; block 2 END_ADDR
  9299  11F4  00000200           	ddw	__ccov187_start_blk1	; block 1 START_ADDR
  9300  11F8  00000206           	ddw	__ccov187_end_blk1	; block 1 END_ADDR
  9301  11FC  000001FC           	ddw	_fun_work	; block 0 START_ADDR
  9302  1200  00000200           	ddw	__ccov186_end_blk0	; block 0 END_ADDR
  9303                           
  9304                           ; Function: fun_work, coverage: 5,4,3,2,1,0
  9305  1204  00000000           	ddw	0	; CC_ADDR_SPACE=Data
  9306  1208  0000002C           	ddw	__ccovbit5_86/(0+8)	; CC_ADDR
  9307  120C  00000001           	ddw	1	; NUM_POINTS
  9308  1210  00000003           	ddw	__ccovbit5_86& (0+7)	; OFFSET
  9309  1214  00000000           	ddw	0	; Reserved
  9310  1218  FFFFFFFF           	ddw	4294967295	; RANGE_SPACE=restricted
  9311  121C  00000006           	ddw	6	; NUM_RANGES
  9312  1220  00000215           	ddw	__ccov191_start_blk5	; block 5 START_ADDR
  9313  1224  0000021A           	ddw	__ccov191_end_blk5	; block 5 END_ADDR
  9314  1228  00000210           	ddw	__ccov190_start_blk4	; block 4 START_ADDR
  9315  122C  00000215           	ddw	__ccov190_end_blk4	; block 4 END_ADDR
  9316  1230  0000020B           	ddw	__ccov189_start_blk3	; block 3 START_ADDR
  9317  1234  00000210           	ddw	__ccov189_end_blk3	; block 3 END_ADDR
  9318  1238  00000206           	ddw	__ccov188_start_blk2	; block 2 START_ADDR
  9319  123C  0000020B           	ddw	__ccov188_end_blk2	; block 2 END_ADDR
  9320  1240  00000200           	ddw	__ccov187_start_blk1	; block 1 START_ADDR
  9321  1244  00000206           	ddw	__ccov187_end_blk1	; block 1 END_ADDR
  9322  1248  000001FC           	ddw	_fun_work	; block 0 START_ADDR
  9323  124C  00000200           	ddw	__ccov186_end_blk0	; block 0 END_ADDR
  9324                           
  9325                           ; Function: fun_work, coverage: 6,5,4,3,2,1,0
  9326  1250  00000000           	ddw	0	; CC_ADDR_SPACE=Data
  9327  1254  0000002C           	ddw	__ccovbit6_87/(0+8)	; CC_ADDR
  9328  1258  00000001           	ddw	1	; NUM_POINTS
  9329  125C  00000002           	ddw	__ccovbit6_87& (0+7)	; OFFSET
  9330  1260  00000000           	ddw	0	; Reserved
  9331  1264  FFFFFFFF           	ddw	4294967295	; RANGE_SPACE=restricted
  9332  1268  00000007           	ddw	7	; NUM_RANGES
  9333  126C  0000021A           	ddw	__ccov192_start_blk6	; block 6 START_ADDR
  9334  1270  0000021F           	ddw	__ccov192_end_blk6	; block 6 END_ADDR
  9335  1274  00000215           	ddw	__ccov191_start_blk5	; block 5 START_ADDR
  9336  1278  0000021A           	ddw	__ccov191_end_blk5	; block 5 END_ADDR
  9337  127C  00000210           	ddw	__ccov190_start_blk4	; block 4 START_ADDR
  9338  1280  00000215           	ddw	__ccov190_end_blk4	; block 4 END_ADDR
  9339  1284  0000020B           	ddw	__ccov189_start_blk3	; block 3 START_ADDR
  9340  1288  00000210           	ddw	__ccov189_end_blk3	; block 3 END_ADDR
  9341  128C  00000206           	ddw	__ccov188_start_blk2	; block 2 START_ADDR
  9342  1290  0000020B           	ddw	__ccov188_end_blk2	; block 2 END_ADDR
  9343  1294  00000200           	ddw	__ccov187_start_blk1	; block 1 START_ADDR
  9344  1298  00000206           	ddw	__ccov187_end_blk1	; block 1 END_ADDR
  9345  129C  000001FC           	ddw	_fun_work	; block 0 START_ADDR
  9346  12A0  00000200           	ddw	__ccov186_end_blk0	; block 0 END_ADDR
  9347                           
  9348                           ; Function: fun_work, coverage: 8,7,6,5,4,3,2,1,0
  9349  12A4  00000000           	ddw	0	; CC_ADDR_SPACE=Data
  9350  12A8  0000002C           	ddw	__ccovbit8_88/(0+8)	; CC_ADDR
  9351  12AC  00000001           	ddw	1	; NUM_POINTS
  9352  12B0  00000001           	ddw	__ccovbit8_88& (0+7)	; OFFSET
  9353  12B4  00000000           	ddw	0	; Reserved
  9354  12B8  FFFFFFFF           	ddw	4294967295	; RANGE_SPACE=restricted
  9355  12BC  00000009           	ddw	9	; NUM_RANGES
  9356  12C0  00000221           	ddw	__ccov194_start_blk8	; block 8 START_ADDR
  9357  12C4  00000225           	ddw	__ccov194_end_blk8	; block 8 END_ADDR
  9358  12C8  0000021F           	ddw	__ccov193_start_blk7	; block 7 START_ADDR
  9359  12CC  00000221           	ddw	__ccov193_end_blk7	; block 7 END_ADDR
  9360  12D0  0000021A           	ddw	__ccov192_start_blk6	; block 6 START_ADDR
  9361  12D4  0000021F           	ddw	__ccov192_end_blk6	; block 6 END_ADDR
  9362  12D8  00000215           	ddw	__ccov191_start_blk5	; block 5 START_ADDR
  9363  12DC  0000021A           	ddw	__ccov191_end_blk5	; block 5 END_ADDR
  9364  12E0  00000210           	ddw	__ccov190_start_blk4	; block 4 START_ADDR
  9365  12E4  00000215           	ddw	__ccov190_end_blk4	; block 4 END_ADDR
  9366  12E8  0000020B           	ddw	__ccov189_start_blk3	; block 3 START_ADDR
  9367  12EC  00000210           	ddw	__ccov189_end_blk3	; block 3 END_ADDR
  9368  12F0  00000206           	ddw	__ccov188_start_blk2	; block 2 START_ADDR
  9369  12F4  0000020B           	ddw	__ccov188_end_blk2	; block 2 END_ADDR
  9370  12F8  00000200           	ddw	__ccov187_start_blk1	; block 1 START_ADDR
  9371  12FC  00000206           	ddw	__ccov187_end_blk1	; block 1 END_ADDR
  9372  1300  000001FC           	ddw	_fun_work	; block 0 START_ADDR
  9373  1304  00000200           	ddw	__ccov186_end_blk0	; block 0 END_ADDR
  9374                           
  9375                           ; Function: fun_work, coverage: 11,10,0
  9376  1308  00000000           	ddw	0	; CC_ADDR_SPACE=Data
  9377  130C  0000002C           	ddw	__ccovbit11_89/(0+8)	; CC_ADDR
  9378  1310  00000001           	ddw	1	; NUM_POINTS
  9379  1314  00000000           	ddw	__ccovbit11_89& (0+7)	; OFFSET
  9380  1318  00000000           	ddw	0	; Reserved
  9381  131C  FFFFFFFF           	ddw	4294967295	; RANGE_SPACE=restricted
  9382  1320  00000003           	ddw	3	; NUM_RANGES
  9383  1324  00000229           	ddw	__ccov196_start_blk11	; block 11 START_ADDR
  9384  1328  0000022F           	ddw	__ccov196_end_blk11	; block 11 END_ADDR
  9385  132C  00000225           	ddw	__ccov195_start_blk10	; block 10 START_ADDR
  9386  1330  00000229           	ddw	__ccov195_end_blk10	; block 10 END_ADDR
  9387  1334  000001FC           	ddw	_fun_work	; block 0 START_ADDR
  9388  1338  00000200           	ddw	__ccov186_end_blk0	; block 0 END_ADDR
  9389                           
  9390                           ; Function: fun_work, coverage: 12,11,10,0
  9391  133C  00000000           	ddw	0	; CC_ADDR_SPACE=Data
  9392  1340  0000002B           	ddw	__ccovbit12_90/(0+8)	; CC_ADDR
  9393  1344  00000001           	ddw	1	; NUM_POINTS
  9394  1348  00000007           	ddw	__ccovbit12_90& (0+7)	; OFFSET
  9395  134C  00000000           	ddw	0	; Reserved
  9396  1350  FFFFFFFF           	ddw	4294967295	; RANGE_SPACE=restricted
  9397  1354  00000004           	ddw	4	; NUM_RANGES
  9398  1358  0000022F           	ddw	__ccov197_start_blk12	; block 12 START_ADDR
  9399  135C  00000234           	ddw	__ccov197_end_blk12	; block 12 END_ADDR
  9400  1360  00000229           	ddw	__ccov196_start_blk11	; block 11 START_ADDR
  9401  1364  0000022F           	ddw	__ccov196_end_blk11	; block 11 END_ADDR
  9402  1368  00000225           	ddw	__ccov195_start_blk10	; block 10 START_ADDR
  9403  136C  00000229           	ddw	__ccov195_end_blk10	; block 10 END_ADDR
  9404  1370  000001FC           	ddw	_fun_work	; block 0 START_ADDR
  9405  1374  00000200           	ddw	__ccov186_end_blk0	; block 0 END_ADDR
  9406                           
  9407                           ; Function: fun_work, coverage: 13,12,11,10,0
  9408  1378  00000000           	ddw	0	; CC_ADDR_SPACE=Data
  9409  137C  0000002B           	ddw	__ccovbit13_91/(0+8)	; CC_ADDR
  9410  1380  00000001           	ddw	1	; NUM_POINTS
  9411  1384  00000006           	ddw	__ccovbit13_91& (0+7)	; OFFSET
  9412  1388  00000000           	ddw	0	; Reserved
  9413  138C  FFFFFFFF           	ddw	4294967295	; RANGE_SPACE=restricted
  9414  1390  00000005           	ddw	5	; NUM_RANGES
  9415  1394  00000234           	ddw	__ccov198_start_blk13	; block 13 START_ADDR
  9416  1398  00000239           	ddw	__ccov198_end_blk13	; block 13 END_ADDR
  9417  139C  0000022F           	ddw	__ccov197_start_blk12	; block 12 START_ADDR
  9418  13A0  00000234           	ddw	__ccov197_end_blk12	; block 12 END_ADDR
  9419  13A4  00000229           	ddw	__ccov196_start_blk11	; block 11 START_ADDR
  9420  13A8  0000022F           	ddw	__ccov196_end_blk11	; block 11 END_ADDR
  9421  13AC  00000225           	ddw	__ccov195_start_blk10	; block 10 START_ADDR
  9422  13B0  00000229           	ddw	__ccov195_end_blk10	; block 10 END_ADDR
  9423  13B4  000001FC           	ddw	_fun_work	; block 0 START_ADDR
  9424  13B8  00000200           	ddw	__ccov186_end_blk0	; block 0 END_ADDR
  9425                           
  9426                           ; Function: fun_work, coverage: 14,13,12,11,10,0
  9427  13BC  00000000           	ddw	0	; CC_ADDR_SPACE=Data
  9428  13C0  0000002B           	ddw	__ccovbit14_92/(0+8)	; CC_ADDR
  9429  13C4  00000001           	ddw	1	; NUM_POINTS
  9430  13C8  00000005           	ddw	__ccovbit14_92& (0+7)	; OFFSET
  9431  13CC  00000000           	ddw	0	; Reserved
  9432  13D0  FFFFFFFF           	ddw	4294967295	; RANGE_SPACE=restricted
  9433  13D4  00000006           	ddw	6	; NUM_RANGES
  9434  13D8  00000239           	ddw	__ccov199_start_blk14	; block 14 START_ADDR
  9435  13DC  0000023E           	ddw	__ccov199_end_blk14	; block 14 END_ADDR
  9436  13E0  00000234           	ddw	__ccov198_start_blk13	; block 13 START_ADDR
  9437  13E4  00000239           	ddw	__ccov198_end_blk13	; block 13 END_ADDR
  9438  13E8  0000022F           	ddw	__ccov197_start_blk12	; block 12 START_ADDR
  9439  13EC  00000234           	ddw	__ccov197_end_blk12	; block 12 END_ADDR
  9440  13F0  00000229           	ddw	__ccov196_start_blk11	; block 11 START_ADDR
  9441  13F4  0000022F           	ddw	__ccov196_end_blk11	; block 11 END_ADDR
  9442  13F8  00000225           	ddw	__ccov195_start_blk10	; block 10 START_ADDR
  9443  13FC  00000229           	ddw	__ccov195_end_blk10	; block 10 END_ADDR
  9444  1400  000001FC           	ddw	_fun_work	; block 0 START_ADDR
  9445  1404  00000200           	ddw	__ccov186_end_blk0	; block 0 END_ADDR
  9446                           
  9447                           ; Function: fun_work, coverage: 15,14,13,12,11,10,0
  9448  1408  00000000           	ddw	0	; CC_ADDR_SPACE=Data
  9449  140C  0000002B           	ddw	__ccovbit15_93/(0+8)	; CC_ADDR
  9450  1410  00000001           	ddw	1	; NUM_POINTS
  9451  1414  00000004           	ddw	__ccovbit15_93& (0+7)	; OFFSET
  9452  1418  00000000           	ddw	0	; Reserved
  9453  141C  FFFFFFFF           	ddw	4294967295	; RANGE_SPACE=restricted
  9454  1420  00000007           	ddw	7	; NUM_RANGES
  9455  1424  0000023E           	ddw	__ccov200_start_blk15	; block 15 START_ADDR
  9456  1428  00000243           	ddw	__ccov200_end_blk15	; block 15 END_ADDR
  9457  142C  00000239           	ddw	__ccov199_start_blk14	; block 14 START_ADDR
  9458  1430  0000023E           	ddw	__ccov199_end_blk14	; block 14 END_ADDR
  9459  1434  00000234           	ddw	__ccov198_start_blk13	; block 13 START_ADDR
  9460  1438  00000239           	ddw	__ccov198_end_blk13	; block 13 END_ADDR
  9461  143C  0000022F           	ddw	__ccov197_start_blk12	; block 12 START_ADDR
  9462  1440  00000234           	ddw	__ccov197_end_blk12	; block 12 END_ADDR
  9463  1444  00000229           	ddw	__ccov196_start_blk11	; block 11 START_ADDR
  9464  1448  0000022F           	ddw	__ccov196_end_blk11	; block 11 END_ADDR
  9465  144C  00000225           	ddw	__ccov195_start_blk10	; block 10 START_ADDR
  9466  1450  00000229           	ddw	__ccov195_end_blk10	; block 10 END_ADDR
  9467  1454  000001FC           	ddw	_fun_work	; block 0 START_ADDR
  9468  1458  00000200           	ddw	__ccov186_end_blk0	; block 0 END_ADDR
  9469                           
  9470                           ; Function: fun_work, coverage: 17,16,15,14,13,12,11,10,0
  9471  145C  00000000           	ddw	0	; CC_ADDR_SPACE=Data
  9472  1460  0000002B           	ddw	__ccovbit17_94/(0+8)	; CC_ADDR
  9473  1464  00000001           	ddw	1	; NUM_POINTS
  9474  1468  00000003           	ddw	__ccovbit17_94& (0+7)	; OFFSET
  9475  146C  00000000           	ddw	0	; Reserved
  9476  1470  FFFFFFFF           	ddw	4294967295	; RANGE_SPACE=restricted
  9477  1474  00000009           	ddw	9	; NUM_RANGES
  9478  1478  00000247           	ddw	__ccov202_start_blk17	; block 17 START_ADDR
  9479  147C  0000024B           	ddw	__ccov202_end_blk17	; block 17 END_ADDR
  9480  1480  00000243           	ddw	__ccov201_start_blk16	; block 16 START_ADDR
  9481  1484  00000247           	ddw	__ccov201_end_blk16	; block 16 END_ADDR
  9482  1488  0000023E           	ddw	__ccov200_start_blk15	; block 15 START_ADDR
  9483  148C  00000243           	ddw	__ccov200_end_blk15	; block 15 END_ADDR
  9484  1490  00000239           	ddw	__ccov199_start_blk14	; block 14 START_ADDR
  9485  1494  0000023E           	ddw	__ccov199_end_blk14	; block 14 END_ADDR
  9486  1498  00000234           	ddw	__ccov198_start_blk13	; block 13 START_ADDR
  9487  149C  00000239           	ddw	__ccov198_end_blk13	; block 13 END_ADDR
  9488  14A0  0000022F           	ddw	__ccov197_start_blk12	; block 12 START_ADDR
  9489  14A4  00000234           	ddw	__ccov197_end_blk12	; block 12 END_ADDR
  9490  14A8  00000229           	ddw	__ccov196_start_blk11	; block 11 START_ADDR
  9491  14AC  0000022F           	ddw	__ccov196_end_blk11	; block 11 END_ADDR
  9492  14B0  00000225           	ddw	__ccov195_start_blk10	; block 10 START_ADDR
  9493  14B4  00000229           	ddw	__ccov195_end_blk10	; block 10 END_ADDR
  9494  14B8  000001FC           	ddw	_fun_work	; block 0 START_ADDR
  9495  14BC  00000200           	ddw	__ccov186_end_blk0	; block 0 END_ADDR
  9496                           
  9497                           ; Function: fun_work, coverage: 19,10,0
  9498  14C0  00000000           	ddw	0	; CC_ADDR_SPACE=Data
  9499  14C4  0000002B           	ddw	__ccovbit19_95/(0+8)	; CC_ADDR
  9500  14C8  00000001           	ddw	1	; NUM_POINTS
  9501  14CC  00000002           	ddw	__ccovbit19_95& (0+7)	; OFFSET
  9502  14D0  00000000           	ddw	0	; Reserved
  9503  14D4  FFFFFFFF           	ddw	4294967295	; RANGE_SPACE=restricted
  9504  14D8  00000003           	ddw	3	; NUM_RANGES
  9505  14DC  0000024B           	ddw	__ccov203_start_blk19	; block 19 START_ADDR
  9506  14E0  0000024E           	ddw	__end_of_fun_work	; block 19 END_ADDR
  9507  14E4  00000225           	ddw	__ccov195_start_blk10	; block 10 START_ADDR
  9508  14E8  00000229           	ddw	__ccov195_end_blk10	; block 10 END_ADDR
  9509  14EC  000001FC           	ddw	_fun_work	; block 0 START_ADDR
  9510  14F0  00000200           	ddw	__ccov186_end_blk0	; block 0 END_ADDR
  9511                           
  9512                           ; Function: switch_wm, coverage: 1,0
  9513  14F4  00000000           	ddw	0	; CC_ADDR_SPACE=Data
  9514  14F8  0000002B           	ddw	__ccovbit1_96/(0+8)	; CC_ADDR
  9515  14FC  00000001           	ddw	1	; NUM_POINTS
  9516  1500  00000001           	ddw	__ccovbit1_96& (0+7)	; OFFSET
  9517  1504  00000000           	ddw	0	; Reserved
  9518  1508  FFFFFFFF           	ddw	4294967295	; RANGE_SPACE=restricted
  9519  150C  00000002           	ddw	2	; NUM_RANGES
  9520  1510  000003D5           	ddw	__ccov205_start_blk1	; block 1 START_ADDR
  9521  1514  000003DB           	ddw	__ccov205_end_blk1	; block 1 END_ADDR
  9522  1518  000003D1           	ddw	_switch_wm	; block 0 START_ADDR
  9523  151C  000003D5           	ddw	__ccov204_end_blk0	; block 0 END_ADDR
  9524                           
  9525                           ; Function: switch_wm, coverage: 4,3,2,1,0
  9526  1520  00000000           	ddw	0	; CC_ADDR_SPACE=Data
  9527  1524  0000002B           	ddw	__ccovbit4_97/(0+8)	; CC_ADDR
  9528  1528  00000001           	ddw	1	; NUM_POINTS
  9529  152C  00000000           	ddw	__ccovbit4_97& (0+7)	; OFFSET
  9530  1530  00000000           	ddw	0	; Reserved
  9531  1534  FFFFFFFF           	ddw	4294967295	; RANGE_SPACE=restricted
  9532  1538  00000005           	ddw	5	; NUM_RANGES
  9533  153C  000003E0           	ddw	__ccov208_start_blk4	; block 4 START_ADDR
  9534  1540  000003E7           	ddw	__ccov208_end_blk4	; block 4 END_ADDR
  9535  1544  000003DD           	ddw	__ccov207_start_blk3	; block 3 START_ADDR
  9536  1548  000003E0           	ddw	__ccov207_end_blk3	; block 3 END_ADDR
  9537  154C  000003DB           	ddw	__ccov206_start_blk2	; block 2 START_ADDR
  9538  1550  000003DD           	ddw	__ccov206_end_blk2	; block 2 END_ADDR
  9539  1554  000003D5           	ddw	__ccov205_start_blk1	; block 1 START_ADDR
  9540  1558  000003DB           	ddw	__ccov205_end_blk1	; block 1 END_ADDR
  9541  155C  000003D1           	ddw	_switch_wm	; block 0 START_ADDR
  9542  1560  000003D5           	ddw	__ccov204_end_blk0	; block 0 END_ADDR
  9543                           
  9544                           ; Function: switch_wm, coverage: 6,0
  9545  1564  00000000           	ddw	0	; CC_ADDR_SPACE=Data
  9546  1568  0000002A           	ddw	__ccovbit6_98/(0+8)	; CC_ADDR
  9547  156C  00000001           	ddw	1	; NUM_POINTS
  9548  1570  00000007           	ddw	__ccovbit6_98& (0+7)	; OFFSET
  9549  1574  00000000           	ddw	0	; Reserved
  9550  1578  FFFFFFFF           	ddw	4294967295	; RANGE_SPACE=restricted
  9551  157C  00000002           	ddw	2	; NUM_RANGES
  9552  1580  000003E7           	ddw	__ccov209_start_blk6	; block 6 START_ADDR
  9553  1584  000003ED           	ddw	__ccov209_end_blk6	; block 6 END_ADDR
  9554  1588  000003D1           	ddw	_switch_wm	; block 0 START_ADDR
  9555  158C  000003D5           	ddw	__ccov204_end_blk0	; block 0 END_ADDR
  9556                           
  9557                           ; Function: switch_wm, coverage: 7,6,0
  9558  1590  00000000           	ddw	0	; CC_ADDR_SPACE=Data
  9559  1594  0000002A           	ddw	__ccovbit7_99/(0+8)	; CC_ADDR
  9560  1598  00000001           	ddw	1	; NUM_POINTS
  9561  159C  00000006           	ddw	__ccovbit7_99& (0+7)	; OFFSET
  9562  15A0  00000000           	ddw	0	; Reserved
  9563  15A4  FFFFFFFF           	ddw	4294967295	; RANGE_SPACE=restricted
  9564  15A8  00000003           	ddw	3	; NUM_RANGES
  9565  15AC  000003ED           	ddw	__ccov210_start_blk7	; block 7 START_ADDR
  9566  15B0  000003F2           	ddw	__ccov210_end_blk7	; block 7 END_ADDR
  9567  15B4  000003E7           	ddw	__ccov209_start_blk6	; block 6 START_ADDR
  9568  15B8  000003ED           	ddw	__ccov209_end_blk6	; block 6 END_ADDR
  9569  15BC  000003D1           	ddw	_switch_wm	; block 0 START_ADDR
  9570  15C0  000003D5           	ddw	__ccov204_end_blk0	; block 0 END_ADDR
  9571                           
  9572                           ; Function: switch_wm, coverage: 10,9,8,7,6,0
  9573  15C4  00000000           	ddw	0	; CC_ADDR_SPACE=Data
  9574  15C8  0000002A           	ddw	__ccovbit10_100/(0+8)	; CC_ADDR
  9575  15CC  00000001           	ddw	1	; NUM_POINTS
  9576  15D0  00000005           	ddw	__ccovbit10_100& (0+7)	; OFFSET
  9577  15D4  00000000           	ddw	0	; Reserved
  9578  15D8  FFFFFFFF           	ddw	4294967295	; RANGE_SPACE=restricted
  9579  15DC  00000006           	ddw	6	; NUM_RANGES
  9580  15E0  000003F7           	ddw	__ccov213_start_blk10	; block 10 START_ADDR
  9581  15E4  000003FB           	ddw	__ccov213_end_blk10	; block 10 END_ADDR
  9582  15E8  000003F4           	ddw	__ccov212_start_blk9	; block 9 START_ADDR
  9583  15EC  000003F7           	ddw	__ccov212_end_blk9	; block 9 END_ADDR
  9584  15F0  000003F2           	ddw	__ccov211_start_blk8	; block 8 START_ADDR
  9585  15F4  000003F4           	ddw	__ccov211_end_blk8	; block 8 END_ADDR
  9586  15F8  000003ED           	ddw	__ccov210_start_blk7	; block 7 START_ADDR
  9587  15FC  000003F2           	ddw	__ccov210_end_blk7	; block 7 END_ADDR
  9588  1600  000003E7           	ddw	__ccov209_start_blk6	; block 6 START_ADDR
  9589  1604  000003ED           	ddw	__ccov209_end_blk6	; block 6 END_ADDR
  9590  1608  000003D1           	ddw	_switch_wm	; block 0 START_ADDR
  9591  160C  000003D5           	ddw	__ccov204_end_blk0	; block 0 END_ADDR
  9592                           
  9593                           ; Function: switch_wm, coverage: 14,0
  9594  1610  00000000           	ddw	0	; CC_ADDR_SPACE=Data
  9595  1614  0000002A           	ddw	__ccovbit14_101/(0+8)	; CC_ADDR
  9596  1618  00000001           	ddw	1	; NUM_POINTS
  9597  161C  00000004           	ddw	__ccovbit14_101& (0+7)	; OFFSET
  9598  1620  00000000           	ddw	0	; Reserved
  9599  1624  FFFFFFFF           	ddw	4294967295	; RANGE_SPACE=restricted
  9600  1628  00000002           	ddw	2	; NUM_RANGES
  9601  162C  000003FB           	ddw	__ccov214_start_blk14	; block 14 START_ADDR
  9602  1630  000003FD           	ddw	__end_of_switch_wm	; block 14 END_ADDR
  9603  1634  000003D1           	ddw	_switch_wm	; block 0 START_ADDR
  9604  1638  000003D5           	ddw	__ccov204_end_blk0	; block 0 END_ADDR
  9605                           
  9606                           ; Function: autorotation_work, coverage: 1,0
  9607  163C  00000000           	ddw	0	; CC_ADDR_SPACE=Data
  9608  1640  0000002A           	ddw	__ccovbit1_102/(0+8)	; CC_ADDR
  9609  1644  00000001           	ddw	1	; NUM_POINTS
  9610  1648  00000003           	ddw	__ccovbit1_102& (0+7)	; OFFSET
  9611  164C  00000000           	ddw	0	; Reserved
  9612  1650  FFFFFFFF           	ddw	4294967295	; RANGE_SPACE=restricted
  9613  1654  00000002           	ddw	2	; NUM_RANGES
  9614  1658  000000D9           	ddw	__ccov216_start_blk1	; block 1 START_ADDR
  9615  165C  000000DE           	ddw	__ccov216_end_blk1	; block 1 END_ADDR
  9616  1660  000000CA           	ddw	_autorotation_work	; block 0 START_ADDR
  9617  1664  000000D9           	ddw	__ccov215_end_blk0	; block 0 END_ADDR
  9618                           
  9619                           ; Function: autorotation_work, coverage: 2,1,0
  9620  1668  00000000           	ddw	0	; CC_ADDR_SPACE=Data
  9621  166C  0000002A           	ddw	__ccovbit2_103/(0+8)	; CC_ADDR
  9622  1670  00000001           	ddw	1	; NUM_POINTS
  9623  1674  00000002           	ddw	__ccovbit2_103& (0+7)	; OFFSET
  9624  1678  00000000           	ddw	0	; Reserved
  9625  167C  FFFFFFFF           	ddw	4294967295	; RANGE_SPACE=restricted
  9626  1680  00000003           	ddw	3	; NUM_RANGES
  9627  1684  000000DE           	ddw	__ccov217_start_blk2	; block 2 START_ADDR
  9628  1688  000000E3           	ddw	__ccov217_end_blk2	; block 2 END_ADDR
  9629  168C  000000D9           	ddw	__ccov216_start_blk1	; block 1 START_ADDR
  9630  1690  000000DE           	ddw	__ccov216_end_blk1	; block 1 END_ADDR
  9631  1694  000000CA           	ddw	_autorotation_work	; block 0 START_ADDR
  9632  1698  000000D9           	ddw	__ccov215_end_blk0	; block 0 END_ADDR
  9633                           
  9634                           ; Function: autorotation_work, coverage: 3,2,1,0
  9635  169C  00000000           	ddw	0	; CC_ADDR_SPACE=Data
  9636  16A0  0000002A           	ddw	__ccovbit3_104/(0+8)	; CC_ADDR
  9637  16A4  00000001           	ddw	1	; NUM_POINTS
  9638  16A8  00000001           	ddw	__ccovbit3_104& (0+7)	; OFFSET
  9639  16AC  00000000           	ddw	0	; Reserved
  9640  16B0  FFFFFFFF           	ddw	4294967295	; RANGE_SPACE=restricted
  9641  16B4  00000004           	ddw	4	; NUM_RANGES
  9642  16B8  000000E3           	ddw	__ccov218_start_blk3	; block 3 START_ADDR
  9643  16BC  000000E8           	ddw	__ccov218_end_blk3	; block 3 END_ADDR
  9644  16C0  000000DE           	ddw	__ccov217_start_blk2	; block 2 START_ADDR
  9645  16C4  000000E3           	ddw	__ccov217_end_blk2	; block 2 END_ADDR
  9646  16C8  000000D9           	ddw	__ccov216_start_blk1	; block 1 START_ADDR
  9647  16CC  000000DE           	ddw	__ccov216_end_blk1	; block 1 END_ADDR
  9648  16D0  000000CA           	ddw	_autorotation_work	; block 0 START_ADDR
  9649  16D4  000000D9           	ddw	__ccov215_end_blk0	; block 0 END_ADDR
  9650                           
  9651                           ; Function: autorotation_work, coverage: 4,3,2,1,0
  9652  16D8  00000000           	ddw	0	; CC_ADDR_SPACE=Data
  9653  16DC  0000002A           	ddw	__ccovbit4_105/(0+8)	; CC_ADDR
  9654  16E0  00000001           	ddw	1	; NUM_POINTS
  9655  16E4  00000000           	ddw	__ccovbit4_105& (0+7)	; OFFSET
  9656  16E8  00000000           	ddw	0	; Reserved
  9657  16EC  FFFFFFFF           	ddw	4294967295	; RANGE_SPACE=restricted
  9658  16F0  00000005           	ddw	5	; NUM_RANGES
  9659  16F4  000000E8           	ddw	__ccov219_start_blk4	; block 4 START_ADDR
  9660  16F8  000000ED           	ddw	__ccov219_end_blk4	; block 4 END_ADDR
  9661  16FC  000000E3           	ddw	__ccov218_start_blk3	; block 3 START_ADDR
  9662  1700  000000E8           	ddw	__ccov218_end_blk3	; block 3 END_ADDR
  9663  1704  000000DE           	ddw	__ccov217_start_blk2	; block 2 START_ADDR
  9664  1708  000000E3           	ddw	__ccov217_end_blk2	; block 2 END_ADDR
  9665  170C  000000D9           	ddw	__ccov216_start_blk1	; block 1 START_ADDR
  9666  1710  000000DE           	ddw	__ccov216_end_blk1	; block 1 END_ADDR
  9667  1714  000000CA           	ddw	_autorotation_work	; block 0 START_ADDR
  9668  1718  000000D9           	ddw	__ccov215_end_blk0	; block 0 END_ADDR
  9669                           
  9670                           ; Function: autorotation_work, coverage: 5,4,3,2,1,0
  9671  171C  00000000           	ddw	0	; CC_ADDR_SPACE=Data
  9672  1720  00000029           	ddw	__ccovbit5_106/(0+8)	; CC_ADDR
  9673  1724  00000001           	ddw	1	; NUM_POINTS
  9674  1728  00000007           	ddw	__ccovbit5_106& (0+7)	; OFFSET
  9675  172C  00000000           	ddw	0	; Reserved
  9676  1730  FFFFFFFF           	ddw	4294967295	; RANGE_SPACE=restricted
  9677  1734  00000006           	ddw	6	; NUM_RANGES
  9678  1738  000000ED           	ddw	__ccov220_start_blk5	; block 5 START_ADDR
  9679  173C  000000F2           	ddw	__ccov220_end_blk5	; block 5 END_ADDR
  9680  1740  000000E8           	ddw	__ccov219_start_blk4	; block 4 START_ADDR
  9681  1744  000000ED           	ddw	__ccov219_end_blk4	; block 4 END_ADDR
  9682  1748  000000E3           	ddw	__ccov218_start_blk3	; block 3 START_ADDR
  9683  174C  000000E8           	ddw	__ccov218_end_blk3	; block 3 END_ADDR
  9684  1750  000000DE           	ddw	__ccov217_start_blk2	; block 2 START_ADDR
  9685  1754  000000E3           	ddw	__ccov217_end_blk2	; block 2 END_ADDR
  9686  1758  000000D9           	ddw	__ccov216_start_blk1	; block 1 START_ADDR
  9687  175C  000000DE           	ddw	__ccov216_end_blk1	; block 1 END_ADDR
  9688  1760  000000CA           	ddw	_autorotation_work	; block 0 START_ADDR
  9689  1764  000000D9           	ddw	__ccov215_end_blk0	; block 0 END_ADDR
  9690                           
  9691                           ; Function: autorotation_work, coverage: 9,8,7,6,5,4,3,2,1,0
  9692  1768  00000000           	ddw	0	; CC_ADDR_SPACE=Data
  9693  176C  00000029           	ddw	__ccovbit9_107/(0+8)	; CC_ADDR
  9694  1770  00000001           	ddw	1	; NUM_POINTS
  9695  1774  00000006           	ddw	__ccovbit9_107& (0+7)	; OFFSET
  9696  1778  00000000           	ddw	0	; Reserved
  9697  177C  FFFFFFFF           	ddw	4294967295	; RANGE_SPACE=restricted
  9698  1780  0000000A           	ddw	10	; NUM_RANGES
  9699  1784  000000FA           	ddw	__ccov224_start_blk9	; block 9 START_ADDR
  9700  1788  00000102           	ddw	__ccov224_end_blk9	; block 9 END_ADDR
  9701  178C  000000F7           	ddw	__ccov223_start_blk8	; block 8 START_ADDR
  9702  1790  000000FA           	ddw	__ccov223_end_blk8	; block 8 END_ADDR
  9703  1794  000000F5           	ddw	__ccov222_start_blk7	; block 7 START_ADDR
  9704  1798  000000F7           	ddw	__ccov222_end_blk7	; block 7 END_ADDR
  9705  179C  000000F2           	ddw	__ccov221_start_blk6	; block 6 START_ADDR
  9706  17A0  000000F5           	ddw	__ccov221_end_blk6	; block 6 END_ADDR
  9707  17A4  000000ED           	ddw	__ccov220_start_blk5	; block 5 START_ADDR
  9708  17A8  000000F2           	ddw	__ccov220_end_blk5	; block 5 END_ADDR
  9709  17AC  000000E8           	ddw	__ccov219_start_blk4	; block 4 START_ADDR
  9710  17B0  000000ED           	ddw	__ccov219_end_blk4	; block 4 END_ADDR
  9711  17B4  000000E3           	ddw	__ccov218_start_blk3	; block 3 START_ADDR
  9712  17B8  000000E8           	ddw	__ccov218_end_blk3	; block 3 END_ADDR
  9713  17BC  000000DE           	ddw	__ccov217_start_blk2	; block 2 START_ADDR
  9714  17C0  000000E3           	ddw	__ccov217_end_blk2	; block 2 END_ADDR
  9715  17C4  000000D9           	ddw	__ccov216_start_blk1	; block 1 START_ADDR
  9716  17C8  000000DE           	ddw	__ccov216_end_blk1	; block 1 END_ADDR
  9717  17CC  000000CA           	ddw	_autorotation_work	; block 0 START_ADDR
  9718  17D0  000000D9           	ddw	__ccov215_end_blk0	; block 0 END_ADDR
  9719                           
  9720                           ; Function: autorotation_work, coverage: 11,0
  9721  17D4  00000000           	ddw	0	; CC_ADDR_SPACE=Data
  9722  17D8  00000029           	ddw	__ccovbit11_108/(0+8)	; CC_ADDR
  9723  17DC  00000001           	ddw	1	; NUM_POINTS
  9724  17E0  00000005           	ddw	__ccovbit11_108& (0+7)	; OFFSET
  9725  17E4  00000000           	ddw	0	; Reserved
  9726  17E8  FFFFFFFF           	ddw	4294967295	; RANGE_SPACE=restricted
  9727  17EC  00000002           	ddw	2	; NUM_RANGES
  9728  17F0  00000102           	ddw	__ccov225_start_blk11	; block 11 START_ADDR
  9729  17F4  00000111           	ddw	__ccov225_end_blk11	; block 11 END_ADDR
  9730  17F8  000000CA           	ddw	_autorotation_work	; block 0 START_ADDR
  9731  17FC  000000D9           	ddw	__ccov215_end_blk0	; block 0 END_ADDR
  9732                           
  9733                           ; Function: autorotation_work, coverage: 12,11,0
  9734  1800  00000000           	ddw	0	; CC_ADDR_SPACE=Data
  9735  1804  00000029           	ddw	__ccovbit12_109/(0+8)	; CC_ADDR
  9736  1808  00000001           	ddw	1	; NUM_POINTS
  9737  180C  00000004           	ddw	__ccovbit12_109& (0+7)	; OFFSET
  9738  1810  00000000           	ddw	0	; Reserved
  9739  1814  FFFFFFFF           	ddw	4294967295	; RANGE_SPACE=restricted
  9740  1818  00000003           	ddw	3	; NUM_RANGES
  9741  181C  00000111           	ddw	__ccov226_start_blk12	; block 12 START_ADDR
  9742  1820  00000116           	ddw	__ccov226_end_blk12	; block 12 END_ADDR
  9743  1824  00000102           	ddw	__ccov225_start_blk11	; block 11 START_ADDR
  9744  1828  00000111           	ddw	__ccov225_end_blk11	; block 11 END_ADDR
  9745  182C  000000CA           	ddw	_autorotation_work	; block 0 START_ADDR
  9746  1830  000000D9           	ddw	__ccov215_end_blk0	; block 0 END_ADDR
  9747                           
  9748                           ; Function: autorotation_work, coverage: 13,12,11,0
  9749  1834  00000000           	ddw	0	; CC_ADDR_SPACE=Data
  9750  1838  00000029           	ddw	__ccovbit13_110/(0+8)	; CC_ADDR
  9751  183C  00000001           	ddw	1	; NUM_POINTS
  9752  1840  00000003           	ddw	__ccovbit13_110& (0+7)	; OFFSET
  9753  1844  00000000           	ddw	0	; Reserved
  9754  1848  FFFFFFFF           	ddw	4294967295	; RANGE_SPACE=restricted
  9755  184C  00000004           	ddw	4	; NUM_RANGES
  9756  1850  00000116           	ddw	__ccov227_start_blk13	; block 13 START_ADDR
  9757  1854  0000011B           	ddw	__ccov227_end_blk13	; block 13 END_ADDR
  9758  1858  00000111           	ddw	__ccov226_start_blk12	; block 12 START_ADDR
  9759  185C  00000116           	ddw	__ccov226_end_blk12	; block 12 END_ADDR
  9760  1860  00000102           	ddw	__ccov225_start_blk11	; block 11 START_ADDR
  9761  1864  00000111           	ddw	__ccov225_end_blk11	; block 11 END_ADDR
  9762  1868  000000CA           	ddw	_autorotation_work	; block 0 START_ADDR
  9763  186C  000000D9           	ddw	__ccov215_end_blk0	; block 0 END_ADDR
  9764                           
  9765                           ; Function: autorotation_work, coverage: 14,13,12,11,0
  9766  1870  00000000           	ddw	0	; CC_ADDR_SPACE=Data
  9767  1874  00000029           	ddw	__ccovbit14_111/(0+8)	; CC_ADDR
  9768  1878  00000001           	ddw	1	; NUM_POINTS
  9769  187C  00000002           	ddw	__ccovbit14_111& (0+7)	; OFFSET
  9770  1880  00000000           	ddw	0	; Reserved
  9771  1884  FFFFFFFF           	ddw	4294967295	; RANGE_SPACE=restricted
  9772  1888  00000005           	ddw	5	; NUM_RANGES
  9773  188C  0000011B           	ddw	__ccov228_start_blk14	; block 14 START_ADDR
  9774  1890  00000120           	ddw	__ccov228_end_blk14	; block 14 END_ADDR
  9775  1894  00000116           	ddw	__ccov227_start_blk13	; block 13 START_ADDR
  9776  1898  0000011B           	ddw	__ccov227_end_blk13	; block 13 END_ADDR
  9777  189C  00000111           	ddw	__ccov226_start_blk12	; block 12 START_ADDR
  9778  18A0  00000116           	ddw	__ccov226_end_blk12	; block 12 END_ADDR
  9779  18A4  00000102           	ddw	__ccov225_start_blk11	; block 11 START_ADDR
  9780  18A8  00000111           	ddw	__ccov225_end_blk11	; block 11 END_ADDR
  9781  18AC  000000CA           	ddw	_autorotation_work	; block 0 START_ADDR
  9782  18B0  000000D9           	ddw	__ccov215_end_blk0	; block 0 END_ADDR
  9783                           
  9784                           ; Function: autorotation_work, coverage: 15,14,13,12,11,0
  9785  18B4  00000000           	ddw	0	; CC_ADDR_SPACE=Data
  9786  18B8  00000029           	ddw	__ccovbit15_112/(0+8)	; CC_ADDR
  9787  18BC  00000001           	ddw	1	; NUM_POINTS
  9788  18C0  00000001           	ddw	__ccovbit15_112& (0+7)	; OFFSET
  9789  18C4  00000000           	ddw	0	; Reserved
  9790  18C8  FFFFFFFF           	ddw	4294967295	; RANGE_SPACE=restricted
  9791  18CC  00000006           	ddw	6	; NUM_RANGES
  9792  18D0  00000120           	ddw	__ccov229_start_blk15	; block 15 START_ADDR
  9793  18D4  00000125           	ddw	__ccov229_end_blk15	; block 15 END_ADDR
  9794  18D8  0000011B           	ddw	__ccov228_start_blk14	; block 14 START_ADDR
  9795  18DC  00000120           	ddw	__ccov228_end_blk14	; block 14 END_ADDR
  9796  18E0  00000116           	ddw	__ccov227_start_blk13	; block 13 START_ADDR
  9797  18E4  0000011B           	ddw	__ccov227_end_blk13	; block 13 END_ADDR
  9798  18E8  00000111           	ddw	__ccov226_start_blk12	; block 12 START_ADDR
  9799  18EC  00000116           	ddw	__ccov226_end_blk12	; block 12 END_ADDR
  9800  18F0  00000102           	ddw	__ccov225_start_blk11	; block 11 START_ADDR
  9801  18F4  00000111           	ddw	__ccov225_end_blk11	; block 11 END_ADDR
  9802  18F8  000000CA           	ddw	_autorotation_work	; block 0 START_ADDR
  9803  18FC  000000D9           	ddw	__ccov215_end_blk0	; block 0 END_ADDR
  9804                           
  9805                           ; Function: autorotation_work, coverage: 16,15,14,13,12,11,0
  9806  1900  00000000           	ddw	0	; CC_ADDR_SPACE=Data
  9807  1904  00000029           	ddw	__ccovbit16_113/(0+8)	; CC_ADDR
  9808  1908  00000001           	ddw	1	; NUM_POINTS
  9809  190C  00000000           	ddw	__ccovbit16_113& (0+7)	; OFFSET
  9810  1910  00000000           	ddw	0	; Reserved
  9811  1914  FFFFFFFF           	ddw	4294967295	; RANGE_SPACE=restricted
  9812  1918  00000007           	ddw	7	; NUM_RANGES
  9813  191C  00000125           	ddw	__ccov230_start_blk16	; block 16 START_ADDR
  9814  1920  0000012A           	ddw	__ccov230_end_blk16	; block 16 END_ADDR
  9815  1924  00000120           	ddw	__ccov229_start_blk15	; block 15 START_ADDR
  9816  1928  00000125           	ddw	__ccov229_end_blk15	; block 15 END_ADDR
  9817  192C  0000011B           	ddw	__ccov228_start_blk14	; block 14 START_ADDR
  9818  1930  00000120           	ddw	__ccov228_end_blk14	; block 14 END_ADDR
  9819  1934  00000116           	ddw	__ccov227_start_blk13	; block 13 START_ADDR
  9820  1938  0000011B           	ddw	__ccov227_end_blk13	; block 13 END_ADDR
  9821  193C  00000111           	ddw	__ccov226_start_blk12	; block 12 START_ADDR
  9822  1940  00000116           	ddw	__ccov226_end_blk12	; block 12 END_ADDR
  9823  1944  00000102           	ddw	__ccov225_start_blk11	; block 11 START_ADDR
  9824  1948  00000111           	ddw	__ccov225_end_blk11	; block 11 END_ADDR
  9825  194C  000000CA           	ddw	_autorotation_work	; block 0 START_ADDR
  9826  1950  000000D9           	ddw	__ccov215_end_blk0	; block 0 END_ADDR
  9827                           
  9828                           ; Function: autorotation_work, coverage: 20,19,18,17,16,15,14,13,12,11,0
  9829  1954  00000000           	ddw	0	; CC_ADDR_SPACE=Data
  9830  1958  00000028           	ddw	__ccovbit20_114/(0+8)	; CC_ADDR
  9831  195C  00000001           	ddw	1	; NUM_POINTS
  9832  1960  00000007           	ddw	__ccovbit20_114& (0+7)	; OFFSET
  9833  1964  00000000           	ddw	0	; Reserved
  9834  1968  FFFFFFFF           	ddw	4294967295	; RANGE_SPACE=restricted
  9835  196C  0000000B           	ddw	11	; NUM_RANGES
  9836  1970  00000132           	ddw	__ccov234_start_blk20	; block 20 START_ADDR
  9837  1974  00000138           	ddw	__ccov234_end_blk20	; block 20 END_ADDR
  9838  1978  0000012E           	ddw	__ccov233_start_blk19	; block 19 START_ADDR
  9839  197C  00000132           	ddw	__ccov233_end_blk19	; block 19 END_ADDR
  9840  1980  0000012B           	ddw	__ccov232_start_blk18	; block 18 START_ADDR
  9841  1984  0000012E           	ddw	__ccov232_end_blk18	; block 18 END_ADDR
  9842  1988  0000012A           	ddw	__ccov231_start_blk17	; block 17 START_ADDR
  9843  198C  0000012B           	ddw	__ccov231_end_blk17	; block 17 END_ADDR
  9844  1990  00000125           	ddw	__ccov230_start_blk16	; block 16 START_ADDR
  9845  1994  0000012A           	ddw	__ccov230_end_blk16	; block 16 END_ADDR
  9846  1998  00000120           	ddw	__ccov229_start_blk15	; block 15 START_ADDR
  9847  199C  00000125           	ddw	__ccov229_end_blk15	; block 15 END_ADDR
  9848  19A0  0000011B           	ddw	__ccov228_start_blk14	; block 14 START_ADDR
  9849  19A4  00000120           	ddw	__ccov228_end_blk14	; block 14 END_ADDR
  9850  19A8  00000116           	ddw	__ccov227_start_blk13	; block 13 START_ADDR
  9851  19AC  0000011B           	ddw	__ccov227_end_blk13	; block 13 END_ADDR
  9852  19B0  00000111           	ddw	__ccov226_start_blk12	; block 12 START_ADDR
  9853  19B4  00000116           	ddw	__ccov226_end_blk12	; block 12 END_ADDR
  9854  19B8  00000102           	ddw	__ccov225_start_blk11	; block 11 START_ADDR
  9855  19BC  00000111           	ddw	__ccov225_end_blk11	; block 11 END_ADDR
  9856  19C0  000000CA           	ddw	_autorotation_work	; block 0 START_ADDR
  9857  19C4  000000D9           	ddw	__ccov215_end_blk0	; block 0 END_ADDR
  9858                           
  9859                           ; Function: autorotation_work, coverage: 23,0
  9860  19C8  00000000           	ddw	0	; CC_ADDR_SPACE=Data
  9861  19CC  00000028           	ddw	__ccovbit23_115/(0+8)	; CC_ADDR
  9862  19D0  00000001           	ddw	1	; NUM_POINTS
  9863  19D4  00000006           	ddw	__ccovbit23_115& (0+7)	; OFFSET
  9864  19D8  00000000           	ddw	0	; Reserved
  9865  19DC  FFFFFFFF           	ddw	4294967295	; RANGE_SPACE=restricted
  9866  19E0  00000002           	ddw	2	; NUM_RANGES
  9867  19E4  00000138           	ddw	__ccov235_start_blk23	; block 23 START_ADDR
  9868  19E8  0000013A           	ddw	__end_of_autorotation_work	; block 23 END_ADDR
  9869  19EC  000000CA           	ddw	_autorotation_work	; block 0 START_ADDR
  9870  19F0  000000D9           	ddw	__ccov215_end_blk0	; block 0 END_ADDR
  9871                           
  9872                           ; Function: minute_tick, coverage: 1,0
  9873  19F4  00000000           	ddw	0	; CC_ADDR_SPACE=Data
  9874  19F8  00000028           	ddw	__ccovbit1_116/(0+8)	; CC_ADDR
  9875  19FC  00000001           	ddw	1	; NUM_POINTS
  9876  1A00  00000005           	ddw	__ccovbit1_116& (0+7)	; OFFSET
  9877  1A04  00000000           	ddw	0	; Reserved
  9878  1A08  FFFFFFFF           	ddw	4294967295	; RANGE_SPACE=restricted
  9879  1A0C  00000002           	ddw	2	; NUM_RANGES
  9880  1A10  00000568           	ddw	__ccov237_start_blk1	; block 1 START_ADDR
  9881  1A14  0000056C           	ddw	__ccov237_end_blk1	; block 1 END_ADDR
  9882  1A18  00000562           	ddw	_minute_tick	; block 0 START_ADDR
  9883  1A1C  00000568           	ddw	__ccov236_end_blk0	; block 0 END_ADDR
  9884                           
  9885                           ; Function: minute_tick, coverage: 3,0
  9886  1A20  00000000           	ddw	0	; CC_ADDR_SPACE=Data
  9887  1A24  00000028           	ddw	__ccovbit3_117/(0+8)	; CC_ADDR
  9888  1A28  00000001           	ddw	1	; NUM_POINTS
  9889  1A2C  00000004           	ddw	__ccovbit3_117& (0+7)	; OFFSET
  9890  1A30  00000000           	ddw	0	; Reserved
  9891  1A34  FFFFFFFF           	ddw	4294967295	; RANGE_SPACE=restricted
  9892  1A38  00000002           	ddw	2	; NUM_RANGES
  9893  1A3C  0000056C           	ddw	__ccov238_start_blk3	; block 3 START_ADDR
  9894  1A40  00000572           	ddw	__ccov238_end_blk3	; block 3 END_ADDR
  9895  1A44  00000562           	ddw	_minute_tick	; block 0 START_ADDR
  9896  1A48  00000568           	ddw	__ccov236_end_blk0	; block 0 END_ADDR
  9897                           
  9898                           ; Function: minute_tick, coverage: 5,4,3,0
  9899  1A4C  00000000           	ddw	0	; CC_ADDR_SPACE=Data
  9900  1A50  00000028           	ddw	__ccovbit5_118/(0+8)	; CC_ADDR
  9901  1A54  00000001           	ddw	1	; NUM_POINTS
  9902  1A58  00000003           	ddw	__ccovbit5_118& (0+7)	; OFFSET
  9903  1A5C  00000000           	ddw	0	; Reserved
  9904  1A60  FFFFFFFF           	ddw	4294967295	; RANGE_SPACE=restricted
  9905  1A64  00000004           	ddw	4	; NUM_RANGES
  9906  1A68  00000573           	ddw	__ccov240_start_blk5	; block 5 START_ADDR
  9907  1A6C  00000578           	ddw	__ccov240_end_blk5	; block 5 END_ADDR
  9908  1A70  00000572           	ddw	__ccov239_start_blk4	; block 4 START_ADDR
  9909  1A74  00000573           	ddw	__ccov239_end_blk4	; block 4 END_ADDR
  9910  1A78  0000056C           	ddw	__ccov238_start_blk3	; block 3 START_ADDR
  9911  1A7C  00000572           	ddw	__ccov238_end_blk3	; block 3 END_ADDR
  9912  1A80  00000562           	ddw	_minute_tick	; block 0 START_ADDR
  9913  1A84  00000568           	ddw	__ccov236_end_blk0	; block 0 END_ADDR
  9914                           
  9915                           ; Function: minute_tick, coverage: 8,0
  9916  1A88  00000000           	ddw	0	; CC_ADDR_SPACE=Data
  9917  1A8C  00000028           	ddw	__ccovbit8_119/(0+8)	; CC_ADDR
  9918  1A90  00000001           	ddw	1	; NUM_POINTS
  9919  1A94  00000002           	ddw	__ccovbit8_119& (0+7)	; OFFSET
  9920  1A98  00000000           	ddw	0	; Reserved
  9921  1A9C  FFFFFFFF           	ddw	4294967295	; RANGE_SPACE=restricted
  9922  1AA0  00000002           	ddw	2	; NUM_RANGES
  9923  1AA4  00000578           	ddw	__ccov241_start_blk8	; block 8 START_ADDR
  9924  1AA8  0000057A           	ddw	__end_of_minute_tick	; block 8 END_ADDR
  9925  1AAC  00000562           	ddw	_minute_tick	; block 0 START_ADDR
  9926  1AB0  00000568           	ddw	__ccov236_end_blk0	; block 0 END_ADDR
  9927                           
  9928                           ; Function: sec_30_work, coverage: 1,0
  9929  1AB4  00000000           	ddw	0	; CC_ADDR_SPACE=Data
  9930  1AB8  00000028           	ddw	__ccovbit1_120/(0+8)	; CC_ADDR
  9931  1ABC  00000001           	ddw	1	; NUM_POINTS
  9932  1AC0  00000001           	ddw	__ccovbit1_120& (0+7)	; OFFSET
  9933  1AC4  00000000           	ddw	0	; Reserved
  9934  1AC8  FFFFFFFF           	ddw	4294967295	; RANGE_SPACE=restricted
  9935  1ACC  00000002           	ddw	2	; NUM_RANGES
  9936  1AD0  0000065B           	ddw	__ccov243_start_blk1	; block 1 START_ADDR
  9937  1AD4  0000065F           	ddw	__ccov243_end_blk1	; block 1 END_ADDR
  9938  1AD8  00000657           	ddw	_sec_30_work	; block 0 START_ADDR
  9939  1ADC  0000065B           	ddw	__ccov242_end_blk0	; block 0 END_ADDR
  9940                           
  9941                           ; Function: sec_30_work, coverage: 3,0
  9942  1AE0  00000000           	ddw	0	; CC_ADDR_SPACE=Data
  9943  1AE4  00000028           	ddw	__ccovbit3_121/(0+8)	; CC_ADDR
  9944  1AE8  00000001           	ddw	1	; NUM_POINTS
  9945  1AEC  00000000           	ddw	__ccovbit3_121& (0+7)	; OFFSET
  9946  1AF0  00000000           	ddw	0	; Reserved
  9947  1AF4  FFFFFFFF           	ddw	4294967295	; RANGE_SPACE=restricted
  9948  1AF8  00000002           	ddw	2	; NUM_RANGES
  9949  1AFC  0000065F           	ddw	__ccov244_start_blk3	; block 3 START_ADDR
  9950  1B00  00000665           	ddw	__ccov244_end_blk3	; block 3 END_ADDR
  9951  1B04  00000657           	ddw	_sec_30_work	; block 0 START_ADDR
  9952  1B08  0000065B           	ddw	__ccov242_end_blk0	; block 0 END_ADDR
  9953                           
  9954                           ; Function: sec_30_work, coverage: 5,0
  9955  1B0C  00000000           	ddw	0	; CC_ADDR_SPACE=Data
  9956  1B10  00000027           	ddw	__ccovbit5_122/(0+8)	; CC_ADDR
  9957  1B14  00000001           	ddw	1	; NUM_POINTS
  9958  1B18  00000007           	ddw	__ccovbit5_122& (0+7)	; OFFSET
  9959  1B1C  00000000           	ddw	0	; Reserved
  9960  1B20  FFFFFFFF           	ddw	4294967295	; RANGE_SPACE=restricted
  9961  1B24  00000002           	ddw	2	; NUM_RANGES
  9962  1B28  00000665           	ddw	__ccov245_start_blk5	; block 5 START_ADDR
  9963  1B2C  00000667           	ddw	__end_of_sec_30_work	; block 5 END_ADDR
  9964  1B30  00000657           	ddw	_sec_30_work	; block 0 START_ADDR
  9965  1B34  0000065B           	ddw	__ccov242_end_blk0	; block 0 END_ADDR
  9966                           
  9967                           ; Function: sec_work, coverage: 3,2,1,0
  9968  1B38  00000000           	ddw	0	; CC_ADDR_SPACE=Data
  9969  1B3C  00000027           	ddw	__ccovbit3_123/(0+8)	; CC_ADDR
  9970  1B40  00000001           	ddw	1	; NUM_POINTS
  9971  1B44  00000006           	ddw	__ccovbit3_123& (0+7)	; OFFSET
  9972  1B48  00000000           	ddw	0	; Reserved
  9973  1B4C  FFFFFFFF           	ddw	4294967295	; RANGE_SPACE=restricted
  9974  1B50  00000004           	ddw	4	; NUM_RANGES
  9975  1B54  00000057           	ddw	__ccov249_start_blk3	; block 3 START_ADDR
  9976  1B58  0000005B           	ddw	__ccov249_end_blk3	; block 3 END_ADDR
  9977  1B5C  00000052           	ddw	__ccov248_start_blk2	; block 2 START_ADDR
  9978  1B60  00000057           	ddw	__ccov248_end_blk2	; block 2 END_ADDR
  9979  1B64  0000004E           	ddw	__ccov247_start_blk1	; block 1 START_ADDR
  9980  1B68  00000052           	ddw	__ccov247_end_blk1	; block 1 END_ADDR
  9981  1B6C  00000049           	ddw	_sec_work	; block 0 START_ADDR
  9982  1B70  0000004E           	ddw	__ccov246_end_blk0	; block 0 END_ADDR
  9983                           
  9984                           ; Function: sec_work, coverage: 4,2,1,0
  9985  1B74  00000000           	ddw	0	; CC_ADDR_SPACE=Data
  9986  1B78  00000027           	ddw	__ccovbit4_124/(0+8)	; CC_ADDR
  9987  1B7C  00000001           	ddw	1	; NUM_POINTS
  9988  1B80  00000005           	ddw	__ccovbit4_124& (0+7)	; OFFSET
  9989  1B84  00000000           	ddw	0	; Reserved
  9990  1B88  FFFFFFFF           	ddw	4294967295	; RANGE_SPACE=restricted
  9991  1B8C  00000004           	ddw	4	; NUM_RANGES
  9992  1B90  0000005B           	ddw	__ccov250_start_blk4	; block 4 START_ADDR
  9993  1B94  0000005D           	ddw	__ccov250_end_blk4	; block 4 END_ADDR
  9994  1B98  00000052           	ddw	__ccov248_start_blk2	; block 2 START_ADDR
  9995  1B9C  00000057           	ddw	__ccov248_end_blk2	; block 2 END_ADDR
  9996  1BA0  0000004E           	ddw	__ccov247_start_blk1	; block 1 START_ADDR
  9997  1BA4  00000052           	ddw	__ccov247_end_blk1	; block 1 END_ADDR
  9998  1BA8  00000049           	ddw	_sec_work	; block 0 START_ADDR
  9999  1BAC  0000004E           	ddw	__ccov246_end_blk0	; block 0 END_ADDR
 10000                           
 10001                           ; Function: sec_work, coverage: 8,7,6,1,0
 10002  1BB0  00000000           	ddw	0	; CC_ADDR_SPACE=Data
 10003  1BB4  00000027           	ddw	__ccovbit8_125/(0+8)	; CC_ADDR
 10004  1BB8  00000001           	ddw	1	; NUM_POINTS
 10005  1BBC  00000004           	ddw	__ccovbit8_125& (0+7)	; OFFSET
 10006  1BC0  00000000           	ddw	0	; Reserved
 10007  1BC4  FFFFFFFF           	ddw	4294967295	; RANGE_SPACE=restricted
 10008  1BC8  00000005           	ddw	5	; NUM_RANGES
 10009  1BCC  00000065           	ddw	__ccov253_start_blk8	; block 8 START_ADDR
 10010  1BD0  00000070           	ddw	__ccov253_end_blk8	; block 8 END_ADDR
 10011  1BD4  00000061           	ddw	__ccov252_start_blk7	; block 7 START_ADDR
 10012  1BD8  00000065           	ddw	__ccov252_end_blk7	; block 7 END_ADDR
 10013  1BDC  0000005D           	ddw	__ccov251_start_blk6	; block 6 START_ADDR
 10014  1BE0  00000061           	ddw	__ccov251_end_blk6	; block 6 END_ADDR
 10015  1BE4  0000004E           	ddw	__ccov247_start_blk1	; block 1 START_ADDR
 10016  1BE8  00000052           	ddw	__ccov247_end_blk1	; block 1 END_ADDR
 10017  1BEC  00000049           	ddw	_sec_work	; block 0 START_ADDR
 10018  1BF0  0000004E           	ddw	__ccov246_end_blk0	; block 0 END_ADDR
 10019                           
 10020                           ; Function: sec_work, coverage: 10,7,6,1,0
 10021  1BF4  00000000           	ddw	0	; CC_ADDR_SPACE=Data
 10022  1BF8  00000027           	ddw	__ccovbit10_126/(0+8)	; CC_ADDR
 10023  1BFC  00000001           	ddw	1	; NUM_POINTS
 10024  1C00  00000003           	ddw	__ccovbit10_126& (0+7)	; OFFSET
 10025  1C04  00000000           	ddw	0	; Reserved
 10026  1C08  FFFFFFFF           	ddw	4294967295	; RANGE_SPACE=restricted
 10027  1C0C  00000005           	ddw	5	; NUM_RANGES
 10028  1C10  00000070           	ddw	__ccov254_start_blk10	; block 10 START_ADDR
 10029  1C14  00000074           	ddw	__ccov254_end_blk10	; block 10 END_ADDR
 10030  1C18  00000061           	ddw	__ccov252_start_blk7	; block 7 START_ADDR
 10031  1C1C  00000065           	ddw	__ccov252_end_blk7	; block 7 END_ADDR
 10032  1C20  0000005D           	ddw	__ccov251_start_blk6	; block 6 START_ADDR
 10033  1C24  00000061           	ddw	__ccov251_end_blk6	; block 6 END_ADDR
 10034  1C28  0000004E           	ddw	__ccov247_start_blk1	; block 1 START_ADDR
 10035  1C2C  00000052           	ddw	__ccov247_end_blk1	; block 1 END_ADDR
 10036  1C30  00000049           	ddw	_sec_work	; block 0 START_ADDR
 10037  1C34  0000004E           	ddw	__ccov246_end_blk0	; block 0 END_ADDR
 10038                           
 10039                           ; Function: sec_work, coverage: 14,13,12,6,1,0
 10040  1C38  00000000           	ddw	0	; CC_ADDR_SPACE=Data
 10041  1C3C  00000027           	ddw	__ccovbit14_127/(0+8)	; CC_ADDR
 10042  1C40  00000001           	ddw	1	; NUM_POINTS
 10043  1C44  00000002           	ddw	__ccovbit14_127& (0+7)	; OFFSET
 10044  1C48  00000000           	ddw	0	; Reserved
 10045  1C4C  FFFFFFFF           	ddw	4294967295	; RANGE_SPACE=restricted
 10046  1C50  00000006           	ddw	6	; NUM_RANGES
 10047  1C54  0000007F           	ddw	__ccov257_start_blk14	; block 14 START_ADDR
 10048  1C58  00000086           	ddw	__ccov257_end_blk14	; block 14 END_ADDR
 10049  1C5C  00000078           	ddw	__ccov256_start_blk13	; block 13 START_ADDR
 10050  1C60  0000007F           	ddw	__ccov256_end_blk13	; block 13 END_ADDR
 10051  1C64  00000074           	ddw	__ccov255_start_blk12	; block 12 START_ADDR
 10052  1C68  00000078           	ddw	__ccov255_end_blk12	; block 12 END_ADDR
 10053  1C6C  0000005D           	ddw	__ccov251_start_blk6	; block 6 START_ADDR
 10054  1C70  00000061           	ddw	__ccov251_end_blk6	; block 6 END_ADDR
 10055  1C74  0000004E           	ddw	__ccov247_start_blk1	; block 1 START_ADDR
 10056  1C78  00000052           	ddw	__ccov247_end_blk1	; block 1 END_ADDR
 10057  1C7C  00000049           	ddw	_sec_work	; block 0 START_ADDR
 10058  1C80  0000004E           	ddw	__ccov246_end_blk0	; block 0 END_ADDR
 10059                           
 10060                           ; Function: sec_work, coverage: 16,13,12,6,1,0
 10061  1C84  00000000           	ddw	0	; CC_ADDR_SPACE=Data
 10062  1C88  00000027           	ddw	__ccovbit16_128/(0+8)	; CC_ADDR
 10063  1C8C  00000001           	ddw	1	; NUM_POINTS
 10064  1C90  00000001           	ddw	__ccovbit16_128& (0+7)	; OFFSET
 10065  1C94  00000000           	ddw	0	; Reserved
 10066  1C98  FFFFFFFF           	ddw	4294967295	; RANGE_SPACE=restricted
 10067  1C9C  00000006           	ddw	6	; NUM_RANGES
 10068  1CA0  00000086           	ddw	__ccov258_start_blk16	; block 16 START_ADDR
 10069  1CA4  0000008A           	ddw	__ccov258_end_blk16	; block 16 END_ADDR
 10070  1CA8  00000078           	ddw	__ccov256_start_blk13	; block 13 START_ADDR
 10071  1CAC  0000007F           	ddw	__ccov256_end_blk13	; block 13 END_ADDR
 10072  1CB0  00000074           	ddw	__ccov255_start_blk12	; block 12 START_ADDR
 10073  1CB4  00000078           	ddw	__ccov255_end_blk12	; block 12 END_ADDR
 10074  1CB8  0000005D           	ddw	__ccov251_start_blk6	; block 6 START_ADDR
 10075  1CBC  00000061           	ddw	__ccov251_end_blk6	; block 6 END_ADDR
 10076  1CC0  0000004E           	ddw	__ccov247_start_blk1	; block 1 START_ADDR
 10077  1CC4  00000052           	ddw	__ccov247_end_blk1	; block 1 END_ADDR
 10078  1CC8  00000049           	ddw	_sec_work	; block 0 START_ADDR
 10079  1CCC  0000004E           	ddw	__ccov246_end_blk0	; block 0 END_ADDR
 10080                           
 10081                           ; Function: sec_work, coverage: 18,13,12,6,1,0
 10082  1CD0  00000000           	ddw	0	; CC_ADDR_SPACE=Data
 10083  1CD4  00000027           	ddw	__ccovbit18_129/(0+8)	; CC_ADDR
 10084  1CD8  00000001           	ddw	1	; NUM_POINTS
 10085  1CDC  00000000           	ddw	__ccovbit18_129& (0+7)	; OFFSET
 10086  1CE0  00000000           	ddw	0	; Reserved
 10087  1CE4  FFFFFFFF           	ddw	4294967295	; RANGE_SPACE=restricted
 10088  1CE8  00000006           	ddw	6	; NUM_RANGES
 10089  1CEC  0000008A           	ddw	__ccov259_start_blk18	; block 18 START_ADDR
 10090  1CF0  0000009B           	ddw	__ccov259_end_blk18	; block 18 END_ADDR
 10091  1CF4  00000078           	ddw	__ccov256_start_blk13	; block 13 START_ADDR
 10092  1CF8  0000007F           	ddw	__ccov256_end_blk13	; block 13 END_ADDR
 10093  1CFC  00000074           	ddw	__ccov255_start_blk12	; block 12 START_ADDR
 10094  1D00  00000078           	ddw	__ccov255_end_blk12	; block 12 END_ADDR
 10095  1D04  0000005D           	ddw	__ccov251_start_blk6	; block 6 START_ADDR
 10096  1D08  00000061           	ddw	__ccov251_end_blk6	; block 6 END_ADDR
 10097  1D0C  0000004E           	ddw	__ccov247_start_blk1	; block 1 START_ADDR
 10098  1D10  00000052           	ddw	__ccov247_end_blk1	; block 1 END_ADDR
 10099  1D14  00000049           	ddw	_sec_work	; block 0 START_ADDR
 10100  1D18  0000004E           	ddw	__ccov246_end_blk0	; block 0 END_ADDR
 10101                           
 10102                           ; Function: sec_work, coverage: 19,12,6,1,0
 10103  1D1C  00000000           	ddw	0	; CC_ADDR_SPACE=Data
 10104  1D20  00000026           	ddw	__ccovbit19_130/(0+8)	; CC_ADDR
 10105  1D24  00000001           	ddw	1	; NUM_POINTS
 10106  1D28  00000007           	ddw	__ccovbit19_130& (0+7)	; OFFSET
 10107  1D2C  00000000           	ddw	0	; Reserved
 10108  1D30  FFFFFFFF           	ddw	4294967295	; RANGE_SPACE=restricted
 10109  1D34  00000005           	ddw	5	; NUM_RANGES
 10110  1D38  0000009B           	ddw	__ccov260_start_blk19	; block 19 START_ADDR
 10111  1D3C  000000A1           	ddw	__ccov260_end_blk19	; block 19 END_ADDR
 10112  1D40  00000074           	ddw	__ccov255_start_blk12	; block 12 START_ADDR
 10113  1D44  00000078           	ddw	__ccov255_end_blk12	; block 12 END_ADDR
 10114  1D48  0000005D           	ddw	__ccov251_start_blk6	; block 6 START_ADDR
 10115  1D4C  00000061           	ddw	__ccov251_end_blk6	; block 6 END_ADDR
 10116  1D50  0000004E           	ddw	__ccov247_start_blk1	; block 1 START_ADDR
 10117  1D54  00000052           	ddw	__ccov247_end_blk1	; block 1 END_ADDR
 10118  1D58  00000049           	ddw	_sec_work	; block 0 START_ADDR
 10119  1D5C  0000004E           	ddw	__ccov246_end_blk0	; block 0 END_ADDR
 10120                           
 10121                           ; Function: sec_work, coverage: 21,20,19,12,6,1,0
 10122  1D60  00000000           	ddw	0	; CC_ADDR_SPACE=Data
 10123  1D64  00000026           	ddw	__ccovbit21_131/(0+8)	; CC_ADDR
 10124  1D68  00000001           	ddw	1	; NUM_POINTS
 10125  1D6C  00000006           	ddw	__ccovbit21_131& (0+7)	; OFFSET
 10126  1D70  00000000           	ddw	0	; Reserved
 10127  1D74  FFFFFFFF           	ddw	4294967295	; RANGE_SPACE=restricted
 10128  1D78  00000007           	ddw	7	; NUM_RANGES
 10129  1D7C  000000A5           	ddw	__ccov262_start_blk21	; block 21 START_ADDR
 10130  1D80  000000AC           	ddw	__ccov262_end_blk21	; block 21 END_ADDR
 10131  1D84  000000A1           	ddw	__ccov261_start_blk20	; block 20 START_ADDR
 10132  1D88  000000A5           	ddw	__ccov261_end_blk20	; block 20 END_ADDR
 10133  1D8C  0000009B           	ddw	__ccov260_start_blk19	; block 19 START_ADDR
 10134  1D90  000000A1           	ddw	__ccov260_end_blk19	; block 19 END_ADDR
 10135  1D94  00000074           	ddw	__ccov255_start_blk12	; block 12 START_ADDR
 10136  1D98  00000078           	ddw	__ccov255_end_blk12	; block 12 END_ADDR
 10137  1D9C  0000005D           	ddw	__ccov251_start_blk6	; block 6 START_ADDR
 10138  1DA0  00000061           	ddw	__ccov251_end_blk6	; block 6 END_ADDR
 10139  1DA4  0000004E           	ddw	__ccov247_start_blk1	; block 1 START_ADDR
 10140  1DA8  00000052           	ddw	__ccov247_end_blk1	; block 1 END_ADDR
 10141  1DAC  00000049           	ddw	_sec_work	; block 0 START_ADDR
 10142  1DB0  0000004E           	ddw	__ccov246_end_blk0	; block 0 END_ADDR
 10143                           
 10144                           ; Function: sec_work, coverage: 23,22,21,20,19,12,6,1,0
 10145  1DB4  00000000           	ddw	0	; CC_ADDR_SPACE=Data
 10146  1DB8  00000026           	ddw	__ccovbit23_132/(0+8)	; CC_ADDR
 10147  1DBC  00000001           	ddw	1	; NUM_POINTS
 10148  1DC0  00000005           	ddw	__ccovbit23_132& (0+7)	; OFFSET
 10149  1DC4  00000000           	ddw	0	; Reserved
 10150  1DC8  FFFFFFFF           	ddw	4294967295	; RANGE_SPACE=restricted
 10151  1DCC  00000009           	ddw	9	; NUM_RANGES
 10152  1DD0  000000BA           	ddw	__ccov264_start_blk23	; block 23 START_ADDR
 10153  1DD4  000000BC           	ddw	__ccov264_end_blk23	; block 23 END_ADDR
 10154  1DD8  000000AC           	ddw	__ccov263_start_blk22	; block 22 START_ADDR
 10155  1DDC  000000BA           	ddw	__ccov263_end_blk22	; block 22 END_ADDR
 10156  1DE0  000000A5           	ddw	__ccov262_start_blk21	; block 21 START_ADDR
 10157  1DE4  000000AC           	ddw	__ccov262_end_blk21	; block 21 END_ADDR
 10158  1DE8  000000A1           	ddw	__ccov261_start_blk20	; block 20 START_ADDR
 10159  1DEC  000000A5           	ddw	__ccov261_end_blk20	; block 20 END_ADDR
 10160  1DF0  0000009B           	ddw	__ccov260_start_blk19	; block 19 START_ADDR
 10161  1DF4  000000A1           	ddw	__ccov260_end_blk19	; block 19 END_ADDR
 10162  1DF8  00000074           	ddw	__ccov255_start_blk12	; block 12 START_ADDR
 10163  1DFC  00000078           	ddw	__ccov255_end_blk12	; block 12 END_ADDR
 10164  1E00  0000005D           	ddw	__ccov251_start_blk6	; block 6 START_ADDR
 10165  1E04  00000061           	ddw	__ccov251_end_blk6	; block 6 END_ADDR
 10166  1E08  0000004E           	ddw	__ccov247_start_blk1	; block 1 START_ADDR
 10167  1E0C  00000052           	ddw	__ccov247_end_blk1	; block 1 END_ADDR
 10168  1E10  00000049           	ddw	_sec_work	; block 0 START_ADDR
 10169  1E14  0000004E           	ddw	__ccov246_end_blk0	; block 0 END_ADDR
 10170                           
 10171                           ; Function: sec_work, coverage: 29,28,27,12,6,1,0
 10172  1E18  00000000           	ddw	0	; CC_ADDR_SPACE=Data
 10173  1E1C  00000026           	ddw	__ccovbit29_133/(0+8)	; CC_ADDR
 10174  1E20  00000001           	ddw	1	; NUM_POINTS
 10175  1E24  00000004           	ddw	__ccovbit29_133& (0+7)	; OFFSET
 10176  1E28  00000000           	ddw	0	; Reserved
 10177  1E2C  FFFFFFFF           	ddw	4294967295	; RANGE_SPACE=restricted
 10178  1E30  00000007           	ddw	7	; NUM_RANGES
 10179  1E34  000000C5           	ddw	__ccov267_start_blk29	; block 29 START_ADDR
 10180  1E38  000000C8           	ddw	__ccov267_end_blk29	; block 29 END_ADDR
 10181  1E3C  000000C2           	ddw	__ccov266_start_blk28	; block 28 START_ADDR
 10182  1E40  000000C5           	ddw	__ccov266_end_blk28	; block 28 END_ADDR
 10183  1E44  000000BC           	ddw	__ccov265_start_blk27	; block 27 START_ADDR
 10184  1E48  000000C2           	ddw	__ccov265_end_blk27	; block 27 END_ADDR
 10185  1E4C  00000074           	ddw	__ccov255_start_blk12	; block 12 START_ADDR
 10186  1E50  00000078           	ddw	__ccov255_end_blk12	; block 12 END_ADDR
 10187  1E54  0000005D           	ddw	__ccov251_start_blk6	; block 6 START_ADDR
 10188  1E58  00000061           	ddw	__ccov251_end_blk6	; block 6 END_ADDR
 10189  1E5C  0000004E           	ddw	__ccov247_start_blk1	; block 1 START_ADDR
 10190  1E60  00000052           	ddw	__ccov247_end_blk1	; block 1 END_ADDR
 10191  1E64  00000049           	ddw	_sec_work	; block 0 START_ADDR
 10192  1E68  0000004E           	ddw	__ccov246_end_blk0	; block 0 END_ADDR
 10193                           
 10194                           ; Function: sec_work, coverage: 31,27,12,6,1,0
 10195  1E6C  00000000           	ddw	0	; CC_ADDR_SPACE=Data
 10196  1E70  00000026           	ddw	__ccovbit31_134/(0+8)	; CC_ADDR
 10197  1E74  00000001           	ddw	1	; NUM_POINTS
 10198  1E78  00000003           	ddw	__ccovbit31_134& (0+7)	; OFFSET
 10199  1E7C  00000000           	ddw	0	; Reserved
 10200  1E80  FFFFFFFF           	ddw	4294967295	; RANGE_SPACE=restricted
 10201  1E84  00000006           	ddw	6	; NUM_RANGES
 10202  1E88  000000C8           	ddw	__ccov268_start_blk31	; block 31 START_ADDR
 10203  1E8C  000000CA           	ddw	__end_of_sec_work	; block 31 END_ADDR
 10204  1E90  000000BC           	ddw	__ccov265_start_blk27	; block 27 START_ADDR
 10205  1E94  000000C2           	ddw	__ccov265_end_blk27	; block 27 END_ADDR
 10206  1E98  00000074           	ddw	__ccov255_start_blk12	; block 12 START_ADDR
 10207  1E9C  00000078           	ddw	__ccov255_end_blk12	; block 12 END_ADDR
 10208  1EA0  0000005D           	ddw	__ccov251_start_blk6	; block 6 START_ADDR
 10209  1EA4  00000061           	ddw	__ccov251_end_blk6	; block 6 END_ADDR
 10210  1EA8  0000004E           	ddw	__ccov247_start_blk1	; block 1 START_ADDR
 10211  1EAC  00000052           	ddw	__ccov247_end_blk1	; block 1 END_ADDR
 10212  1EB0  00000049           	ddw	_sec_work	; block 0 START_ADDR
 10213  1EB4  0000004E           	ddw	__ccov246_end_blk0	; block 0 END_ADDR
 10214                           
 10215                           ; Function: ms_200_work, coverage: 1,0
 10216  1EB8  00000000           	ddw	0	; CC_ADDR_SPACE=Data
 10217  1EBC  00000026           	ddw	__ccovbit1_135/(0+8)	; CC_ADDR
 10218  1EC0  00000001           	ddw	1	; NUM_POINTS
 10219  1EC4  00000002           	ddw	__ccovbit1_135& (0+7)	; OFFSET
 10220  1EC8  00000000           	ddw	0	; Reserved
 10221  1ECC  FFFFFFFF           	ddw	4294967295	; RANGE_SPACE=restricted
 10222  1ED0  00000002           	ddw	2	; NUM_RANGES
 10223  1ED4  0000029A           	ddw	__ccov270_start_blk1	; block 1 START_ADDR
 10224  1ED8  000002A0           	ddw	__ccov270_end_blk1	; block 1 END_ADDR
 10225  1EDC  00000296           	ddw	_ms_200_work	; block 0 START_ADDR
 10226  1EE0  0000029A           	ddw	__ccov269_end_blk0	; block 0 END_ADDR
 10227                           
 10228                           ; Function: ms_200_work, coverage: 2,0
 10229  1EE4  00000000           	ddw	0	; CC_ADDR_SPACE=Data
 10230  1EE8  00000026           	ddw	__ccovbit2_136/(0+8)	; CC_ADDR
 10231  1EEC  00000001           	ddw	1	; NUM_POINTS
 10232  1EF0  00000001           	ddw	__ccovbit2_136& (0+7)	; OFFSET
 10233  1EF4  00000000           	ddw	0	; Reserved
 10234  1EF8  FFFFFFFF           	ddw	4294967295	; RANGE_SPACE=restricted
 10235  1EFC  00000002           	ddw	2	; NUM_RANGES
 10236  1F00  000002A0           	ddw	__ccov271_start_blk2	; block 2 START_ADDR
 10237  1F04  000002A5           	ddw	__ccov271_end_blk2	; block 2 END_ADDR
 10238  1F08  00000296           	ddw	_ms_200_work	; block 0 START_ADDR
 10239  1F0C  0000029A           	ddw	__ccov269_end_blk0	; block 0 END_ADDR
 10240                           
 10241                           ; Function: ms_200_work, coverage: 4,1,0
 10242  1F10  00000000           	ddw	0	; CC_ADDR_SPACE=Data
 10243  1F14  00000026           	ddw	__ccovbit4_137/(0+8)	; CC_ADDR
 10244  1F18  00000001           	ddw	1	; NUM_POINTS
 10245  1F1C  00000000           	ddw	__ccovbit4_137& (0+7)	; OFFSET
 10246  1F20  00000000           	ddw	0	; Reserved
 10247  1F24  FFFFFFFF           	ddw	4294967295	; RANGE_SPACE=restricted
 10248  1F28  00000003           	ddw	3	; NUM_RANGES
 10249  1F2C  000002A5           	ddw	__ccov272_start_blk4	; block 4 START_ADDR
 10250  1F30  000002AB           	ddw	__ccov272_end_blk4	; block 4 END_ADDR
 10251  1F34  0000029A           	ddw	__ccov270_start_blk1	; block 1 START_ADDR
 10252  1F38  000002A0           	ddw	__ccov270_end_blk1	; block 1 END_ADDR
 10253  1F3C  00000296           	ddw	_ms_200_work	; block 0 START_ADDR
 10254  1F40  0000029A           	ddw	__ccov269_end_blk0	; block 0 END_ADDR
 10255                           
 10256                           ; Function: ms_200_work, coverage: 5,4,1,0
 10257  1F44  00000000           	ddw	0	; CC_ADDR_SPACE=Data
 10258  1F48  00000025           	ddw	__ccovbit5_138/(0+8)	; CC_ADDR
 10259  1F4C  00000001           	ddw	1	; NUM_POINTS
 10260  1F50  00000007           	ddw	__ccovbit5_138& (0+7)	; OFFSET
 10261  1F54  00000000           	ddw	0	; Reserved
 10262  1F58  FFFFFFFF           	ddw	4294967295	; RANGE_SPACE=restricted
 10263  1F5C  00000004           	ddw	4	; NUM_RANGES
 10264  1F60  000002AB           	ddw	__ccov273_start_blk5	; block 5 START_ADDR
 10265  1F64  000002B0           	ddw	__ccov273_end_blk5	; block 5 END_ADDR
 10266  1F68  000002A5           	ddw	__ccov272_start_blk4	; block 4 START_ADDR
 10267  1F6C  000002AB           	ddw	__ccov272_end_blk4	; block 4 END_ADDR
 10268  1F70  0000029A           	ddw	__ccov270_start_blk1	; block 1 START_ADDR
 10269  1F74  000002A0           	ddw	__ccov270_end_blk1	; block 1 END_ADDR
 10270  1F78  00000296           	ddw	_ms_200_work	; block 0 START_ADDR
 10271  1F7C  0000029A           	ddw	__ccov269_end_blk0	; block 0 END_ADDR
 10272                           
 10273                           ; Function: ms_200_work, coverage: 8,0
 10274  1F80  00000000           	ddw	0	; CC_ADDR_SPACE=Data
 10275  1F84  00000025           	ddw	__ccovbit8_139/(0+8)	; CC_ADDR
 10276  1F88  00000001           	ddw	1	; NUM_POINTS
 10277  1F8C  00000006           	ddw	__ccovbit8_139& (0+7)	; OFFSET
 10278  1F90  00000000           	ddw	0	; Reserved
 10279  1F94  FFFFFFFF           	ddw	4294967295	; RANGE_SPACE=restricted
 10280  1F98  00000002           	ddw	2	; NUM_RANGES
 10281  1F9C  000002B0           	ddw	__ccov274_start_blk8	; block 8 START_ADDR
 10282  1FA0  000002B6           	ddw	__ccov274_end_blk8	; block 8 END_ADDR
 10283  1FA4  00000296           	ddw	_ms_200_work	; block 0 START_ADDR
 10284  1FA8  0000029A           	ddw	__ccov269_end_blk0	; block 0 END_ADDR
 10285                           
 10286                           ; Function: ms_200_work, coverage: 10,9,8,0
 10287  1FAC  00000000           	ddw	0	; CC_ADDR_SPACE=Data
 10288  1FB0  00000025           	ddw	__ccovbit10_140/(0+8)	; CC_ADDR
 10289  1FB4  00000001           	ddw	1	; NUM_POINTS
 10290  1FB8  00000005           	ddw	__ccovbit10_140& (0+7)	; OFFSET
 10291  1FBC  00000000           	ddw	0	; Reserved
 10292  1FC0  FFFFFFFF           	ddw	4294967295	; RANGE_SPACE=restricted
 10293  1FC4  00000004           	ddw	4	; NUM_RANGES
 10294  1FC8  000002BB           	ddw	__ccov276_start_blk10	; block 10 START_ADDR
 10295  1FCC  000002C2           	ddw	__ccov276_end_blk10	; block 10 END_ADDR
 10296  1FD0  000002B6           	ddw	__ccov275_start_blk9	; block 9 START_ADDR
 10297  1FD4  000002BB           	ddw	__ccov275_end_blk9	; block 9 END_ADDR
 10298  1FD8  000002B0           	ddw	__ccov274_start_blk8	; block 8 START_ADDR
 10299  1FDC  000002B6           	ddw	__ccov274_end_blk8	; block 8 END_ADDR
 10300  1FE0  00000296           	ddw	_ms_200_work	; block 0 START_ADDR
 10301  1FE4  0000029A           	ddw	__ccov269_end_blk0	; block 0 END_ADDR
 10302                           
 10303                           ; Function: ms_200_work, coverage: 14,13,9,8,0
 10304  1FE8  00000000           	ddw	0	; CC_ADDR_SPACE=Data
 10305  1FEC  00000025           	ddw	__ccovbit14_141/(0+8)	; CC_ADDR
 10306  1FF0  00000001           	ddw	1	; NUM_POINTS
 10307  1FF4  00000004           	ddw	__ccovbit14_141& (0+7)	; OFFSET
 10308  1FF8  00000000           	ddw	0	; Reserved
 10309  1FFC  FFFFFFFF           	ddw	4294967295	; RANGE_SPACE=restricted
 10310  2000  00000005           	ddw	5	; NUM_RANGES
 10311  2004  000002C7           	ddw	__ccov278_start_blk14	; block 14 START_ADDR
 10312  2008  000002CB           	ddw	__ccov278_end_blk14	; block 14 END_ADDR
 10313  200C  000002C2           	ddw	__ccov277_start_blk13	; block 13 START_ADDR
 10314  2010  000002C7           	ddw	__ccov277_end_blk13	; block 13 END_ADDR
 10315  2014  000002B6           	ddw	__ccov275_start_blk9	; block 9 START_ADDR
 10316  2018  000002BB           	ddw	__ccov275_end_blk9	; block 9 END_ADDR
 10317  201C  000002B0           	ddw	__ccov274_start_blk8	; block 8 START_ADDR
 10318  2020  000002B6           	ddw	__ccov274_end_blk8	; block 8 END_ADDR
 10319  2024  00000296           	ddw	_ms_200_work	; block 0 START_ADDR
 10320  2028  0000029A           	ddw	__ccov269_end_blk0	; block 0 END_ADDR
 10321                           
 10322                           ; Function: ms_200_work, coverage: 16,13,9,8,0
 10323  202C  00000000           	ddw	0	; CC_ADDR_SPACE=Data
 10324  2030  00000025           	ddw	__ccovbit16_142/(0+8)	; CC_ADDR
 10325  2034  00000001           	ddw	1	; NUM_POINTS
 10326  2038  00000003           	ddw	__ccovbit16_142& (0+7)	; OFFSET
 10327  203C  00000000           	ddw	0	; Reserved
 10328  2040  FFFFFFFF           	ddw	4294967295	; RANGE_SPACE=restricted
 10329  2044  00000005           	ddw	5	; NUM_RANGES
 10330  2048  000002CB           	ddw	__ccov279_start_blk16	; block 16 START_ADDR
 10331  204C  000002D2           	ddw	__ccov279_end_blk16	; block 16 END_ADDR
 10332  2050  000002C2           	ddw	__ccov277_start_blk13	; block 13 START_ADDR
 10333  2054  000002C7           	ddw	__ccov277_end_blk13	; block 13 END_ADDR
 10334  2058  000002B6           	ddw	__ccov275_start_blk9	; block 9 START_ADDR
 10335  205C  000002BB           	ddw	__ccov275_end_blk9	; block 9 END_ADDR
 10336  2060  000002B0           	ddw	__ccov274_start_blk8	; block 8 START_ADDR
 10337  2064  000002B6           	ddw	__ccov274_end_blk8	; block 8 END_ADDR
 10338  2068  00000296           	ddw	_ms_200_work	; block 0 START_ADDR
 10339  206C  0000029A           	ddw	__ccov269_end_blk0	; block 0 END_ADDR
 10340                           
 10341                           ; Function: ms_200_work, coverage: 17,16,13,9,8,0
 10342  2070  00000000           	ddw	0	; CC_ADDR_SPACE=Data
 10343  2074  00000025           	ddw	__ccovbit17_143/(0+8)	; CC_ADDR
 10344  2078  00000001           	ddw	1	; NUM_POINTS
 10345  207C  00000002           	ddw	__ccovbit17_143& (0+7)	; OFFSET
 10346  2080  00000000           	ddw	0	; Reserved
 10347  2084  FFFFFFFF           	ddw	4294967295	; RANGE_SPACE=restricted
 10348  2088  00000006           	ddw	6	; NUM_RANGES
 10349  208C  000002D2           	ddw	__ccov280_start_blk17	; block 17 START_ADDR
 10350  2090  000002D6           	ddw	__ccov280_end_blk17	; block 17 END_ADDR
 10351  2094  000002CB           	ddw	__ccov279_start_blk16	; block 16 START_ADDR
 10352  2098  000002D2           	ddw	__ccov279_end_blk16	; block 16 END_ADDR
 10353  209C  000002C2           	ddw	__ccov277_start_blk13	; block 13 START_ADDR
 10354  20A0  000002C7           	ddw	__ccov277_end_blk13	; block 13 END_ADDR
 10355  20A4  000002B6           	ddw	__ccov275_start_blk9	; block 9 START_ADDR
 10356  20A8  000002BB           	ddw	__ccov275_end_blk9	; block 9 END_ADDR
 10357  20AC  000002B0           	ddw	__ccov274_start_blk8	; block 8 START_ADDR
 10358  20B0  000002B6           	ddw	__ccov274_end_blk8	; block 8 END_ADDR
 10359  20B4  00000296           	ddw	_ms_200_work	; block 0 START_ADDR
 10360  20B8  0000029A           	ddw	__ccov269_end_blk0	; block 0 END_ADDR
 10361                           
 10362                           ; Function: ms_200_work, coverage: 22,0
 10363  20BC  00000000           	ddw	0	; CC_ADDR_SPACE=Data
 10364  20C0  00000025           	ddw	__ccovbit22_144/(0+8)	; CC_ADDR
 10365  20C4  00000001           	ddw	1	; NUM_POINTS
 10366  20C8  00000001           	ddw	__ccovbit22_144& (0+7)	; OFFSET
 10367  20CC  00000000           	ddw	0	; Reserved
 10368  20D0  FFFFFFFF           	ddw	4294967295	; RANGE_SPACE=restricted
 10369  20D4  00000002           	ddw	2	; NUM_RANGES
 10370  20D8  000002D6           	ddw	__ccov281_start_blk22	; block 22 START_ADDR
 10371  20DC  000002D9           	ddw	__end_of_ms_200_work	; block 22 END_ADDR
 10372  20E0  00000296           	ddw	_ms_200_work	; block 0 START_ADDR
 10373  20E4  0000029A           	ddw	__ccov269_end_blk0	; block 0 END_ADDR
 10374                           
 10375                           ; Function: ms_100_work, coverage: 1,0
 10376  20E8  00000000           	ddw	0	; CC_ADDR_SPACE=Data
 10377  20EC  00000025           	ddw	__ccovbit1_145/(0+8)	; CC_ADDR
 10378  20F0  00000001           	ddw	1	; NUM_POINTS
 10379  20F4  00000000           	ddw	__ccovbit1_145& (0+7)	; OFFSET
 10380  20F8  00000000           	ddw	0	; Reserved
 10381  20FC  FFFFFFFF           	ddw	4294967295	; RANGE_SPACE=restricted
 10382  2100  00000002           	ddw	2	; NUM_RANGES
 10383  2104  0000066B           	ddw	__ccov283_start_blk1	; block 1 START_ADDR
 10384  2108  00000671           	ddw	__ccov283_end_blk1	; block 1 END_ADDR
 10385  210C  00000667           	ddw	_ms_100_work	; block 0 START_ADDR
 10386  2110  0000066B           	ddw	__ccov282_end_blk0	; block 0 END_ADDR
 10387                           
 10388                           ; Function: ms_100_work, coverage: 2,0
 10389  2114  00000000           	ddw	0	; CC_ADDR_SPACE=Data
 10390  2118  00000024           	ddw	__ccovbit2_146/(0+8)	; CC_ADDR
 10391  211C  00000001           	ddw	1	; NUM_POINTS
 10392  2120  00000007           	ddw	__ccovbit2_146& (0+7)	; OFFSET
 10393  2124  00000000           	ddw	0	; Reserved
 10394  2128  FFFFFFFF           	ddw	4294967295	; RANGE_SPACE=restricted
 10395  212C  00000002           	ddw	2	; NUM_RANGES
 10396  2130  00000671           	ddw	__ccov284_start_blk2	; block 2 START_ADDR
 10397  2134  00000674           	ddw	__ccov284_end_blk2	; block 2 END_ADDR
 10398  2138  00000667           	ddw	_ms_100_work	; block 0 START_ADDR
 10399  213C  0000066B           	ddw	__ccov282_end_blk0	; block 0 END_ADDR
 10400                           
 10401                           ; Function: ms_100_work, coverage: 4,0
 10402  2140  00000000           	ddw	0	; CC_ADDR_SPACE=Data
 10403  2144  00000024           	ddw	__ccovbit4_147/(0+8)	; CC_ADDR
 10404  2148  00000001           	ddw	1	; NUM_POINTS
 10405  214C  00000006           	ddw	__ccovbit4_147& (0+7)	; OFFSET
 10406  2150  00000000           	ddw	0	; Reserved
 10407  2154  FFFFFFFF           	ddw	4294967295	; RANGE_SPACE=restricted
 10408  2158  00000002           	ddw	2	; NUM_RANGES
 10409  215C  00000674           	ddw	__ccov285_start_blk4	; block 4 START_ADDR
 10410  2160  00000676           	ddw	__end_of_ms_100_work	; block 4 END_ADDR
 10411  2164  00000667           	ddw	_ms_100_work	; block 0 START_ADDR
 10412  2168  0000066B           	ddw	__ccov282_end_blk0	; block 0 END_ADDR
 10413                           
 10414                           ; Function: ms_tick, coverage: 3,2,1,0
 10415  216C  00000000           	ddw	0	; CC_ADDR_SPACE=Data
 10416  2170  00000024           	ddw	__ccovbit3_148/(0+8)	; CC_ADDR
 10417  2174  00000001           	ddw	1	; NUM_POINTS
 10418  2178  00000005           	ddw	__ccovbit3_148& (0+7)	; OFFSET
 10419  217C  00000000           	ddw	0	; Reserved
 10420  2180  FFFFFFFF           	ddw	4294967295	; RANGE_SPACE=restricted
 10421  2184  00000004           	ddw	4	; NUM_RANGES
 10422  2188  000002E8           	ddw	__ccov289_start_blk3	; block 3 START_ADDR
 10423  218C  000002EF           	ddw	__ccov289_end_blk3	; block 3 END_ADDR
 10424  2190  000002E4           	ddw	__ccov288_start_blk2	; block 2 START_ADDR
 10425  2194  000002E8           	ddw	__ccov288_end_blk2	; block 2 END_ADDR
 10426  2198  000002DE           	ddw	__ccov287_start_blk1	; block 1 START_ADDR
 10427  219C  000002E4           	ddw	__ccov287_end_blk1	; block 1 END_ADDR
 10428  21A0  000002D9           	ddw	_ms_tick	; block 0 START_ADDR
 10429  21A4  000002DE           	ddw	__ccov286_end_blk0	; block 0 END_ADDR
 10430                           
 10431                           ; Function: ms_tick, coverage: 4,3,2,1,0
 10432  21A8  00000000           	ddw	0	; CC_ADDR_SPACE=Data
 10433  21AC  00000024           	ddw	__ccovbit4_149/(0+8)	; CC_ADDR
 10434  21B0  00000001           	ddw	1	; NUM_POINTS
 10435  21B4  00000004           	ddw	__ccovbit4_149& (0+7)	; OFFSET
 10436  21B8  00000000           	ddw	0	; Reserved
 10437  21BC  FFFFFFFF           	ddw	4294967295	; RANGE_SPACE=restricted
 10438  21C0  00000005           	ddw	5	; NUM_RANGES
 10439  21C4  000002EF           	ddw	__ccov290_start_blk4	; block 4 START_ADDR
 10440  21C8  000002F3           	ddw	__ccov290_end_blk4	; block 4 END_ADDR
 10441  21CC  000002E8           	ddw	__ccov289_start_blk3	; block 3 START_ADDR
 10442  21D0  000002EF           	ddw	__ccov289_end_blk3	; block 3 END_ADDR
 10443  21D4  000002E4           	ddw	__ccov288_start_blk2	; block 2 START_ADDR
 10444  21D8  000002E8           	ddw	__ccov288_end_blk2	; block 2 END_ADDR
 10445  21DC  000002DE           	ddw	__ccov287_start_blk1	; block 1 START_ADDR
 10446  21E0  000002E4           	ddw	__ccov287_end_blk1	; block 1 END_ADDR
 10447  21E4  000002D9           	ddw	_ms_tick	; block 0 START_ADDR
 10448  21E8  000002DE           	ddw	__ccov286_end_blk0	; block 0 END_ADDR
 10449                           
 10450                           ; Function: ms_tick, coverage: 12,11,10,9,8,7,1,0
 10451  21EC  00000000           	ddw	0	; CC_ADDR_SPACE=Data
 10452  21F0  00000024           	ddw	__ccovbit12_150/(0+8)	; CC_ADDR
 10453  21F4  00000001           	ddw	1	; NUM_POINTS
 10454  21F8  00000003           	ddw	__ccovbit12_150& (0+7)	; OFFSET
 10455  21FC  00000000           	ddw	0	; Reserved
 10456  2200  FFFFFFFF           	ddw	4294967295	; RANGE_SPACE=restricted
 10457  2204  00000008           	ddw	8	; NUM_RANGES
 10458  2208  00000308           	ddw	__ccov296_start_blk12	; block 12 START_ADDR
 10459  220C  0000030B           	ddw	__ccov296_end_blk12	; block 12 END_ADDR
 10460  2210  00000300           	ddw	__ccov295_start_blk11	; block 11 START_ADDR
 10461  2214  00000308           	ddw	__ccov295_end_blk11	; block 11 END_ADDR
 10462  2218  000002FD           	ddw	__ccov294_start_blk10	; block 10 START_ADDR
 10463  221C  00000300           	ddw	__ccov294_end_blk10	; block 10 END_ADDR
 10464  2220  000002F5           	ddw	__ccov293_start_blk9	; block 9 START_ADDR
 10465  2224  000002FD           	ddw	__ccov293_end_blk9	; block 9 END_ADDR
 10466  2228  000002F4           	ddw	__ccov292_start_blk8	; block 8 START_ADDR
 10467  222C  000002F5           	ddw	__ccov292_end_blk8	; block 8 END_ADDR
 10468  2230  000002F3           	ddw	__ccov291_start_blk7	; block 7 START_ADDR
 10469  2234  000002F4           	ddw	__ccov291_end_blk7	; block 7 END_ADDR
 10470  2238  000002DE           	ddw	__ccov287_start_blk1	; block 1 START_ADDR
 10471  223C  000002E4           	ddw	__ccov287_end_blk1	; block 1 END_ADDR
 10472  2240  000002D9           	ddw	_ms_tick	; block 0 START_ADDR
 10473  2244  000002DE           	ddw	__ccov286_end_blk0	; block 0 END_ADDR
 10474                           
 10475                           ; Function: ms_tick, coverage: 18,17,16,9,8,7,1,0
 10476  2248  00000000           	ddw	0	; CC_ADDR_SPACE=Data
 10477  224C  00000024           	ddw	__ccovbit18_151/(0+8)	; CC_ADDR
 10478  2250  00000001           	ddw	1	; NUM_POINTS
 10479  2254  00000002           	ddw	__ccovbit18_151& (0+7)	; OFFSET
 10480  2258  00000000           	ddw	0	; Reserved
 10481  225C  FFFFFFFF           	ddw	4294967295	; RANGE_SPACE=restricted
 10482  2260  00000008           	ddw	8	; NUM_RANGES
 10483  2264  00000315           	ddw	__ccov299_start_blk18	; block 18 START_ADDR
 10484  2268  00000319           	ddw	__ccov299_end_blk18	; block 18 END_ADDR
 10485  226C  00000312           	ddw	__ccov298_start_blk17	; block 17 START_ADDR
 10486  2270  00000315           	ddw	__ccov298_end_blk17	; block 17 END_ADDR
 10487  2274  0000030B           	ddw	__ccov297_start_blk16	; block 16 START_ADDR
 10488  2278  00000312           	ddw	__ccov297_end_blk16	; block 16 END_ADDR
 10489  227C  000002F5           	ddw	__ccov293_start_blk9	; block 9 START_ADDR
 10490  2280  000002FD           	ddw	__ccov293_end_blk9	; block 9 END_ADDR
 10491  2284  000002F4           	ddw	__ccov292_start_blk8	; block 8 START_ADDR
 10492  2288  000002F5           	ddw	__ccov292_end_blk8	; block 8 END_ADDR
 10493  228C  000002F3           	ddw	__ccov291_start_blk7	; block 7 START_ADDR
 10494  2290  000002F4           	ddw	__ccov291_end_blk7	; block 7 END_ADDR
 10495  2294  000002DE           	ddw	__ccov287_start_blk1	; block 1 START_ADDR
 10496  2298  000002E4           	ddw	__ccov287_end_blk1	; block 1 END_ADDR
 10497  229C  000002D9           	ddw	_ms_tick	; block 0 START_ADDR
 10498  22A0  000002DE           	ddw	__ccov286_end_blk0	; block 0 END_ADDR
 10499                           
 10500                           ; Function: ms_tick, coverage: 20,16,9,8,7,1,0
 10501  22A4  00000000           	ddw	0	; CC_ADDR_SPACE=Data
 10502  22A8  00000024           	ddw	__ccovbit20_152/(0+8)	; CC_ADDR
 10503  22AC  00000001           	ddw	1	; NUM_POINTS
 10504  22B0  00000001           	ddw	__ccovbit20_152& (0+7)	; OFFSET
 10505  22B4  00000000           	ddw	0	; Reserved
 10506  22B8  FFFFFFFF           	ddw	4294967295	; RANGE_SPACE=restricted
 10507  22BC  00000007           	ddw	7	; NUM_RANGES
 10508  22C0  00000319           	ddw	__ccov300_start_blk20	; block 20 START_ADDR
 10509  22C4  0000031B           	ddw	__end_of_ms_tick	; block 20 END_ADDR
 10510  22C8  0000030B           	ddw	__ccov297_start_blk16	; block 16 START_ADDR
 10511  22CC  00000312           	ddw	__ccov297_end_blk16	; block 16 END_ADDR
 10512  22D0  000002F5           	ddw	__ccov293_start_blk9	; block 9 START_ADDR
 10513  22D4  000002FD           	ddw	__ccov293_end_blk9	; block 9 END_ADDR
 10514  22D8  000002F4           	ddw	__ccov292_start_blk8	; block 8 START_ADDR
 10515  22DC  000002F5           	ddw	__ccov292_end_blk8	; block 8 END_ADDR
 10516  22E0  000002F3           	ddw	__ccov291_start_blk7	; block 7 START_ADDR
 10517  22E4  000002F4           	ddw	__ccov291_end_blk7	; block 7 END_ADDR
 10518  22E8  000002DE           	ddw	__ccov287_start_blk1	; block 1 START_ADDR
 10519  22EC  000002E4           	ddw	__ccov287_end_blk1	; block 1 END_ADDR
 10520  22F0  000002D9           	ddw	_ms_tick	; block 0 START_ADDR
 10521  22F4  000002DE           	ddw	__ccov286_end_blk0	; block 0 END_ADDR
 10522                           
 10523                           ; Function: eeprom_set, coverage: 2,1,0
 10524  22F8  00000000           	ddw	0	; CC_ADDR_SPACE=Data
 10525  22FC  00000024           	ddw	__ccovbit2_153/(0+8)	; CC_ADDR
 10526  2300  00000001           	ddw	1	; NUM_POINTS
 10527  2304  00000000           	ddw	__ccovbit2_153& (0+7)	; OFFSET
 10528  2308  00000000           	ddw	0	; Reserved
 10529  230C  FFFFFFFF           	ddw	4294967295	; RANGE_SPACE=restricted
 10530  2310  00000003           	ddw	3	; NUM_RANGES
 10531  2314  00000587           	ddw	__ccov303_start_blk2	; block 2 START_ADDR
 10532  2318  0000058E           	ddw	__ccov303_end_blk2	; block 2 END_ADDR
 10533  231C  00000582           	ddw	__ccov302_start_blk1	; block 1 START_ADDR
 10534  2320  00000587           	ddw	__ccov302_end_blk1	; block 1 END_ADDR
 10535  2324  0000057A           	ddw	_eeprom_set	; block 0 START_ADDR
 10536  2328  00000582           	ddw	__ccov301_end_blk0	; block 0 END_ADDR
 10537                           
 10538                           ; Function: eeprom_set, coverage: 4,1,0
 10539  232C  00000000           	ddw	0	; CC_ADDR_SPACE=Data
 10540  2330  00000023           	ddw	__ccovbit4_154/(0+8)	; CC_ADDR
 10541  2334  00000001           	ddw	1	; NUM_POINTS
 10542  2338  00000007           	ddw	__ccovbit4_154& (0+7)	; OFFSET
 10543  233C  00000000           	ddw	0	; Reserved
 10544  2340  FFFFFFFF           	ddw	4294967295	; RANGE_SPACE=restricted
 10545  2344  00000003           	ddw	3	; NUM_RANGES
 10546  2348  0000058E           	ddw	__ccov304_start_blk4	; block 4 START_ADDR
 10547  234C  00000591           	ddw	__end_of_eeprom_set	; block 4 END_ADDR
 10548  2350  00000582           	ddw	__ccov302_start_blk1	; block 1 START_ADDR
 10549  2354  00000587           	ddw	__ccov302_end_blk1	; block 1 END_ADDR
 10550  2358  0000057A           	ddw	_eeprom_set	; block 0 START_ADDR
 10551  235C  00000582           	ddw	__ccov301_end_blk0	; block 0 END_ADDR
 10552                           
 10553                           ; Function: hardware_work, coverage: 1,0
 10554  2360  00000000           	ddw	0	; CC_ADDR_SPACE=Data
 10555  2364  00000023           	ddw	__ccovbit1_155/(0+8)	; CC_ADDR
 10556  2368  00000001           	ddw	1	; NUM_POINTS
 10557  236C  00000006           	ddw	__ccovbit1_155& (0+7)	; OFFSET
 10558  2370  00000000           	ddw	0	; Reserved
 10559  2374  FFFFFFFF           	ddw	4294967295	; RANGE_SPACE=restricted
 10560  2378  00000002           	ddw	2	; NUM_RANGES
 10561  237C  00000387           	ddw	__ccov306_start_blk1	; block 1 START_ADDR
 10562  2380  0000038A           	ddw	__ccov306_end_blk1	; block 1 END_ADDR
 10563  2384  0000035B           	ddw	_hardware_work	; block 0 START_ADDR
 10564  2388  00000387           	ddw	__ccov305_end_blk0	; block 0 END_ADDR
 10565                           
 10566                           ; Function: hardware_work, coverage: 4,3,2,0
 10567  238C  00000000           	ddw	0	; CC_ADDR_SPACE=Data
 10568  2390  00000023           	ddw	__ccovbit4_156/(0+8)	; CC_ADDR
 10569  2394  00000001           	ddw	1	; NUM_POINTS
 10570  2398  00000005           	ddw	__ccovbit4_156& (0+7)	; OFFSET
 10571  239C  00000000           	ddw	0	; Reserved
 10572  23A0  FFFFFFFF           	ddw	4294967295	; RANGE_SPACE=restricted
 10573  23A4  00000004           	ddw	4	; NUM_RANGES
 10574  23A8  0000038F           	ddw	__ccov309_start_blk4	; block 4 START_ADDR
 10575  23AC  00000393           	ddw	__ccov309_end_blk4	; block 4 END_ADDR
 10576  23B0  0000038E           	ddw	__ccov308_start_blk3	; block 3 START_ADDR
 10577  23B4  0000038F           	ddw	__ccov308_end_blk3	; block 3 END_ADDR
 10578  23B8  0000038A           	ddw	__ccov307_start_blk2	; block 2 START_ADDR
 10579  23BC  0000038E           	ddw	__ccov307_end_blk2	; block 2 END_ADDR
 10580  23C0  0000035B           	ddw	_hardware_work	; block 0 START_ADDR
 10581  23C4  00000387           	ddw	__ccov305_end_blk0	; block 0 END_ADDR
 10582                           
 10583                           ; Function: hardware_work, coverage: 7,2,0
 10584  23C8  00000000           	ddw	0	; CC_ADDR_SPACE=Data
 10585  23CC  00000023           	ddw	__ccovbit7_157/(0+8)	; CC_ADDR
 10586  23D0  00000001           	ddw	1	; NUM_POINTS
 10587  23D4  00000004           	ddw	__ccovbit7_157& (0+7)	; OFFSET
 10588  23D8  00000000           	ddw	0	; Reserved
 10589  23DC  FFFFFFFF           	ddw	4294967295	; RANGE_SPACE=restricted
 10590  23E0  00000003           	ddw	3	; NUM_RANGES
 10591  23E4  00000393           	ddw	__ccov310_start_blk7	; block 7 START_ADDR
 10592  23E8  00000396           	ddw	__end_of_hardware_work	; block 7 END_ADDR
 10593  23EC  0000038A           	ddw	__ccov307_start_blk2	; block 2 START_ADDR
 10594  23F0  0000038E           	ddw	__ccov307_end_blk2	; block 2 END_ADDR
 10595  23F4  0000035B           	ddw	_hardware_work	; block 0 START_ADDR
 10596  23F8  00000387           	ddw	__ccov305_end_blk0	; block 0 END_ADDR
 10597                           
 10598                           ; Function: zummer_switch, coverage: 3,1,0
 10599  23FC  00000000           	ddw	0	; CC_ADDR_SPACE=Data
 10600  2400  00000023           	ddw	__ccovbit3_158/(0+8)	; CC_ADDR
 10601  2404  00000001           	ddw	1	; NUM_POINTS
 10602  2408  00000003           	ddw	__ccovbit3_158& (0+7)	; OFFSET
 10603  240C  00000000           	ddw	0	; Reserved
 10604  2410  FFFFFFFF           	ddw	4294967295	; RANGE_SPACE=restricted
 10605  2414  00000002           	ddw	2	; NUM_RANGES
 10606  2418  00000682           	ddw	__ccov313_start_blk3	; block 3 START_ADDR
 10607  241C  00000685           	ddw	__end_of_zummer_switch	; block 3 END_ADDR
 10608  2420  00000676           	ddw	_zummer_switch	; block 1 START_ADDR
 10609  2424  00000682           	ddw	__ccov312_end_blk1	; block 1 END_ADDR
 10610                           
 10611                           ; Function: get_wsp, coverage: 14,13,11,8,6,5,3,1,0
 10612  2428  00000000           	ddw	0	; CC_ADDR_SPACE=Data
 10613  242C  00000023           	ddw	__ccovbit14_159/(0+8)	; CC_ADDR
 10614  2430  00000001           	ddw	1	; NUM_POINTS
 10615  2434  00000002           	ddw	__ccovbit14_159& (0+7)	; OFFSET
 10616  2438  00000000           	ddw	0	; Reserved
 10617  243C  FFFFFFFF           	ddw	4294967295	; RANGE_SPACE=restricted
 10618  2440  00000009           	ddw	9	; NUM_RANGES
 10619  2444  00000163           	ddw	__ccov322_start_blk14	; block 14 START_ADDR
 10620  2448  00000169           	ddw	__ccov322_end_blk14	; block 14 END_ADDR
 10621  244C  00000159           	ddw	__ccov321_start_blk13	; block 13 START_ADDR
 10622  2450  00000163           	ddw	__ccov321_end_blk13	; block 13 END_ADDR
 10623  2454  00000157           	ddw	__ccov320_start_blk11	; block 11 START_ADDR
 10624  2458  00000159           	ddw	__ccov320_end_blk11	; block 11 END_ADDR
 10625  245C  00000155           	ddw	__ccov319_start_blk8	; block 8 START_ADDR
 10626  2460  00000157           	ddw	__ccov319_end_blk8	; block 8 END_ADDR
 10627  2464  0000014A           	ddw	__ccov318_start_blk6	; block 6 START_ADDR
 10628  2468  00000155           	ddw	__ccov318_end_blk6	; block 6 END_ADDR
 10629  246C  00000142           	ddw	__ccov317_start_blk5	; block 5 START_ADDR
 10630  2470  0000014A           	ddw	__ccov317_end_blk5	; block 5 END_ADDR
 10631  2474  00000140           	ddw	__ccov316_start_blk3	; block 3 START_ADDR
 10632  2478  00000142           	ddw	__ccov316_end_blk3	; block 3 END_ADDR
 10633  247C  0000013E           	ddw	__ccov315_start_blk1	; block 1 START_ADDR
 10634  2480  00000140           	ddw	__ccov315_end_blk1	; block 1 END_ADDR
 10635  2484  0000013A           	ddw	_get_wsp	; block 0 START_ADDR
 10636  2488  0000013E           	ddw	__ccov314_end_blk0	; block 0 END_ADDR
 10637                           
 10638                           ; Function: get_wsp, coverage: 16,13,11,8,6,5,3,1,0
 10639  248C  00000000           	ddw	0	; CC_ADDR_SPACE=Data
 10640  2490  00000023           	ddw	__ccovbit16_160/(0+8)	; CC_ADDR
 10641  2494  00000001           	ddw	1	; NUM_POINTS
 10642  2498  00000001           	ddw	__ccovbit16_160& (0+7)	; OFFSET
 10643  249C  00000000           	ddw	0	; Reserved
 10644  24A0  FFFFFFFF           	ddw	4294967295	; RANGE_SPACE=restricted
 10645  24A4  00000009           	ddw	9	; NUM_RANGES
 10646  24A8  00000169           	ddw	__ccov323_start_blk16	; block 16 START_ADDR
 10647  24AC  00000173           	ddw	__ccov323_end_blk16	; block 16 END_ADDR
 10648  24B0  00000159           	ddw	__ccov321_start_blk13	; block 13 START_ADDR
 10649  24B4  00000163           	ddw	__ccov321_end_blk13	; block 13 END_ADDR
 10650  24B8  00000157           	ddw	__ccov320_start_blk11	; block 11 START_ADDR
 10651  24BC  00000159           	ddw	__ccov320_end_blk11	; block 11 END_ADDR
 10652  24C0  00000155           	ddw	__ccov319_start_blk8	; block 8 START_ADDR
 10653  24C4  00000157           	ddw	__ccov319_end_blk8	; block 8 END_ADDR
 10654  24C8  0000014A           	ddw	__ccov318_start_blk6	; block 6 START_ADDR
 10655  24CC  00000155           	ddw	__ccov318_end_blk6	; block 6 END_ADDR
 10656  24D0  00000142           	ddw	__ccov317_start_blk5	; block 5 START_ADDR
 10657  24D4  0000014A           	ddw	__ccov317_end_blk5	; block 5 END_ADDR
 10658  24D8  00000140           	ddw	__ccov316_start_blk3	; block 3 START_ADDR
 10659  24DC  00000142           	ddw	__ccov316_end_blk3	; block 3 END_ADDR
 10660  24E0  0000013E           	ddw	__ccov315_start_blk1	; block 1 START_ADDR
 10661  24E4  00000140           	ddw	__ccov315_end_blk1	; block 1 END_ADDR
 10662  24E8  0000013A           	ddw	_get_wsp	; block 0 START_ADDR
 10663  24EC  0000013E           	ddw	__ccov314_end_blk0	; block 0 END_ADDR
 10664                           
 10665                           ; Function: get_wsp, coverage: 17,16,13,11,8,6,5,3,1,0
 10666  24F0  00000000           	ddw	0	; CC_ADDR_SPACE=Data
 10667  24F4  00000023           	ddw	__ccovbit17_161/(0+8)	; CC_ADDR
 10668  24F8  00000001           	ddw	1	; NUM_POINTS
 10669  24FC  00000000           	ddw	__ccovbit17_161& (0+7)	; OFFSET
 10670  2500  00000000           	ddw	0	; Reserved
 10671  2504  FFFFFFFF           	ddw	4294967295	; RANGE_SPACE=restricted
 10672  2508  0000000A           	ddw	10	; NUM_RANGES
 10673  250C  00000173           	ddw	__ccov324_start_blk17	; block 17 START_ADDR
 10674  2510  00000178           	ddw	__ccov324_end_blk17	; block 17 END_ADDR
 10675  2514  00000169           	ddw	__ccov323_start_blk16	; block 16 START_ADDR
 10676  2518  00000173           	ddw	__ccov323_end_blk16	; block 16 END_ADDR
 10677  251C  00000159           	ddw	__ccov321_start_blk13	; block 13 START_ADDR
 10678  2520  00000163           	ddw	__ccov321_end_blk13	; block 13 END_ADDR
 10679  2524  00000157           	ddw	__ccov320_start_blk11	; block 11 START_ADDR
 10680  2528  00000159           	ddw	__ccov320_end_blk11	; block 11 END_ADDR
 10681  252C  00000155           	ddw	__ccov319_start_blk8	; block 8 START_ADDR
 10682  2530  00000157           	ddw	__ccov319_end_blk8	; block 8 END_ADDR
 10683  2534  0000014A           	ddw	__ccov318_start_blk6	; block 6 START_ADDR
 10684  2538  00000155           	ddw	__ccov318_end_blk6	; block 6 END_ADDR
 10685  253C  00000142           	ddw	__ccov317_start_blk5	; block 5 START_ADDR
 10686  2540  0000014A           	ddw	__ccov317_end_blk5	; block 5 END_ADDR
 10687  2544  00000140           	ddw	__ccov316_start_blk3	; block 3 START_ADDR
 10688  2548  00000142           	ddw	__ccov316_end_blk3	; block 3 END_ADDR
 10689  254C  0000013E           	ddw	__ccov315_start_blk1	; block 1 START_ADDR
 10690  2550  00000140           	ddw	__ccov315_end_blk1	; block 1 END_ADDR
 10691  2554  0000013A           	ddw	_get_wsp	; block 0 START_ADDR
 10692  2558  0000013E           	ddw	__ccov314_end_blk0	; block 0 END_ADDR
 10693                           
 10694                           ; Function: get_wsp, coverage: 22,21,20,13,11,8,6,5,3,1,0
 10695  255C  00000000           	ddw	0	; CC_ADDR_SPACE=Data
 10696  2560  00000022           	ddw	__ccovbit22_162/(0+8)	; CC_ADDR
 10697  2564  00000001           	ddw	1	; NUM_POINTS
 10698  2568  00000007           	ddw	__ccovbit22_162& (0+7)	; OFFSET
 10699  256C  00000000           	ddw	0	; Reserved
 10700  2570  FFFFFFFF           	ddw	4294967295	; RANGE_SPACE=restricted
 10701  2574  0000000B           	ddw	11	; NUM_RANGES
 10702  2578  00000182           	ddw	__ccov327_start_blk22	; block 22 START_ADDR
 10703  257C  00000188           	ddw	__ccov327_end_blk22	; block 22 END_ADDR
 10704  2580  0000017F           	ddw	__ccov326_start_blk21	; block 21 START_ADDR
 10705  2584  00000182           	ddw	__ccov326_end_blk21	; block 21 END_ADDR
 10706  2588  00000178           	ddw	__ccov325_start_blk20	; block 20 START_ADDR
 10707  258C  0000017F           	ddw	__ccov325_end_blk20	; block 20 END_ADDR
 10708  2590  00000159           	ddw	__ccov321_start_blk13	; block 13 START_ADDR
 10709  2594  00000163           	ddw	__ccov321_end_blk13	; block 13 END_ADDR
 10710  2598  00000157           	ddw	__ccov320_start_blk11	; block 11 START_ADDR
 10711  259C  00000159           	ddw	__ccov320_end_blk11	; block 11 END_ADDR
 10712  25A0  00000155           	ddw	__ccov319_start_blk8	; block 8 START_ADDR
 10713  25A4  00000157           	ddw	__ccov319_end_blk8	; block 8 END_ADDR
 10714  25A8  0000014A           	ddw	__ccov318_start_blk6	; block 6 START_ADDR
 10715  25AC  00000155           	ddw	__ccov318_end_blk6	; block 6 END_ADDR
 10716  25B0  00000142           	ddw	__ccov317_start_blk5	; block 5 START_ADDR
 10717  25B4  0000014A           	ddw	__ccov317_end_blk5	; block 5 END_ADDR
 10718  25B8  00000140           	ddw	__ccov316_start_blk3	; block 3 START_ADDR
 10719  25BC  00000142           	ddw	__ccov316_end_blk3	; block 3 END_ADDR
 10720  25C0  0000013E           	ddw	__ccov315_start_blk1	; block 1 START_ADDR
 10721  25C4  00000140           	ddw	__ccov315_end_blk1	; block 1 END_ADDR
 10722  25C8  0000013A           	ddw	_get_wsp	; block 0 START_ADDR
 10723  25CC  0000013E           	ddw	__ccov314_end_blk0	; block 0 END_ADDR
 10724                           
 10725                           ; Function: get_wsp, coverage: 26,25,24,20,13,11,8,6,5,3,1,0
 10726  25D0  00000000           	ddw	0	; CC_ADDR_SPACE=Data
 10727  25D4  00000022           	ddw	__ccovbit26_163/(0+8)	; CC_ADDR
 10728  25D8  00000001           	ddw	1	; NUM_POINTS
 10729  25DC  00000006           	ddw	__ccovbit26_163& (0+7)	; OFFSET
 10730  25E0  00000000           	ddw	0	; Reserved
 10731  25E4  FFFFFFFF           	ddw	4294967295	; RANGE_SPACE=restricted
 10732  25E8  0000000C           	ddw	12	; NUM_RANGES
 10733  25EC  00000192           	ddw	__ccov330_start_blk26	; block 26 START_ADDR
 10734  25F0  00000198           	ddw	__ccov330_end_blk26	; block 26 END_ADDR
 10735  25F4  0000018F           	ddw	__ccov329_start_blk25	; block 25 START_ADDR
 10736  25F8  00000192           	ddw	__ccov329_end_blk25	; block 25 END_ADDR
 10737  25FC  00000188           	ddw	__ccov328_start_blk24	; block 24 START_ADDR
 10738  2600  0000018F           	ddw	__ccov328_end_blk24	; block 24 END_ADDR
 10739  2604  00000178           	ddw	__ccov325_start_blk20	; block 20 START_ADDR
 10740  2608  0000017F           	ddw	__ccov325_end_blk20	; block 20 END_ADDR
 10741  260C  00000159           	ddw	__ccov321_start_blk13	; block 13 START_ADDR
 10742  2610  00000163           	ddw	__ccov321_end_blk13	; block 13 END_ADDR
 10743  2614  00000157           	ddw	__ccov320_start_blk11	; block 11 START_ADDR
 10744  2618  00000159           	ddw	__ccov320_end_blk11	; block 11 END_ADDR
 10745  261C  00000155           	ddw	__ccov319_start_blk8	; block 8 START_ADDR
 10746  2620  00000157           	ddw	__ccov319_end_blk8	; block 8 END_ADDR
 10747  2624  0000014A           	ddw	__ccov318_start_blk6	; block 6 START_ADDR
 10748  2628  00000155           	ddw	__ccov318_end_blk6	; block 6 END_ADDR
 10749  262C  00000142           	ddw	__ccov317_start_blk5	; block 5 START_ADDR
 10750  2630  0000014A           	ddw	__ccov317_end_blk5	; block 5 END_ADDR
 10751  2634  00000140           	ddw	__ccov316_start_blk3	; block 3 START_ADDR
 10752  2638  00000142           	ddw	__ccov316_end_blk3	; block 3 END_ADDR
 10753  263C  0000013E           	ddw	__ccov315_start_blk1	; block 1 START_ADDR
 10754  2640  00000140           	ddw	__ccov315_end_blk1	; block 1 END_ADDR
 10755  2644  0000013A           	ddw	_get_wsp	; block 0 START_ADDR
 10756  2648  0000013E           	ddw	__ccov314_end_blk0	; block 0 END_ADDR
 10757                           
 10758                           ; Function: get_wsp, coverage: 28,24,20,13,11,8,6,5,3,1,0
 10759  264C  00000000           	ddw	0	; CC_ADDR_SPACE=Data
 10760  2650  00000022           	ddw	__ccovbit28_164/(0+8)	; CC_ADDR
 10761  2654  00000001           	ddw	1	; NUM_POINTS
 10762  2658  00000005           	ddw	__ccovbit28_164& (0+7)	; OFFSET
 10763  265C  00000000           	ddw	0	; Reserved
 10764  2660  FFFFFFFF           	ddw	4294967295	; RANGE_SPACE=restricted
 10765  2664  0000000B           	ddw	11	; NUM_RANGES
 10766  2668  00000198           	ddw	__ccov331_start_blk28	; block 28 START_ADDR
 10767  266C  0000019A           	ddw	__ccov331_end_blk28	; block 28 END_ADDR
 10768  2670  00000188           	ddw	__ccov328_start_blk24	; block 24 START_ADDR
 10769  2674  0000018F           	ddw	__ccov328_end_blk24	; block 24 END_ADDR
 10770  2678  00000178           	ddw	__ccov325_start_blk20	; block 20 START_ADDR
 10771  267C  0000017F           	ddw	__ccov325_end_blk20	; block 20 END_ADDR
 10772  2680  00000159           	ddw	__ccov321_start_blk13	; block 13 START_ADDR
 10773  2684  00000163           	ddw	__ccov321_end_blk13	; block 13 END_ADDR
 10774  2688  00000157           	ddw	__ccov320_start_blk11	; block 11 START_ADDR
 10775  268C  00000159           	ddw	__ccov320_end_blk11	; block 11 END_ADDR
 10776  2690  00000155           	ddw	__ccov319_start_blk8	; block 8 START_ADDR
 10777  2694  00000157           	ddw	__ccov319_end_blk8	; block 8 END_ADDR
 10778  2698  0000014A           	ddw	__ccov318_start_blk6	; block 6 START_ADDR
 10779  269C  00000155           	ddw	__ccov318_end_blk6	; block 6 END_ADDR
 10780  26A0  00000142           	ddw	__ccov317_start_blk5	; block 5 START_ADDR
 10781  26A4  0000014A           	ddw	__ccov317_end_blk5	; block 5 END_ADDR
 10782  26A8  00000140           	ddw	__ccov316_start_blk3	; block 3 START_ADDR
 10783  26AC  00000142           	ddw	__ccov316_end_blk3	; block 3 END_ADDR
 10784  26B0  0000013E           	ddw	__ccov315_start_blk1	; block 1 START_ADDR
 10785  26B4  00000140           	ddw	__ccov315_end_blk1	; block 1 END_ADDR
 10786  26B8  0000013A           	ddw	_get_wsp	; block 0 START_ADDR
 10787  26BC  0000013E           	ddw	__ccov314_end_blk0	; block 0 END_ADDR
 10788                           
 10789                           ; Function: get_wsp, coverage: 30,0
 10790  26C0  00000000           	ddw	0	; CC_ADDR_SPACE=Data
 10791  26C4  00000022           	ddw	__ccovbit30_165/(0+8)	; CC_ADDR
 10792  26C8  00000001           	ddw	1	; NUM_POINTS
 10793  26CC  00000004           	ddw	__ccovbit30_165& (0+7)	; OFFSET
 10794  26D0  00000000           	ddw	0	; Reserved
 10795  26D4  FFFFFFFF           	ddw	4294967295	; RANGE_SPACE=restricted
 10796  26D8  00000002           	ddw	2	; NUM_RANGES
 10797  26DC  0000019A           	ddw	__ccov332_start_blk30	; block 30 START_ADDR
 10798  26E0  0000019D           	ddw	__end_of_get_wsp	; block 30 END_ADDR
 10799  26E4  0000013A           	ddw	_get_wsp	; block 0 START_ADDR
 10800  26E8  0000013E           	ddw	__ccov314_end_blk0	; block 0 END_ADDR
 10801                           
 10802                           ; Function: get_fun, coverage: 11,10,8,5,3,1,0
 10803  26EC  00000000           	ddw	0	; CC_ADDR_SPACE=Data
 10804  26F0  00000022           	ddw	__ccovbit11_166/(0+8)	; CC_ADDR
 10805  26F4  00000001           	ddw	1	; NUM_POINTS
 10806  26F8  00000003           	ddw	__ccovbit11_166& (0+7)	; OFFSET
 10807  26FC  00000000           	ddw	0	; Reserved
 10808  2700  FFFFFFFF           	ddw	4294967295	; RANGE_SPACE=restricted
 10809  2704  00000007           	ddw	7	; NUM_RANGES
 10810  2708  00000265           	ddw	__ccov339_start_blk11	; block 11 START_ADDR
 10811  270C  0000026B           	ddw	__ccov339_end_blk11	; block 11 END_ADDR
 10812  2710  00000260           	ddw	__ccov338_start_blk10	; block 10 START_ADDR
 10813  2714  00000265           	ddw	__ccov338_end_blk10	; block 10 END_ADDR
 10814  2718  0000025E           	ddw	__ccov337_start_blk8	; block 8 START_ADDR
 10815  271C  00000260           	ddw	__ccov337_end_blk8	; block 8 END_ADDR
 10816  2720  0000025C           	ddw	__ccov336_start_blk5	; block 5 START_ADDR
 10817  2724  0000025E           	ddw	__ccov336_end_blk5	; block 5 END_ADDR
 10818  2728  00000254           	ddw	__ccov335_start_blk3	; block 3 START_ADDR
 10819  272C  0000025C           	ddw	__ccov335_end_blk3	; block 3 END_ADDR
 10820  2730  00000252           	ddw	__ccov334_start_blk1	; block 1 START_ADDR
 10821  2734  00000254           	ddw	__ccov334_end_blk1	; block 1 END_ADDR
 10822  2738  0000024E           	ddw	_get_fun	; block 0 START_ADDR
 10823  273C  00000252           	ddw	__ccov333_end_blk0	; block 0 END_ADDR
 10824                           
 10825                           ; Function: get_fun, coverage: 13,10,8,5,3,1,0
 10826  2740  00000000           	ddw	0	; CC_ADDR_SPACE=Data
 10827  2744  00000022           	ddw	__ccovbit13_167/(0+8)	; CC_ADDR
 10828  2748  00000001           	ddw	1	; NUM_POINTS
 10829  274C  00000002           	ddw	__ccovbit13_167& (0+7)	; OFFSET
 10830  2750  00000000           	ddw	0	; Reserved
 10831  2754  FFFFFFFF           	ddw	4294967295	; RANGE_SPACE=restricted
 10832  2758  00000007           	ddw	7	; NUM_RANGES
 10833  275C  0000026B           	ddw	__ccov340_start_blk13	; block 13 START_ADDR
 10834  2760  00000270           	ddw	__ccov340_end_blk13	; block 13 END_ADDR
 10835  2764  00000260           	ddw	__ccov338_start_blk10	; block 10 START_ADDR
 10836  2768  00000265           	ddw	__ccov338_end_blk10	; block 10 END_ADDR
 10837  276C  0000025E           	ddw	__ccov337_start_blk8	; block 8 START_ADDR
 10838  2770  00000260           	ddw	__ccov337_end_blk8	; block 8 END_ADDR
 10839  2774  0000025C           	ddw	__ccov336_start_blk5	; block 5 START_ADDR
 10840  2778  0000025E           	ddw	__ccov336_end_blk5	; block 5 END_ADDR
 10841  277C  00000254           	ddw	__ccov335_start_blk3	; block 3 START_ADDR
 10842  2780  0000025C           	ddw	__ccov335_end_blk3	; block 3 END_ADDR
 10843  2784  00000252           	ddw	__ccov334_start_blk1	; block 1 START_ADDR
 10844  2788  00000254           	ddw	__ccov334_end_blk1	; block 1 END_ADDR
 10845  278C  0000024E           	ddw	_get_fun	; block 0 START_ADDR
 10846  2790  00000252           	ddw	__ccov333_end_blk0	; block 0 END_ADDR
 10847                           
 10848                           ; Function: get_fun, coverage: 21,20,19,18,16,10,8,5,3,1,0
 10849  2794  00000000           	ddw	0	; CC_ADDR_SPACE=Data
 10850  2798  00000022           	ddw	__ccovbit21_168/(0+8)	; CC_ADDR
 10851  279C  00000001           	ddw	1	; NUM_POINTS
 10852  27A0  00000001           	ddw	__ccovbit21_168& (0+7)	; OFFSET
 10853  27A4  00000000           	ddw	0	; Reserved
 10854  27A8  FFFFFFFF           	ddw	4294967295	; RANGE_SPACE=restricted
 10855  27AC  0000000B           	ddw	11	; NUM_RANGES
 10856  27B0  0000027F           	ddw	__ccov345_start_blk21	; block 21 START_ADDR
 10857  27B4  00000282           	ddw	__ccov345_end_blk21	; block 21 END_ADDR
 10858  27B8  0000027E           	ddw	__ccov344_start_blk20	; block 20 START_ADDR
 10859  27BC  0000027F           	ddw	__ccov344_end_blk20	; block 20 END_ADDR
 10860  27C0  0000027A           	ddw	__ccov343_start_blk19	; block 19 START_ADDR
 10861  27C4  0000027E           	ddw	__ccov343_end_blk19	; block 19 END_ADDR
 10862  27C8  00000272           	ddw	__ccov342_start_blk18	; block 18 START_ADDR
 10863  27CC  0000027A           	ddw	__ccov342_end_blk18	; block 18 END_ADDR
 10864  27D0  00000270           	ddw	__ccov341_start_blk16	; block 16 START_ADDR
 10865  27D4  00000272           	ddw	__ccov341_end_blk16	; block 16 END_ADDR
 10866  27D8  00000260           	ddw	__ccov338_start_blk10	; block 10 START_ADDR
 10867  27DC  00000265           	ddw	__ccov338_end_blk10	; block 10 END_ADDR
 10868  27E0  0000025E           	ddw	__ccov337_start_blk8	; block 8 START_ADDR
 10869  27E4  00000260           	ddw	__ccov337_end_blk8	; block 8 END_ADDR
 10870  27E8  0000025C           	ddw	__ccov336_start_blk5	; block 5 START_ADDR
 10871  27EC  0000025E           	ddw	__ccov336_end_blk5	; block 5 END_ADDR
 10872  27F0  00000254           	ddw	__ccov335_start_blk3	; block 3 START_ADDR
 10873  27F4  0000025C           	ddw	__ccov335_end_blk3	; block 3 END_ADDR
 10874  27F8  00000252           	ddw	__ccov334_start_blk1	; block 1 START_ADDR
 10875  27FC  00000254           	ddw	__ccov334_end_blk1	; block 1 END_ADDR
 10876  2800  0000024E           	ddw	_get_fun	; block 0 START_ADDR
 10877  2804  00000252           	ddw	__ccov333_end_blk0	; block 0 END_ADDR
 10878                           
 10879                           ; Function: get_fun, coverage: 23,18,16,10,8,5,3,1,0
 10880  2808  00000000           	ddw	0	; CC_ADDR_SPACE=Data
 10881  280C  00000022           	ddw	__ccovbit23_169/(0+8)	; CC_ADDR
 10882  2810  00000001           	ddw	1	; NUM_POINTS
 10883  2814  00000000           	ddw	__ccovbit23_169& (0+7)	; OFFSET
 10884  2818  00000000           	ddw	0	; Reserved
 10885  281C  FFFFFFFF           	ddw	4294967295	; RANGE_SPACE=restricted
 10886  2820  00000009           	ddw	9	; NUM_RANGES
 10887  2824  00000282           	ddw	__ccov346_start_blk23	; block 23 START_ADDR
 10888  2828  0000028A           	ddw	__ccov346_end_blk23	; block 23 END_ADDR
 10889  282C  00000272           	ddw	__ccov342_start_blk18	; block 18 START_ADDR
 10890  2830  0000027A           	ddw	__ccov342_end_blk18	; block 18 END_ADDR
 10891  2834  00000270           	ddw	__ccov341_start_blk16	; block 16 START_ADDR
 10892  2838  00000272           	ddw	__ccov341_end_blk16	; block 16 END_ADDR
 10893  283C  00000260           	ddw	__ccov338_start_blk10	; block 10 START_ADDR
 10894  2840  00000265           	ddw	__ccov338_end_blk10	; block 10 END_ADDR
 10895  2844  0000025E           	ddw	__ccov337_start_blk8	; block 8 START_ADDR
 10896  2848  00000260           	ddw	__ccov337_end_blk8	; block 8 END_ADDR
 10897  284C  0000025C           	ddw	__ccov336_start_blk5	; block 5 START_ADDR
 10898  2850  0000025E           	ddw	__ccov336_end_blk5	; block 5 END_ADDR
 10899  2854  00000254           	ddw	__ccov335_start_blk3	; block 3 START_ADDR
 10900  2858  0000025C           	ddw	__ccov335_end_blk3	; block 3 END_ADDR
 10901  285C  00000252           	ddw	__ccov334_start_blk1	; block 1 START_ADDR
 10902  2860  00000254           	ddw	__ccov334_end_blk1	; block 1 END_ADDR
 10903  2864  0000024E           	ddw	_get_fun	; block 0 START_ADDR
 10904  2868  00000252           	ddw	__ccov333_end_blk0	; block 0 END_ADDR
 10905                           
 10906                           ; Function: get_fun, coverage: 26,25,24,23,18,16,10,8,5,3,1,0
 10907  286C  00000000           	ddw	0	; CC_ADDR_SPACE=Data
 10908  2870  00000021           	ddw	__ccovbit26_170/(0+8)	; CC_ADDR
 10909  2874  00000001           	ddw	1	; NUM_POINTS
 10910  2878  00000007           	ddw	__ccovbit26_170& (0+7)	; OFFSET
 10911  287C  00000000           	ddw	0	; Reserved
 10912  2880  FFFFFFFF           	ddw	4294967295	; RANGE_SPACE=restricted
 10913  2884  0000000C           	ddw	12	; NUM_RANGES
 10914  2888  0000028F           	ddw	__ccov349_start_blk26	; block 26 START_ADDR
 10915  288C  00000291           	ddw	__ccov349_end_blk26	; block 26 END_ADDR
 10916  2890  0000028E           	ddw	__ccov348_start_blk25	; block 25 START_ADDR
 10917  2894  0000028F           	ddw	__ccov348_end_blk25	; block 25 END_ADDR
 10918  2898  0000028A           	ddw	__ccov347_start_blk24	; block 24 START_ADDR
 10919  289C  0000028E           	ddw	__ccov347_end_blk24	; block 24 END_ADDR
 10920  28A0  00000282           	ddw	__ccov346_start_blk23	; block 23 START_ADDR
 10921  28A4  0000028A           	ddw	__ccov346_end_blk23	; block 23 END_ADDR
 10922  28A8  00000272           	ddw	__ccov342_start_blk18	; block 18 START_ADDR
 10923  28AC  0000027A           	ddw	__ccov342_end_blk18	; block 18 END_ADDR
 10924  28B0  00000270           	ddw	__ccov341_start_blk16	; block 16 START_ADDR
 10925  28B4  00000272           	ddw	__ccov341_end_blk16	; block 16 END_ADDR
 10926  28B8  00000260           	ddw	__ccov338_start_blk10	; block 10 START_ADDR
 10927  28BC  00000265           	ddw	__ccov338_end_blk10	; block 10 END_ADDR
 10928  28C0  0000025E           	ddw	__ccov337_start_blk8	; block 8 START_ADDR
 10929  28C4  00000260           	ddw	__ccov337_end_blk8	; block 8 END_ADDR
 10930  28C8  0000025C           	ddw	__ccov336_start_blk5	; block 5 START_ADDR
 10931  28CC  0000025E           	ddw	__ccov336_end_blk5	; block 5 END_ADDR
 10932  28D0  00000254           	ddw	__ccov335_start_blk3	; block 3 START_ADDR
 10933  28D4  0000025C           	ddw	__ccov335_end_blk3	; block 3 END_ADDR
 10934  28D8  00000252           	ddw	__ccov334_start_blk1	; block 1 START_ADDR
 10935  28DC  00000254           	ddw	__ccov334_end_blk1	; block 1 END_ADDR
 10936  28E0  0000024E           	ddw	_get_fun	; block 0 START_ADDR
 10937  28E4  00000252           	ddw	__ccov333_end_blk0	; block 0 END_ADDR
 10938                           
 10939                           ; Function: get_fun, coverage: 29,18,16,10,8,5,3,1,0
 10940  28E8  00000000           	ddw	0	; CC_ADDR_SPACE=Data
 10941  28EC  00000021           	ddw	__ccovbit29_171/(0+8)	; CC_ADDR
 10942  28F0  00000001           	ddw	1	; NUM_POINTS
 10943  28F4  00000006           	ddw	__ccovbit29_171& (0+7)	; OFFSET
 10944  28F8  00000000           	ddw	0	; Reserved
 10945  28FC  FFFFFFFF           	ddw	4294967295	; RANGE_SPACE=restricted
 10946  2900  00000009           	ddw	9	; NUM_RANGES
 10947  2904  00000291           	ddw	__ccov350_start_blk29	; block 29 START_ADDR
 10948  2908  00000293           	ddw	__ccov350_end_blk29	; block 29 END_ADDR
 10949  290C  00000272           	ddw	__ccov342_start_blk18	; block 18 START_ADDR
 10950  2910  0000027A           	ddw	__ccov342_end_blk18	; block 18 END_ADDR
 10951  2914  00000270           	ddw	__ccov341_start_blk16	; block 16 START_ADDR
 10952  2918  00000272           	ddw	__ccov341_end_blk16	; block 16 END_ADDR
 10953  291C  00000260           	ddw	__ccov338_start_blk10	; block 10 START_ADDR
 10954  2920  00000265           	ddw	__ccov338_end_blk10	; block 10 END_ADDR
 10955  2924  0000025E           	ddw	__ccov337_start_blk8	; block 8 START_ADDR
 10956  2928  00000260           	ddw	__ccov337_end_blk8	; block 8 END_ADDR
 10957  292C  0000025C           	ddw	__ccov336_start_blk5	; block 5 START_ADDR
 10958  2930  0000025E           	ddw	__ccov336_end_blk5	; block 5 END_ADDR
 10959  2934  00000254           	ddw	__ccov335_start_blk3	; block 3 START_ADDR
 10960  2938  0000025C           	ddw	__ccov335_end_blk3	; block 3 END_ADDR
 10961  293C  00000252           	ddw	__ccov334_start_blk1	; block 1 START_ADDR
 10962  2940  00000254           	ddw	__ccov334_end_blk1	; block 1 END_ADDR
 10963  2944  0000024E           	ddw	_get_fun	; block 0 START_ADDR
 10964  2948  00000252           	ddw	__ccov333_end_blk0	; block 0 END_ADDR
 10965                           
 10966                           ; Function: get_fun, coverage: 31,0
 10967  294C  00000000           	ddw	0	; CC_ADDR_SPACE=Data
 10968  2950  00000021           	ddw	__ccovbit31_172/(0+8)	; CC_ADDR
 10969  2954  00000001           	ddw	1	; NUM_POINTS
 10970  2958  00000005           	ddw	__ccovbit31_172& (0+7)	; OFFSET
 10971  295C  00000000           	ddw	0	; Reserved
 10972  2960  FFFFFFFF           	ddw	4294967295	; RANGE_SPACE=restricted
 10973  2964  00000002           	ddw	2	; NUM_RANGES
 10974  2968  00000293           	ddw	__ccov351_start_blk31	; block 31 START_ADDR
 10975  296C  00000296           	ddw	__end_of_get_fun	; block 31 END_ADDR
 10976  2970  0000024E           	ddw	_get_fun	; block 0 START_ADDR
 10977  2974  00000252           	ddw	__ccov333_end_blk0	; block 0 END_ADDR
 10978                           
 10979                           ; Function: get_jump, coverage: 5,4,3,1,0
 10980  2978  00000000           	ddw	0	; CC_ADDR_SPACE=Data
 10981  297C  00000021           	ddw	__ccovbit5_173/(0+8)	; CC_ADDR
 10982  2980  00000001           	ddw	1	; NUM_POINTS
 10983  2984  00000004           	ddw	__ccovbit5_173& (0+7)	; OFFSET
 10984  2988  00000000           	ddw	0	; Reserved
 10985  298C  FFFFFFFF           	ddw	4294967295	; RANGE_SPACE=restricted
 10986  2990  00000005           	ddw	5	; NUM_RANGES
 10987  2994  000003A3           	ddw	__ccov356_start_blk5	; block 5 START_ADDR
 10988  2998  000003A9           	ddw	__ccov356_end_blk5	; block 5 END_ADDR
 10989  299C  0000039E           	ddw	__ccov355_start_blk4	; block 4 START_ADDR
 10990  29A0  000003A3           	ddw	__ccov355_end_blk4	; block 4 END_ADDR
 10991  29A4  0000039C           	ddw	__ccov354_start_blk3	; block 3 START_ADDR
 10992  29A8  0000039E           	ddw	__ccov354_end_blk3	; block 3 END_ADDR
 10993  29AC  0000039A           	ddw	__ccov353_start_blk1	; block 1 START_ADDR
 10994  29B0  0000039C           	ddw	__ccov353_end_blk1	; block 1 END_ADDR
 10995  29B4  00000396           	ddw	_get_jump	; block 0 START_ADDR
 10996  29B8  0000039A           	ddw	__ccov352_end_blk0	; block 0 END_ADDR
 10997                           
 10998                           ; Function: get_jump, coverage: 7,4,3,1,0
 10999  29BC  00000000           	ddw	0	; CC_ADDR_SPACE=Data
 11000  29C0  00000021           	ddw	__ccovbit7_174/(0+8)	; CC_ADDR
 11001  29C4  00000001           	ddw	1	; NUM_POINTS
 11002  29C8  00000003           	ddw	__ccovbit7_174& (0+7)	; OFFSET
 11003  29CC  00000000           	ddw	0	; Reserved
 11004  29D0  FFFFFFFF           	ddw	4294967295	; RANGE_SPACE=restricted
 11005  29D4  00000005           	ddw	5	; NUM_RANGES
 11006  29D8  000003A9           	ddw	__ccov357_start_blk7	; block 7 START_ADDR
 11007  29DC  000003AE           	ddw	__ccov357_end_blk7	; block 7 END_ADDR
 11008  29E0  0000039E           	ddw	__ccov355_start_blk4	; block 4 START_ADDR
 11009  29E4  000003A3           	ddw	__ccov355_end_blk4	; block 4 END_ADDR
 11010  29E8  0000039C           	ddw	__ccov354_start_blk3	; block 3 START_ADDR
 11011  29EC  0000039E           	ddw	__ccov354_end_blk3	; block 3 END_ADDR
 11012  29F0  0000039A           	ddw	__ccov353_start_blk1	; block 1 START_ADDR
 11013  29F4  0000039C           	ddw	__ccov353_end_blk1	; block 1 END_ADDR
 11014  29F8  00000396           	ddw	_get_jump	; block 0 START_ADDR
 11015  29FC  0000039A           	ddw	__ccov352_end_blk0	; block 0 END_ADDR
 11016                           
 11017                           ; Function: get_jump, coverage: 12,11,10,9,4,3,1,0
 11018  2A00  00000000           	ddw	0	; CC_ADDR_SPACE=Data
 11019  2A04  00000021           	ddw	__ccovbit12_175/(0+8)	; CC_ADDR
 11020  2A08  00000001           	ddw	1	; NUM_POINTS
 11021  2A0C  00000002           	ddw	__ccovbit12_175& (0+7)	; OFFSET
 11022  2A10  00000000           	ddw	0	; Reserved
 11023  2A14  FFFFFFFF           	ddw	4294967295	; RANGE_SPACE=restricted
 11024  2A18  00000008           	ddw	8	; NUM_RANGES
 11025  2A1C  000003BA           	ddw	__ccov361_start_blk12	; block 12 START_ADDR
 11026  2A20  000003BD           	ddw	__ccov361_end_blk12	; block 12 END_ADDR
 11027  2A24  000003B9           	ddw	__ccov360_start_blk11	; block 11 START_ADDR
 11028  2A28  000003BA           	ddw	__ccov360_end_blk11	; block 11 END_ADDR
 11029  2A2C  000003B5           	ddw	__ccov359_start_blk10	; block 10 START_ADDR
 11030  2A30  000003B9           	ddw	__ccov359_end_blk10	; block 10 END_ADDR
 11031  2A34  000003AE           	ddw	__ccov358_start_blk9	; block 9 START_ADDR
 11032  2A38  000003B5           	ddw	__ccov358_end_blk9	; block 9 END_ADDR
 11033  2A3C  0000039E           	ddw	__ccov355_start_blk4	; block 4 START_ADDR
 11034  2A40  000003A3           	ddw	__ccov355_end_blk4	; block 4 END_ADDR
 11035  2A44  0000039C           	ddw	__ccov354_start_blk3	; block 3 START_ADDR
 11036  2A48  0000039E           	ddw	__ccov354_end_blk3	; block 3 END_ADDR
 11037  2A4C  0000039A           	ddw	__ccov353_start_blk1	; block 1 START_ADDR
 11038  2A50  0000039C           	ddw	__ccov353_end_blk1	; block 1 END_ADDR
 11039  2A54  00000396           	ddw	_get_jump	; block 0 START_ADDR
 11040  2A58  0000039A           	ddw	__ccov352_end_blk0	; block 0 END_ADDR
 11041                           
 11042                           ; Function: get_jump, coverage: 14,9,4,3,1,0
 11043  2A5C  00000000           	ddw	0	; CC_ADDR_SPACE=Data
 11044  2A60  00000021           	ddw	__ccovbit14_176/(0+8)	; CC_ADDR
 11045  2A64  00000001           	ddw	1	; NUM_POINTS
 11046  2A68  00000001           	ddw	__ccovbit14_176& (0+7)	; OFFSET
 11047  2A6C  00000000           	ddw	0	; Reserved
 11048  2A70  FFFFFFFF           	ddw	4294967295	; RANGE_SPACE=restricted
 11049  2A74  00000006           	ddw	6	; NUM_RANGES
 11050  2A78  000003BD           	ddw	__ccov362_start_blk14	; block 14 START_ADDR
 11051  2A7C  000003C5           	ddw	__ccov362_end_blk14	; block 14 END_ADDR
 11052  2A80  000003AE           	ddw	__ccov358_start_blk9	; block 9 START_ADDR
 11053  2A84  000003B5           	ddw	__ccov358_end_blk9	; block 9 END_ADDR
 11054  2A88  0000039E           	ddw	__ccov355_start_blk4	; block 4 START_ADDR
 11055  2A8C  000003A3           	ddw	__ccov355_end_blk4	; block 4 END_ADDR
 11056  2A90  0000039C           	ddw	__ccov354_start_blk3	; block 3 START_ADDR
 11057  2A94  0000039E           	ddw	__ccov354_end_blk3	; block 3 END_ADDR
 11058  2A98  0000039A           	ddw	__ccov353_start_blk1	; block 1 START_ADDR
 11059  2A9C  0000039C           	ddw	__ccov353_end_blk1	; block 1 END_ADDR
 11060  2AA0  00000396           	ddw	_get_jump	; block 0 START_ADDR
 11061  2AA4  0000039A           	ddw	__ccov352_end_blk0	; block 0 END_ADDR
 11062                           
 11063                           ; Function: get_jump, coverage: 17,16,15,14,9,4,3,1,0
 11064  2AA8  00000000           	ddw	0	; CC_ADDR_SPACE=Data
 11065  2AAC  00000021           	ddw	__ccovbit17_177/(0+8)	; CC_ADDR
 11066  2AB0  00000001           	ddw	1	; NUM_POINTS
 11067  2AB4  00000000           	ddw	__ccovbit17_177& (0+7)	; OFFSET
 11068  2AB8  00000000           	ddw	0	; Reserved
 11069  2ABC  FFFFFFFF           	ddw	4294967295	; RANGE_SPACE=restricted
 11070  2AC0  00000009           	ddw	9	; NUM_RANGES
 11071  2AC4  000003CA           	ddw	__ccov365_start_blk17	; block 17 START_ADDR
 11072  2AC8  000003CC           	ddw	__ccov365_end_blk17	; block 17 END_ADDR
 11073  2ACC  000003C9           	ddw	__ccov364_start_blk16	; block 16 START_ADDR
 11074  2AD0  000003CA           	ddw	__ccov364_end_blk16	; block 16 END_ADDR
 11075  2AD4  000003C5           	ddw	__ccov363_start_blk15	; block 15 START_ADDR
 11076  2AD8  000003C9           	ddw	__ccov363_end_blk15	; block 15 END_ADDR
 11077  2ADC  000003BD           	ddw	__ccov362_start_blk14	; block 14 START_ADDR
 11078  2AE0  000003C5           	ddw	__ccov362_end_blk14	; block 14 END_ADDR
 11079  2AE4  000003AE           	ddw	__ccov358_start_blk9	; block 9 START_ADDR
 11080  2AE8  000003B5           	ddw	__ccov358_end_blk9	; block 9 END_ADDR
 11081  2AEC  0000039E           	ddw	__ccov355_start_blk4	; block 4 START_ADDR
 11082  2AF0  000003A3           	ddw	__ccov355_end_blk4	; block 4 END_ADDR
 11083  2AF4  0000039C           	ddw	__ccov354_start_blk3	; block 3 START_ADDR
 11084  2AF8  0000039E           	ddw	__ccov354_end_blk3	; block 3 END_ADDR
 11085  2AFC  0000039A           	ddw	__ccov353_start_blk1	; block 1 START_ADDR
 11086  2B00  0000039C           	ddw	__ccov353_end_blk1	; block 1 END_ADDR
 11087  2B04  00000396           	ddw	_get_jump	; block 0 START_ADDR
 11088  2B08  0000039A           	ddw	__ccov352_end_blk0	; block 0 END_ADDR
 11089                           
 11090                           ; Function: get_jump, coverage: 20,9,4,3,1,0
 11091  2B0C  00000000           	ddw	0	; CC_ADDR_SPACE=Data
 11092  2B10  00000020           	ddw	__ccovbit20_178/(0+8)	; CC_ADDR
 11093  2B14  00000001           	ddw	1	; NUM_POINTS
 11094  2B18  00000007           	ddw	__ccovbit20_178& (0+7)	; OFFSET
 11095  2B1C  00000000           	ddw	0	; Reserved
 11096  2B20  FFFFFFFF           	ddw	4294967295	; RANGE_SPACE=restricted
 11097  2B24  00000006           	ddw	6	; NUM_RANGES
 11098  2B28  000003CC           	ddw	__ccov366_start_blk20	; block 20 START_ADDR
 11099  2B2C  000003CE           	ddw	__ccov366_end_blk20	; block 20 END_ADDR
 11100  2B30  000003AE           	ddw	__ccov358_start_blk9	; block 9 START_ADDR
 11101  2B34  000003B5           	ddw	__ccov358_end_blk9	; block 9 END_ADDR
 11102  2B38  0000039E           	ddw	__ccov355_start_blk4	; block 4 START_ADDR
 11103  2B3C  000003A3           	ddw	__ccov355_end_blk4	; block 4 END_ADDR
 11104  2B40  0000039C           	ddw	__ccov354_start_blk3	; block 3 START_ADDR
 11105  2B44  0000039E           	ddw	__ccov354_end_blk3	; block 3 END_ADDR
 11106  2B48  0000039A           	ddw	__ccov353_start_blk1	; block 1 START_ADDR
 11107  2B4C  0000039C           	ddw	__ccov353_end_blk1	; block 1 END_ADDR
 11108  2B50  00000396           	ddw	_get_jump	; block 0 START_ADDR
 11109  2B54  0000039A           	ddw	__ccov352_end_blk0	; block 0 END_ADDR
 11110                           
 11111                           ; Function: get_jump, coverage: 22,0
 11112  2B58  00000000           	ddw	0	; CC_ADDR_SPACE=Data
 11113  2B5C  00000020           	ddw	__ccovbit22_179/(0+8)	; CC_ADDR
 11114  2B60  00000001           	ddw	1	; NUM_POINTS
 11115  2B64  00000006           	ddw	__ccovbit22_179& (0+7)	; OFFSET
 11116  2B68  00000000           	ddw	0	; Reserved
 11117  2B6C  FFFFFFFF           	ddw	4294967295	; RANGE_SPACE=restricted
 11118  2B70  00000002           	ddw	2	; NUM_RANGES
 11119  2B74  000003CE           	ddw	__ccov367_start_blk22	; block 22 START_ADDR
 11120  2B78  000003D1           	ddw	__end_of_get_jump	; block 22 END_ADDR
 11121  2B7C  00000396           	ddw	_get_jump	; block 0 START_ADDR
 11122  2B80  0000039A           	ddw	__ccov352_end_blk0	; block 0 END_ADDR
 11123                           
 11124                           ; Function: start_setup, coverage: 31,30,29,28,27,26,25,24,23,22,21,18,15,12,9,6,4,3,2,1
      +                          ,0
 11125  2B84  00000000           	ddw	0	; CC_ADDR_SPACE=Data
 11126  2B88  00000020           	ddw	__ccovbit31_180/(0+8)	; CC_ADDR
 11127  2B8C  00000001           	ddw	1	; NUM_POINTS
 11128  2B90  00000005           	ddw	__ccovbit31_180& (0+7)	; OFFSET
 11129  2B94  00000000           	ddw	0	; Reserved
 11130  2B98  FFFFFFFF           	ddw	4294967295	; RANGE_SPACE=restricted
 11131  2B9C  00000015           	ddw	21	; NUM_RANGES
 11132  2BA0  00000359           	ddw	__ccov388_start_blk31	; block 31 START_ADDR
 11133  2BA4  0000035B           	ddw	__end_of_start_setup	; block 31 END_ADDR
 11134  2BA8  00000358           	ddw	__ccov387_start_blk30	; block 30 START_ADDR
 11135  2BAC  00000359           	ddw	__ccov387_end_blk30	; block 30 END_ADDR
 11136  2BB0  00000356           	ddw	__ccov386_start_blk29	; block 29 START_ADDR
 11137  2BB4  00000358           	ddw	__ccov386_end_blk29	; block 29 END_ADDR
 11138  2BB8  00000354           	ddw	__ccov385_start_blk28	; block 28 START_ADDR
 11139  2BBC  00000356           	ddw	__ccov385_end_blk28	; block 28 END_ADDR
 11140  2BC0  00000353           	ddw	__ccov384_start_blk27	; block 27 START_ADDR
 11141  2BC4  00000354           	ddw	__ccov384_end_blk27	; block 27 END_ADDR
 11142  2BC8  00000351           	ddw	__ccov383_start_blk26	; block 26 START_ADDR
 11143  2BCC  00000353           	ddw	__ccov383_end_blk26	; block 26 END_ADDR
 11144  2BD0  0000034F           	ddw	__ccov382_start_blk25	; block 25 START_ADDR
 11145  2BD4  00000351           	ddw	__ccov382_end_blk25	; block 25 END_ADDR
 11146  2BD8  0000034D           	ddw	__ccov381_start_blk24	; block 24 START_ADDR
 11147  2BDC  0000034F           	ddw	__ccov381_end_blk24	; block 24 END_ADDR
 11148  2BE0  0000034B           	ddw	__ccov380_start_blk23	; block 23 START_ADDR
 11149  2BE4  0000034D           	ddw	__ccov380_end_blk23	; block 23 END_ADDR
 11150  2BE8  00000344           	ddw	__ccov379_start_blk22	; block 22 START_ADDR
 11151  2BEC  0000034B           	ddw	__ccov379_end_blk22	; block 22 END_ADDR
 11152  2BF0  00000343           	ddw	__ccov378_start_blk21	; block 21 START_ADDR
 11153  2BF4  00000344           	ddw	__ccov378_end_blk21	; block 21 END_ADDR
 11154  2BF8  00000342           	ddw	__ccov377_start_blk18	; block 18 START_ADDR
 11155  2BFC  00000343           	ddw	__ccov377_end_blk18	; block 18 END_ADDR
 11156  2C00  00000341           	ddw	__ccov376_start_blk15	; block 15 START_ADDR
 11157  2C04  00000342           	ddw	__ccov376_end_blk15	; block 15 END_ADDR
 11158  2C08  00000340           	ddw	__ccov375_start_blk12	; block 12 START_ADDR
 11159  2C0C  00000341           	ddw	__ccov375_end_blk12	; block 12 END_ADDR
 11160  2C10  0000033F           	ddw	__ccov374_start_blk9	; block 9 START_ADDR
 11161  2C14  00000340           	ddw	__ccov374_end_blk9	; block 9 END_ADDR
 11162  2C18  0000033D           	ddw	__ccov373_start_blk6	; block 6 START_ADDR
 11163  2C1C  0000033F           	ddw	__ccov373_end_blk6	; block 6 END_ADDR
 11164  2C20  00000334           	ddw	__ccov372_start_blk4	; block 4 START_ADDR
 11165  2C24  0000033D           	ddw	__ccov372_end_blk4	; block 4 END_ADDR
 11166  2C28  00000331           	ddw	__ccov371_start_blk3	; block 3 START_ADDR
 11167  2C2C  00000334           	ddw	__ccov371_end_blk3	; block 3 END_ADDR
 11168  2C30  0000031F           	ddw	__ccov370_start_blk2	; block 2 START_ADDR
 11169  2C34  00000331           	ddw	__ccov370_end_blk2	; block 2 END_ADDR
 11170  2C38  0000031E           	ddw	__ccov369_start_blk1	; block 1 START_ADDR
 11171  2C3C  0000031F           	ddw	__ccov369_end_blk1	; block 1 END_ADDR
 11172  2C40  0000031B           	ddw	_start_setup	; block 0 START_ADDR
 11173  2C44  0000031E           	ddw	__ccov368_end_blk0	; block 0 END_ADDR
 11174                           
 11175                           ; Function: main, coverage: 4,3,2,1,0
 11176  2C48  00000000           	ddw	0	; CC_ADDR_SPACE=Data
 11177  2C4C  00000020           	ddw	__ccovbit4_181/(0+8)	; CC_ADDR
 11178  2C50  00000001           	ddw	1	; NUM_POINTS
 11179  2C54  00000004           	ddw	__ccovbit4_181& (0+7)	; OFFSET
 11180  2C58  00000000           	ddw	0	; Reserved
 11181  2C5C  FFFFFFFF           	ddw	4294967295	; RANGE_SPACE=restricted
 11182  2C60  00000005           	ddw	5	; NUM_RANGES
 11183  2C64  0000045C           	ddw	__ccov393_start_blk4	; block 4 START_ADDR
 11184  2C68  00000471           	ddw	__ccov393_end_blk4	; block 4 END_ADDR
 11185  2C6C  00000458           	ddw	__ccov392_start_blk3	; block 3 START_ADDR
 11186  2C70  0000045C           	ddw	__ccov392_end_blk3	; block 3 END_ADDR
 11187  2C74  00000455           	ddw	__ccov391_start_blk2	; block 2 START_ADDR
 11188  2C78  00000458           	ddw	__ccov391_end_blk2	; block 2 END_ADDR
 11189  2C7C  00000454           	ddw	__ccov390_start_blk1	; block 1 START_ADDR
 11190  2C80  00000455           	ddw	__ccov390_end_blk1	; block 1 END_ADDR
 11191  2C84  00000451           	ddw	_main	; block 0 START_ADDR
 11192  2C88  00000454           	ddw	__ccov389_end_blk0	; block 0 END_ADDR
 11193                           
 11194                           ; Function: main, coverage: 6,3,2,1,0
 11195  2C8C  00000000           	ddw	0	; CC_ADDR_SPACE=Data
 11196  2C90  00000020           	ddw	__ccovbit6_182/(0+8)	; CC_ADDR
 11197  2C94  00000001           	ddw	1	; NUM_POINTS
 11198  2C98  00000003           	ddw	__ccovbit6_182& (0+7)	; OFFSET
 11199  2C9C  00000000           	ddw	0	; Reserved
 11200  2CA0  FFFFFFFF           	ddw	4294967295	; RANGE_SPACE=restricted
 11201  2CA4  00000005           	ddw	5	; NUM_RANGES
 11202  2CA8  00000471           	ddw	__ccov394_start_blk6	; block 6 START_ADDR
 11203  2CAC  00000477           	ddw	__ccov394_end_blk6	; block 6 END_ADDR
 11204  2CB0  00000458           	ddw	__ccov392_start_blk3	; block 3 START_ADDR
 11205  2CB4  0000045C           	ddw	__ccov392_end_blk3	; block 3 END_ADDR
 11206  2CB8  00000455           	ddw	__ccov391_start_blk2	; block 2 START_ADDR
 11207  2CBC  00000458           	ddw	__ccov391_end_blk2	; block 2 END_ADDR
 11208  2CC0  00000454           	ddw	__ccov390_start_blk1	; block 1 START_ADDR
 11209  2CC4  00000455           	ddw	__ccov390_end_blk1	; block 1 END_ADDR
 11210  2CC8  00000451           	ddw	_main	; block 0 START_ADDR
 11211  2CCC  00000454           	ddw	__ccov389_end_blk0	; block 0 END_ADDR
 11212                           
 11213                           ; Function: EEPROM_WriteByte, coverage: 9,8,7,6,5,4,3,2,0
 11214  2CD0  00000000           	ddw	0	; CC_ADDR_SPACE=Data
 11215  2CD4  00000020           	ddw	__ccovbit9_183/(0+8)	; CC_ADDR
 11216  2CD8  00000001           	ddw	1	; NUM_POINTS
 11217  2CDC  00000002           	ddw	__ccovbit9_183& (0+7)	; OFFSET
 11218  2CE0  00000000           	ddw	0	; Reserved
 11219  2CE4  FFFFFFFF           	ddw	4294967295	; RANGE_SPACE=restricted
 11220  2CE8  00000008           	ddw	8	; NUM_RANGES
 11221  2CEC  0000049B           	ddw	__ccov403_start_blk9	; block 9 START_ADDR
 11222  2CF0  0000049E           	ddw	__end_of_EEPROM_WriteByte	; block 9 END_ADDR
 11223  2CF4  00000499           	ddw	__ccov402_start_blk8	; block 8 START_ADDR
 11224  2CF8  0000049B           	ddw	__ccov402_end_blk8	; block 8 END_ADDR
 11225  2CFC  00000493           	ddw	__ccov401_start_blk7	; block 7 START_ADDR
 11226  2D00  00000499           	ddw	__ccov401_end_blk7	; block 7 END_ADDR
 11227  2D04  00000492           	ddw	__ccov400_start_blk6	; block 6 START_ADDR
 11228  2D08  00000493           	ddw	__ccov400_end_blk6	; block 6 END_ADDR
 11229  2D0C  0000048D           	ddw	__ccov399_start_blk5	; block 5 START_ADDR
 11230  2D10  00000492           	ddw	__ccov399_end_blk5	; block 5 END_ADDR
 11231  2D14  00000483           	ddw	__ccov398_start_blk4	; block 4 START_ADDR
 11232  2D18  0000048D           	ddw	__ccov398_end_blk4	; block 4 END_ADDR
 11233  2D1C  0000047E           	ddw	__ccov397_start_blk3	; block 3 START_ADDR
 11234  2D20  00000483           	ddw	__ccov397_end_blk3	; block 3 END_ADDR
 11235  2D24  00000478           	ddw	_EEPROM_WriteByte	; block 2 START_ADDR
 11236  2D28  0000047E           	ddw	__ccov396_end_blk2	; block 2 END_ADDR
 11237                           
 11238                           ; Function: EEPROM_ReadByte, coverage: 3,2,0
 11239  2D2C  00000000           	ddw	0	; CC_ADDR_SPACE=Data
 11240  2D30  00000020           	ddw	__ccovbit3_184/(0+8)	; CC_ADDR
 11241  2D34  00000001           	ddw	1	; NUM_POINTS
 11242  2D38  00000001           	ddw	__ccovbit3_184& (0+7)	; OFFSET
 11243  2D3C  00000000           	ddw	0	; Reserved
 11244  2D40  FFFFFFFF           	ddw	4294967295	; RANGE_SPACE=restricted
 11245  2D44  00000002           	ddw	2	; NUM_RANGES
 11246  2D48  0000051D           	ddw	__ccov406_start_blk3	; block 3 START_ADDR
 11247  2D4C  00000524           	ddw	__ccov406_end_blk3	; block 3 END_ADDR
 11248  2D50  00000517           	ddw	_EEPROM_ReadByte	; block 2 START_ADDR
 11249  2D54  0000051D           	ddw	__ccov405_end_blk2	; block 2 END_ADDR
 11250                           
 11251                           ; Function: EEPROM_ReadByte, coverage: 8,6,5,3,2,0
 11252  2D58  00000000           	ddw	0	; CC_ADDR_SPACE=Data
 11253  2D5C  00000020           	ddw	__ccovbit8_185/(0+8)	; CC_ADDR
 11254  2D60  00000001           	ddw	1	; NUM_POINTS
 11255  2D64  00000000           	ddw	__ccovbit8_185& (0+7)	; OFFSET
 11256  2D68  00000000           	ddw	0	; Reserved
 11257  2D6C  FFFFFFFF           	ddw	4294967295	; RANGE_SPACE=restricted
 11258  2D70  00000005           	ddw	5	; NUM_RANGES
 11259  2D74  0000052D           	ddw	__ccov409_start_blk8	; block 8 START_ADDR
 11260  2D78  00000530           	ddw	__end_of_EEPROM_ReadByte	; block 8 END_ADDR
 11261  2D7C  0000052B           	ddw	__ccov408_start_blk6	; block 6 START_ADDR
 11262  2D80  0000052D           	ddw	__ccov408_end_blk6	; block 6 END_ADDR
 11263  2D84  00000524           	ddw	__ccov407_start_blk5	; block 5 START_ADDR
 11264  2D88  0000052B           	ddw	__ccov407_end_blk5	; block 5 END_ADDR
 11265  2D8C  0000051D           	ddw	__ccov406_start_blk3	; block 3 START_ADDR
 11266  2D90  00000524           	ddw	__ccov406_end_blk3	; block 3 END_ADDR
 11267  2D94  00000517           	ddw	_EEPROM_ReadByte	; block 2 START_ADDR
 11268  2D98  0000051D           	ddw	__ccov405_end_blk2	; block 2 END_ADDR
 11269  007E                     btemp	set	126	;btemp
 11270  007E                     int$flags	set	126
 11271  007E                     wtemp0	set	126
 11272                           
 11273                           	psect	idloc
 11274                           
 11275                           ;Config register IDLOC0 @ 0x8000
 11276                           ;	unspecified, using default values
 11277  8000                     	org	32768
 11278  8000  3FFF               	dw	16383
 11279                           
 11280                           ;Config register IDLOC1 @ 0x8001
 11281                           ;	unspecified, using default values
 11282  8001                     	org	32769
 11283  8001  3FFF               	dw	16383
 11284                           
 11285                           ;Config register IDLOC2 @ 0x8002
 11286                           ;	unspecified, using default values
 11287  8002                     	org	32770
 11288  8002  3FFF               	dw	16383
 11289                           
 11290                           ;Config register IDLOC3 @ 0x8003
 11291                           ;	unspecified, using default values
 11292  8003                     	org	32771
 11293  8003  3FFF               	dw	16383
 11294                           
 11295                           	psect	config
 11296                           
 11297                           ;Config register CONFIG1 @ 0x8007
 11298                           ;	Oscillator Selection
 11299                           ;	FOSC = INTOSC, INTOSC oscillator: I/O function on CLKIN pin
 11300                           ;	Watchdog Timer Enable
 11301                           ;	WDTE = ON, WDT enabled
 11302                           ;	Power-up Timer Enable
 11303                           ;	PWRTE = ON, PWRT enabled
 11304                           ;	MCLR Pin Function Select
 11305                           ;	MCLRE = ON, MCLR/VPP pin function is MCLR
 11306                           ;	Flash Program Memory Code Protection
 11307                           ;	CP = OFF, Program memory code protection is disabled
 11308                           ;	Data Memory Code Protection
 11309                           ;	CPD = OFF, Data memory code protection is disabled
 11310                           ;	Brown-out Reset Enable
 11311                           ;	BOREN = ON, Brown-out Reset enabled
 11312                           ;	Clock Out Enable
 11313                           ;	CLKOUTEN = OFF, CLKOUT function is disabled. I/O or oscillator function on the CLKOUT 
      +                          pin
 11314                           ;	Internal/External Switchover
 11315                           ;	IESO = ON, Internal/External Switchover mode is enabled
 11316                           ;	Fail-Safe Clock Monitor Enable
 11317                           ;	FCMEN = ON, Fail-Safe Clock Monitor is enabled
 11318  8007                     	org	32775
 11319  8007  3FDC               	dw	16348
 11320                           
 11321                           ;Config register CONFIG2 @ 0x8008
 11322                           ;	Flash Memory Self-Write Protection
 11323                           ;	WRT = OFF, Write protection off
 11324                           ;	PLL Enable
 11325                           ;	PLLEN = OFF, 4x PLL disabled
 11326                           ;	Stack Overflow/Underflow Reset Enable
 11327                           ;	STVREN = ON, Stack Overflow or Underflow will cause a Reset
 11328                           ;	Brown-out Reset Voltage Selection
 11329                           ;	BORV = LO, Brown-out Reset Voltage (Vbor), low trip point selected.
 11330                           ;	Low-Voltage Programming Enable
 11331                           ;	LVP = OFF, High-voltage on MCLR/VPP must be used for programming
 11332  8008                     	org	32776
 11333  8008  1EFF               	dw	7935

Data Sizes:
    Strings     0
    Constant    26
    Data        0
    BSS         36
    Persistent  37
    Stack       0

Auto Spaces:
    Space          Size  Autos    Used
    COMMON           14      6      14
    BANK0            80      2      59
    BANK1            16      0       0

Pointer List with Targets:

    ADC_InterruptHandler	PTR FTN()void  size(2) Largest target is 1
		 -> Absolute function(), 

    TMR0_SetInterruptHandler@InterruptHandler	PTR FTN()void  size(2) Largest target is 1
		 -> zummer_switch(), TMR0_DefaultInterruptHandler(), 

    TMR0_InterruptHandler	PTR FTN()void  size(2) Largest target is 1
		 -> zummer_switch(), TMR0_DefaultInterruptHandler(), Absolute function(), 

    TMR2_SetInterruptHandler@InterruptHandler	PTR FTN()void  size(2) Largest target is 1
		 -> ms_tick(), TMR2_DefaultInterruptHandler(), 

    TMR2_InterruptHandler	PTR FTN()void  size(2) Largest target is 1
		 -> ms_tick(), Absolute function(), TMR2_DefaultInterruptHandler(), 


Critical Paths under _main in COMMON

    _main->_get_wsp
    _eeprom_set->_EEPROM_WriteByte
    _SYSTEM_Initialize->_TMR0_Initialize
    _TMR2_Initialize->_TMR2_SetInterruptHandler
    _TMR0_Initialize->_TMR0_SetInterruptHandler
    _get_wsp->_ADC_GetConversion

Critical Paths under _INTERRUPT_InterruptManager in COMMON

    _ms_tick->_sec_work
    _sec_work->_minute_tick
    _sec_work->_sec_30_work

Critical Paths under _main in BANK0

    _main->_get_wsp
    _start_setup->_eeprom_set

Critical Paths under _INTERRUPT_InterruptManager in BANK0

    None.

Critical Paths under _main in BANK1

    None.

Critical Paths under _INTERRUPT_InterruptManager in BANK1

    None.

Call Graph Tables:

 ---------------------------------------------------------------------------------
 (Depth) Function   	        Calls       Base Space   Used Autos Params    Refs
 ---------------------------------------------------------------------------------
 (0) _main                                                 0     0      0    1549
                  _autorotation_work
                              _close
                           _fun_work
                            _get_fun
                           _get_jump
                            _get_wsp
                      _hardware_work
                        _start_setup
                          _switch_wm
 ---------------------------------------------------------------------------------
 (1) _switch_wm                                            1     1      0       0
                                              2 COMMON     1     1      0
                           _rele_off
 ---------------------------------------------------------------------------------
 (1) _start_setup                                          0     0      0    1453
                  _SYSTEM_Initialize
           _TMR0_SetInterruptHandler
           _TMR2_SetInterruptHandler
                    _TMR2_StartTimer
                         _eeprom_set
 ---------------------------------------------------------------------------------
 (2) _eeprom_set                                           2     2      0     757
                                              0 BANK0      2     2      0
                    _EEPROM_ReadByte
                   _EEPROM_WriteByte
 ---------------------------------------------------------------------------------
 (3) _EEPROM_WriteByte                                     4     3      1     692
                                              2 COMMON     4     3      1
 ---------------------------------------------------------------------------------
 (3) _EEPROM_ReadByte                                      3     3      0      31
                                              2 COMMON     3     3      0
 ---------------------------------------------------------------------------------
 (2) _TMR2_StartTimer                                      0     0      0       0
 ---------------------------------------------------------------------------------
 (2) _SYSTEM_Initialize                                    0     0      0     348
                     _ADC_Initialize
              _OSCILLATOR_Initialize
             _PIN_MANAGER_Initialize
                    _TMR0_Initialize
                    _TMR2_Initialize
                     _WDT_Initialize
 ---------------------------------------------------------------------------------
 (3) _WDT_Initialize                                       0     0      0       0
 ---------------------------------------------------------------------------------
 (3) _TMR2_Initialize                                      0     0      0     174
           _TMR2_SetInterruptHandler
 ---------------------------------------------------------------------------------
 (2) _TMR2_SetInterruptHandler                             2     0      2     174
                                              2 COMMON     2     0      2
 ---------------------------------------------------------------------------------
 (3) _TMR0_Initialize                                      1     1      0     174
                                              4 COMMON     1     1      0
           _TMR0_SetInterruptHandler
 ---------------------------------------------------------------------------------
 (2) _TMR0_SetInterruptHandler                             2     0      2     174
                                              2 COMMON     2     0      2
 ---------------------------------------------------------------------------------
 (3) _PIN_MANAGER_Initialize                               0     0      0       0
 ---------------------------------------------------------------------------------
 (3) _OSCILLATOR_Initialize                                0     0      0       0
 ---------------------------------------------------------------------------------
 (3) _ADC_Initialize                                       0     0      0       0
 ---------------------------------------------------------------------------------
 (1) _hardware_work                                        0     0      0       0
 ---------------------------------------------------------------------------------
 (1) _get_wsp                                              4     4      0      96
                                              4 COMMON     2     2      0
                                              0 BANK0      2     2      0
                  _ADC_GetConversion
                        _clear_alarm
                        _start_alarm
 ---------------------------------------------------------------------------------
 (2) _start_alarm                                          0     0      0       0
 ---------------------------------------------------------------------------------
 (2) _clear_alarm                                          0     0      0       0
 ---------------------------------------------------------------------------------
 (2) _ADC_GetConversion                                    2     2      0      31
                                              2 COMMON     2     2      0
 ---------------------------------------------------------------------------------
 (1) _get_jump                                             1     1      0       0
                                              2 COMMON     1     1      0
 ---------------------------------------------------------------------------------
 (1) _get_fun                                              1     1      0       0
                                              2 COMMON     1     1      0
 ---------------------------------------------------------------------------------
 (1) _fun_work                                             1     1      0       0
                                              2 COMMON     1     1      0
                              _close
                               _open
 ---------------------------------------------------------------------------------
 (2) _open                                                 0     0      0       0
                            _go_open
                        _go_open_alt
                           _rele_off
 ---------------------------------------------------------------------------------
 (3) _go_open_alt                                          0     0      0       0
 ---------------------------------------------------------------------------------
 (2) _close                                                0     0      0       0
                           _go_close
                       _go_close_alt
                           _rele_off
 ---------------------------------------------------------------------------------
 (2) _rele_off                                             0     0      0       0
 ---------------------------------------------------------------------------------
 (3) _go_close_alt                                         0     0      0       0
 ---------------------------------------------------------------------------------
 (3) _go_close                                             0     0      0       0
 ---------------------------------------------------------------------------------
 (1) _autorotation_work                                    1     1      0       0
                                              2 COMMON     1     1      0
                     _go_close_short
                            _go_open
 ---------------------------------------------------------------------------------
 (3) _go_open                                              0     0      0       0
 ---------------------------------------------------------------------------------
 (2) _go_close_short                                       0     0      0       0
 ---------------------------------------------------------------------------------
 Estimated maximum stack depth 3
 ---------------------------------------------------------------------------------
 (Depth) Function   	        Calls       Base Space   Used Autos Params    Refs
 ---------------------------------------------------------------------------------
 (5) _INTERRUPT_InterruptManager                           0     0      0       0
                           _TMR0_ISR
                           _TMR2_ISR
 ---------------------------------------------------------------------------------
 (6) _TMR2_ISR                                             0     0      0       0
                   Absolute function *
       _TMR2_DefaultInterruptHandler *
                            _ms_tick *
 ---------------------------------------------------------------------------------
 (7) _ms_tick                                              0     0      0       0
                        _ms_100_work
                        _ms_200_work
                           _sec_work
                          _stop_tone
 ---------------------------------------------------------------------------------
 (8) _stop_tone                                            0     0      0       0
 ---------------------------------------------------------------------------------
 (8) _sec_work                                             1     1      0       0
                                              1 COMMON     1     1      0
                        _minute_tick
                          _rele_tick
                        _sec_30_work
 ---------------------------------------------------------------------------------
 (9) _sec_30_work                                          1     1      0       0
                                              0 COMMON     1     1      0
 ---------------------------------------------------------------------------------
 (9) _rele_tick                                            0     0      0       0
 ---------------------------------------------------------------------------------
 (9) _minute_tick                                          1     1      0       0
                                              0 COMMON     1     1      0
 ---------------------------------------------------------------------------------
 (8) _ms_200_work                                          0     0      0       0
                        _beep_double
                          _beep_long
                         _beep_short
 ---------------------------------------------------------------------------------
 (9) _beep_double                                          0     0      0       0
                          _beep_long
                         _beep_short
 ---------------------------------------------------------------------------------
 (9) _beep_short                                           0     0      0       0
                         _start_tone
 ---------------------------------------------------------------------------------
 (9) _beep_long                                            0     0      0       0
                         _start_tone
 ---------------------------------------------------------------------------------
 (10) _start_tone                                          0     0      0       0
 ---------------------------------------------------------------------------------
 (8) _ms_100_work                                          0     0      0       0
 ---------------------------------------------------------------------------------
 (7) _TMR2_DefaultInterruptHandler                         0     0      0       0
 ---------------------------------------------------------------------------------
 (6) _TMR0_ISR                                             0     0      0       0
                   Absolute function *
       _TMR0_DefaultInterruptHandler *
                      _zummer_switch *
 ---------------------------------------------------------------------------------
 (7) _zummer_switch                                        0     0      0       0
 ---------------------------------------------------------------------------------
 (7) _TMR0_DefaultInterruptHandler                         0     0      0       0
 ---------------------------------------------------------------------------------
 (7) Absolute function(Fake)                               0     0      0       0
 ---------------------------------------------------------------------------------
 Estimated maximum stack depth 10
 ---------------------------------------------------------------------------------

 Call Graph Graphs:

 _main (ROOT)
   _autorotation_work
     _go_close_short
     _go_open
   _close
     _go_close
     _go_close_alt
     _rele_off
   _fun_work
     _close
     _open
       _go_open
       _go_open_alt
       _rele_off
   _get_fun
   _get_jump
   _get_wsp
     _ADC_GetConversion
     _clear_alarm
     _start_alarm
   _hardware_work
   _start_setup
     _SYSTEM_Initialize
       _ADC_Initialize
       _OSCILLATOR_Initialize
       _PIN_MANAGER_Initialize
       _TMR0_Initialize
         _TMR0_SetInterruptHandler
       _TMR2_Initialize
         _TMR2_SetInterruptHandler
       _WDT_Initialize
     _TMR0_SetInterruptHandler
     _TMR2_SetInterruptHandler
     _TMR2_StartTimer
     _eeprom_set
       _EEPROM_ReadByte
       _EEPROM_WriteByte
   _switch_wm
     _rele_off

 _INTERRUPT_InterruptManager (ROOT)
   _TMR0_ISR
     Absolute function(Fake) *
     _TMR0_DefaultInterruptHandler *
     _zummer_switch *
   _TMR2_ISR
     Absolute function(Fake) *
     _TMR2_DefaultInterruptHandler *
     _ms_tick *
       _ms_100_work
       _ms_200_work
         _beep_double
           _beep_long
             _start_tone
           _beep_short
             _start_tone
         _beep_long
         _beep_short
       _sec_work
         _minute_tick
         _rele_tick
         _sec_30_work
       _stop_tone

 Address spaces:
Name               Size   Autos  Total    Cost      Usage
BIGRAM              60      0       0       0        0.0%
EEDATA             100      0       0       0        0.0%
NULL                 0      0       0       0        0.0%
CODE                 0      0       0       0        0.0%
BITCOMMON            E      0       3       1       21.4%
BITSFR0              0      0       0       1        0.0%
SFR0                 0      0       0       1        0.0%
COMMON               E      6       E       2      100.0%
BITSFR1              0      0       0       2        0.0%
SFR1                 0      0       0       2        0.0%
BITSFR2              0      0       0       3        0.0%
SFR2                 0      0       0       3        0.0%
STACK                0      0       0       3        0.0%
BITSFR3              0      0       0       4        0.0%
SFR3                 0      0       0       4        0.0%
ABS                  0      0      49       4        0.0%
BITBANK0            50      0      15       5       26.2%
BITSFR4              0      0       0       5        0.0%
SFR4                 0      0       0       5        0.0%
BANK0               50      2      3B       6       73.8%
BITSFR5              0      0       0       6        0.0%
SFR5                 0      0       0       6        0.0%
BITBANK1            10      0       0       7        0.0%
BITSFR6              0      0       0       7        0.0%
SFR6                 0      0       0       7        0.0%
BANK1               10      0       0       8        0.0%
BITSFR7              0      0       0       8        0.0%
SFR7                 0      0       0       8        0.0%
BITSFR8              0      0       0       9        0.0%
SFR8                 0      0       0       9        0.0%
DATA                 0      0      49       9        0.0%
BITSFR9              0      0       0      10        0.0%
SFR9                 0      0       0      10        0.0%
BITSFR10             0      0       0      11        0.0%
SFR10                0      0       0      11        0.0%
BITSFR11             0      0       0      12        0.0%
SFR11                0      0       0      12        0.0%
BITSFR12             0      0       0      13        0.0%
SFR12                0      0       0      13        0.0%
BITSFR13             0      0       0      14        0.0%
SFR13                0      0       0      14        0.0%
BITSFR14             0      0       0      15        0.0%
SFR14                0      0       0      15        0.0%
BITSFR15             0      0       0      16        0.0%
SFR15                0      0       0      16        0.0%
BITSFR16             0      0       0      17        0.0%
SFR16                0      0       0      17        0.0%
BITSFR17             0      0       0      18        0.0%
SFR17                0      0       0      18        0.0%
BITSFR18             0      0       0      19        0.0%
SFR18                0      0       0      19        0.0%
BITSFR19             0      0       0      20        0.0%
SFR19                0      0       0      20        0.0%
BITSFR20             0      0       0      21        0.0%
SFR20                0      0       0      21        0.0%
BITSFR21             0      0       0      22        0.0%
SFR21                0      0       0      22        0.0%
BITSFR22             0      0       0      23        0.0%
SFR22                0      0       0      23        0.0%
BITSFR23             0      0       0      24        0.0%
SFR23                0      0       0      24        0.0%
BITSFR24             0      0       0      25        0.0%
SFR24                0      0       0      25        0.0%
BITSFR25             0      0       0      26        0.0%
SFR25                0      0       0      26        0.0%
BITSFR26             0      0       0      27        0.0%
SFR26                0      0       0      27        0.0%
BITSFR27             0      0       0      28        0.0%
SFR27                0      0       0      28        0.0%
BITSFR28             0      0       0      29        0.0%
SFR28                0      0       0      29        0.0%
BITSFR29             0      0       0      30        0.0%
SFR29                0      0       0      30        0.0%
BITSFR30             0      0       0      31        0.0%
SFR30                0      0       0      31        0.0%
BITSFR31             0      0       0      32        0.0%
SFR31                0      0       0      32        0.0%


Microchip Technology PIC Macro Assembler V2.36 build 20220127204148 
Symbol Table                                                                                   Wed Jun 15 14:27:43 2022

                       __ccov204_end_blk0 03D5                         __ccov116_end_blk1 0407  
                       __ccov140_end_blk1 061B                         __ccov124_end_blk3 043B  
                       __ccov108_end_blk5 055B                         __ccov132_end_blk5 04FA  
                       __ccov220_end_blk5 00F2                         __ccov212_end_blk9 03F7  
                      __ccov300_end_blk20 031B                       __ccov111_start_blk0 0623  
                     __ccov103_start_blk8 0514                        __pcodecov_info_hdr 0000  
        __end_of_TMR2_SetInterruptHandler 06A5                        get_fun@fun_counter 004B  
                       __ccov301_end_blk0 0582                         __ccov205_end_blk1 03DB  
                       __ccov117_end_blk2 040C                         __ccov141_end_blk2 0620  
                       __ccov125_end_blk4 044E                         __ccov109_end_blk6 055F  
                       __ccov221_end_blk6 00F5                         __ccov133_end_blk8 04FD  
                                      l23 05FC                                        l26 0694  
                                      l61 0542                                        l29 06C1  
                                      l46 068C                                        l64 0547  
                                      l90 05D3                                        _RD 0CA8  
                                      _WR 0CA9                             ?_go_close_alt 0073  
                                      _ff 0079                 __end_of_autorotation_work 013A  
                         _timer0ReloadVal 0058                         __ccov134_end_blk0 05AC  
                       __ccov302_end_blk1 0587                         __ccov150_end_blk2 04CD  
                       __ccov206_end_blk2 03DD                         __ccov118_end_blk3 0411  
                       __ccov142_end_blk4 0623                         __ccov126_end_blk6 0451  
                       __ccov222_end_blk7 00F7                         __ccov310_end_blk7 0396  
                      __ccov213_end_blk10 03FB                       __ccov389_start_blk0 0451  
                     __ccov397_start_blk3 047E                                       l135 060F  
                                     l401 0138                                       l321 0424  
                                     l138 06CA                                       l325 044E  
                                     l341 0620                                       l157 06A3  
                                     l334 05B8                                       l502 0252  
                                     l351 04D3                                       l336 05B2  
                                     l344 05E2                                       l329 04FA  
                                     l337 05BD                                       l345 05E5  
                                     l521 039A                                       l193 06AA  
                                     l177 05A6                                       l346 05E8  
                                     l354 04DD                                       l362 04BC  
                                     l530 03CE                                       l515 0293  
                                     l523 039C                                       l524 039E  
                                     l349 04C9                                       l357 04A8  
                                     l382 06C5                                       l470 038F  
                                     l390 03E7                                       l550 0454  
                                     l359 04B2                                       l472 0393  
                                     l544 0344                                       l465 058E  
                                     l545 0359                                       l387 024B  
                                     l379 069C                                       l483 013E  
                                     l395 03FB                                       l468 038A  
                                     l580 0518                                       l485 0140  
                                     l574 0479                                       l583 052D  
                                     l496 019A                                       l576 047E  
                                     l577 049B                                       _GIE 005F  
                                     u250 05AC                               _start_alarm 0696  
                                     u251 05AB                                       u260 05B2  
                                     u261 05B1                                       u270 05B8  
                                     _PR2 001B                                       u271 05B7  
                                     u280 0615                                       u281 0614  
                                     u290 061B                                       u291 061A  
                    __ccov254_start_blk10 0070                      __ccov262_start_blk21 00A5  
                    __ccov326_start_blk21 017F                      __ccov174_start_blk15 01DC  
                    __ccov342_start_blk18 0272                      __ccov350_start_blk29 0291  
                       __ccov127_end_blk0 04E4                         __ccov215_end_blk0 00D9  
                       __ccov143_end_blk0 05DE                         __ccov135_end_blk1 05B2  
                       __ccov303_end_blk2 058E                         __ccov151_end_blk3 04D3  
                       __ccov207_end_blk3 03E0                         __ccov119_end_blk4 0424  
                       __ccov223_end_blk8 00FA                               _start_setup 031B  
                            ?_go_open_alt 0073                           _TMR2_Initialize 05FE  
                      __ccov22_start_blk0 0530                                       wreg 0009  
                       __ccov312_end_blk1 0682                         __ccov128_end_blk1 04EA  
                       __ccov216_end_blk1 00DE                         __ccov144_end_blk1 05E2  
                       __ccov136_end_blk2 05B8                         __ccov152_end_blk4 04D9  
                       __ccov304_end_blk4 0591                         __ccov208_end_blk4 03E7  
                       __ccov240_end_blk5 0578                         __ccov160_end_blk5 04BC  
                       __ccov400_end_blk6 0493                         __ccov224_end_blk9 0102  
                      __ccov214_end_blk14 03FD                        __ccov230_end_blk16 012A  
                            ?_sec_30_work 0073                       __ccov104_start_blk0 0549  
                     __ccov112_start_blk1 0627                       __ccov120_start_blk6 0424  
                                    l2011 05CA                                      l2003 05BF  
                                    l2013 05CF                                      l2005 05C2  
                                    l2021 06BE                                      l2015 068E  
                                    l2007 05C5                                      l2031 0605  
                                    l2023 05FE                                      l2201 04CD  
                                    l2017 0691                                      l2009 05C7  
                                    l2041 0591                                      l2033 060C  
                                    l2025 0601                                      l2203 04D9  
                                    l2211 04B8                                      l2035 0685  
                                    l2019 0692                                      l2051 059F  
                                    l2043 0596                                      l2027 0602  
                                    l2061 040C                                      l2205 049E  
                                    l2301 0243                                      l2037 0688  
                                    l2045 0599                                      l2029 0603  
                                    l2071 04EF                                      l2063 0411  
                                    l2055 03FD                                      l2207 04A2  
                                    l2303 0247                                      l2039 0689  
                                    l2047 059D                                      l2311 03DD  
                                    l2073 04F4                                      l2065 04E0  
                                    l2057 0401                                      l2081 05DE  
                                    l2209 04AC                                      l2401 025E  
                                    l2049 059E                                      l2321 03F7  
                                    l2313 03E0                                      l2305 03D1  
                                    l2075 04F8                                      l2067 04E4  
                                    l2331 00E8                                      l2323 00CA  
                                    l2059 0407                                      l2411 0272  
                                    l2403 0260                                      l2171 05EA  
                                    l2315 03ED                                      l2307 03D5  
                                    l2069 04EA                                      l2341 00FA  
                                    l2333 00ED                                      l2325 00D9  
                                    l1381 05A8                                      l2421 028A  
                                    l2413 027A                                      l2405 0265  
                                    l2317 03F2                                      l2309 03DB  
                                    l2191 0431                                      l2351 0120  
                                    l2335 00F2                                      l2327 00DE  
                                    l2343 0102                                      l1383 05AC  
                                    l2079 05D5                                      l2271 01FC  
                                    l2423 028E                                      l2415 027E  
                                    l2407 026B                                      l2431 03A3  
                                    l2319 03F4                                      l2193 0436  
                                    l2361 0132                                      l2353 0125  
                                    l2345 0111                                      l2337 00F5  
                                    l2329 00E3                                      l1385 0611  
                                    l2281 0215                                      l2273 0200  
                                    l2425 028F                                      l2417 027F  
                                    l2409 0270                                      l2441 03BA  
                                    l2433 03A9                                      l2185 06C8  
                                    l2195 043B                                      l2187 0427  
                                    l2355 012A                                      l2347 0116  
                                    l2339 00F7                                      l1387 0615  
                                    l2291 0229                                      l2283 021A  
                                    l2275 0206                                      l2427 0291  
                                    l2419 0282                                      l2451 03CC  
                                    l2443 03BD                                      l2435 03AE  
                                    l2603 0696                                      l2611 0582  
                                    l2189 042B                                      l2357 012B  
                                    l2349 011B                                      l2197 04BF  
                                    l1389 061B                                      l2293 022F  
                                    l2285 021F                                      l2277 020B  
                                    l2445 03C5                                      l2437 03B5  
                                    l2429 0396                                      l2605 069A  
                                    l2621 0155                                      l2613 0587  
                                    l2701 0455                                      l2359 012E  
                                    l2199 04C3                                      l2295 0234  
                                    l2287 0221                                      l2279 0210  
                                    l2447 03C9                                      l2439 03B9  
                                    l2607 06C3                                      l2631 0173  
                                    l2623 0157                                      l2615 013A  
                                    l2703 0458                                      l2297 0239  
                                    l2289 0225                                      l2449 03CA  
                                    l2641 018F                                      l2633 0178  
                                    l2625 0159                                      l2617 0142  
                                    l2609 057A                                      l2705 045C  
                                    l2299 023E                                      l2395 024E  
                                    l2643 0192                                      l2635 017F  
                                    l2627 0163                                      l2619 014A  
                                    l1675 035B                                      l2571 051D  
                                    l2651 031F                                      l2707 0471  
                                    l2397 0254                                      l2645 0198  
                                    l2637 0182                                      l2629 0169  
                                    l1677 0387                                      l2573 0524  
                                    l2581 0483                                      l2661 0340  
                                    l2653 0331                                      l2399 025C  
                                    l2591 0531                                      l2639 0188  
                                    l1679 038E                                      l2575 052B  
                                    l2583 048D                                      l2671 034D  
                                    l2663 0341                                      l2655 0334  
                                    l2647 031B                                      l2593 053B  
                                    l1945 069E                                      l2569 0518  
                                    l2585 0492                                      l2681 0356  
                                    l2673 034F                                      l2665 0342  
                                    l2657 033D                                      l2649 031E  
                                    l2595 053C                                      l1947 06A5  
                                    l2587 0493                                      l2579 0479  
                                    l2683 0358                                      l2675 0351  
                                    l2667 0343                                      l2659 033F  
                                    l2597 0540                                      l2589 0499  
                                    l2677 0353                                      l2669 034B  
                                    l2599 0546                                      l2679 0354  
                                    l2699 0451                         __ccov305_end_blk0 0387  
                       __ccov129_end_blk2 04EF                         __ccov217_end_blk2 00E3  
                       __ccov145_end_blk2 05E5                         __ccov313_end_blk3 0685  
                       __ccov137_end_blk3 05BD                         __ccov153_end_blk5 04DD  
                       __ccov209_end_blk6 03ED                         __ccov401_end_blk7 0499  
                       __ccov241_end_blk8 057A                         __ccov161_end_blk9 04BF  
                                    u1110 0379                                      u1111 0376  
                                    u2000 04A2                                      u1104 0373  
                                    u2001 04A1                                      u2010 04AC  
                                    u1130 0381                                      u1050 0361  
                                    u2011 04AB                                      u1131 037E  
                                    u1051 035E                                      u2020 04B8  
                                    u1124 037B                                      u2021 04B7  
                                    u1150 0387                                      u1070 0369  
                                    u1151 0386                                      u1071 0366  
                                    u2200 022F                                      u2120 0200  
                                    u1160 038E                                      u1144 0383  
                                    u1064 0363                                      u2201 022E  
                                    u2121 01FF                                      u1161 038D  
                                    u2210 0234                                      u2130 0206  
                                    u1090 0371                                      u2211 0233  
                                    u2131 0205                                      u1091 036E  
                                    u2300 00DE                                      u2220 0239  
                                    u2140 020B                                      u1084 036B  
                                    u2301 00DD                                      u2221 0238  
                                    u2141 020A                                      _LATA 010C  
                                    u2310 00E3                                      u2230 023E  
                                    u2150 0210                                      u2311 00E2  
                                    u2231 023D                                      u2151 020F  
                                    _LATC 010E                                      u2400 012A  
                                    u2320 00E8                                      u1600 0401  
                                    u2240 0243                                      u2160 0215  
                                    u2401 0129                                      u2321 00E7  
                                    u1601 0400                                      u2241 0242  
                                    u2161 0214                                      u2330 00ED  
                                    u1610 0407                                      u2170 021A  
                                    u2250 03D5                                      u2331 00EC  
                                    u1611 0406                                      u2171 0219  
                                    u2251 03D4                                      u2340 00F2  
                                    u1620 040C                                      u2180 021F  
                                    u2500 039A                                      u2260 03DB  
                                    u2341 00F1                                      u1621 040B  
                                    u2181 021E                                      u2501 0399  
                                    u2261 03DA                                      u1630 04E4  
                                    u2350 0111                                      u2190 0229  
                                    u2510 03A3                                      u2270 03ED  
                                    u1631 04E3                                      u2351 0110  
                                    u2191 0228                                      u2511 03A2  
                                    u2271 03EC                                      u1640 04EA  
                                    u2360 0116                                      u2520 03B5  
                                    u2280 03F2                                      u1641 04E9  
                                    u2361 0115                                      u2521 03B4  
                                    u2281 03F1                                      u1650 04EF  
                                    u2370 011B                                      u2290 00D9  
                                    u2530 03C5                                      u1651 04EE  
                                    u2371 011A                                      u2355 010D  
                                    u2291 00D8                                      u2531 03C4  
                                    u2380 0120                                      u1660 05DE  
                                    u2460 0252                                      u2700 0498  
                                    u2381 011F                                      u1661 05DD  
                                    u2461 0251                                      u2701 0496  
                                    u2390 0125                                      u2470 0265  
                                    u2391 0124                                      u2295 00D5  
                                    u2471 0264                                      u2480 027A  
                                    u2720 0546                                      u2481 0279  
                                    u2721 0545                                      u2490 028A  
                                    u2714 0499                                      u2730 0587  
                                    u2491 0289                                      u2731 0586  
                                    u1940 042B                                      u2740 013E  
                                    u2660 051D                                      u1941 042A  
                                    u2741 013D                                      u2661 051C  
                                    u1950 0431                                      u2750 0163  
                                    u2670 0524                                      u1951 0430  
                                    u2751 0162                                      u2671 0523  
                                    u1960 0436                                      u2760 0173  
                                    u2680 047E                                      u1961 0435  
                                    u2761 0172                                      u2681 047D  
                                    u1970 04C3                                      u2770 017F  
                                    u1971 04C2                                      u2771 017E  
                                    u1980 04CD                                      u2780 018F  
                                    u1981 04CC                                      u2781 018E  
                                    u1990 04D9                                      u2790 045C  
                                    u1991 04D8                                      u2695 0482  
                                    u2791 045B                                      u2867 0145  
                                    u2877 053D                                      u2887 0257  
                                    _TMR0 0015                                      _TMR2 001A  
                                    _WREN 0CAA                                      _WPUA 020C  
                                    _WPUC 020E                         __ccov162_end_blk0 01A1  
                       __ccov242_end_blk0 065B                         __ccov314_end_blk0 013E  
                       __ccov306_end_blk1 038A                         __ccov218_end_blk3 00E8  
                       __ccov146_end_blk3 05E8                         __ccov250_end_blk4 005D  
                       __ccov138_end_blk5 05BF                                      _main 0451  
                       __ccov402_end_blk8 049B                         __ccov154_end_blk9 04E0  
                                    _open 049E                        __ccov231_end_blk17 012B  
                     __ccov398_start_blk4 0483                                      fsr0h 0005  
                                    indf0 0000                                      fsr0l 0004  
                    EEPROM_WriteByte@addr 0078                                      btemp 007E  
                         ?_go_close_short 0073                                      start 002D  
                       __ccov139_end_blk0 0615                         __ccov155_end_blk0 04A2  
                       __ccov163_end_blk1 01A8                         __ccov243_end_blk1 065F  
                       __ccov315_end_blk1 0140                         __ccov307_end_blk2 038E  
                       __ccov219_end_blk4 00ED                         __ccov147_end_blk4 05EA  
                       __ccov251_end_blk6 0061                         __ccov403_end_blk9 049E  
                      __ccov31_start_blk0 05BF                        __ccov23_start_blk1 053B  
                       __ccov236_end_blk0 0568                         __ccov148_end_blk0 04C3  
                       __ccov156_end_blk1 04A8                         __ccov164_end_blk3 01AC  
                       __ccov244_end_blk3 0665                         __ccov316_end_blk3 0142  
                       __ccov308_end_blk3 038F                         __ccov252_end_blk7 0065  
                      __ccov320_end_blk11 0159                        __ccov232_end_blk18 012E  
                     __ccov121_start_blk0 0427                       __ccov105_start_blk1 054D  
                     __ccov113_start_blk3 062D                            ??_go_close_alt 0075  
                    __ccov200_start_blk15 023E                         __ccov333_end_blk0 0252  
                       __ccov181_end_blk0 069A                         __ccov237_end_blk1 056C  
                       __ccov149_end_blk1 04C9                         __ccov157_end_blk2 04AC  
                       __ccov405_end_blk2 051D                         __ccov165_end_blk4 01B4  
                       __ccov309_end_blk4 0393                         __ccov245_end_blk5 0667  
                       __ccov317_end_blk5 014A                         __ccov253_end_blk8 0070  
                 __end_of_TMR0_Initialize 05A8            ??_TMR0_DefaultInterruptHandler 0073  
           __end_of_OSCILLATOR_Initialize 0696                                     ?_main 0073  
                       __ccov246_end_blk0 004E                         __ccov270_end_blk1 02A0  
                       __ccov334_end_blk1 0254                         __ccov182_end_blk1 069C  
                       __ccov238_end_blk3 0572                         __ccov158_end_blk3 04B2  
                       __ccov406_end_blk3 0524                         __ccov190_end_blk4 0215  
                       __ccov166_end_blk5 01B8                         __ccov318_end_blk6 0155  
                                   _EEADR 0191                                     ?_open 0073  
                      __ccov225_end_blk11 0111                        __ccov321_end_blk13 0163  
                      __ccov233_end_blk19 0132                       __ccov399_start_blk5 048D  
                            __ccovbit0_24 01A1                              __ccovbit0_19 0384  
                            __ccovbit1_15 0388                              __ccovbit1_23 0380  
                            __ccovbit1_40 0191                              __ccovbit1_25 01A0  
                            __ccovbit1_33 0198                              __ccovbit1_18 0385  
                            __ccovbit1_26 019F                              __ccovbit1_36 0195  
                            __ccovbit1_44 018D                              __ccovbit1_52 0185  
                            __ccovbit2_30 019B                              __ccovbit1_55 0182  
                            __ccovbit1_63 017A                              __ccovbit2_16 0387  
                            __ccovbit1_48 0189                              __ccovbit2_41 0190  
                            __ccovbit1_81 0168                              __ccovbit1_58 017F  
                            __ccovbit1_82 0167                              __ccovbit2_27 019E  
                            __ccovbit1_68 0175                              __ccovbit3_21 0382  
                            __ccovbit2_37 0194                              __ccovbit2_45 018C  
                            __ccovbit2_53 0184                              __ccovbit2_56 0181  
                            __ccovbit2_80 0169                              __ccovbit1_96 0159  
                            __ccovbit2_49 0188                              __ccovbit3_34 0197  
                            __ccovbit3_50 0187                              __ccovbit2_83 0166  
                                   _T2CON 001C                              __ccovbit3_64 0179  
                            __ccovbit4_17 0386                              __ccovbit5_10 038D  
                            __ccovbit4_42 018F                              __ccovbit3_59 017E  
                            __ccovbit4_60 017D                              __ccovbit3_84 0165  
                            __ccovbit5_22 0381                              __ccovbit4_38 0193  
                            __ccovbit4_54 0183                              __ccovbit4_57 0180  
                            __ccovbit4_65 0178                              __ccovbit6_11 038C  
                            __ccovbit5_35 0196                              __ccovbit5_51 0186  
                            __ccovbit6_20 0383                              __ccovbit5_61 017C  
                            __ccovbit4_69 0174                              __ccovbit4_85 0164  
                            __ccovbit6_14 0389                              __ccovbit5_46 018B  
                            __ccovbit6_31 019A                              __ccovbit4_97 0158  
                            __ccovbit5_66 0177                              __ccovbit6_43 018E  
                            __ccovbit6_28 019D                              __ccovbit6_70 0173  
                            __ccovbit5_86 0163                              __ccovbit6_39 0192  
                            __ccovbit7_71 0172                              __ccovbit6_87 0162  
                            __ccovbit8_32 0199                          __end_of_RELE_GAP 06E4  
                            __ccovbit6_98 0157                              __ccovbit8_29 019C  
                            __ccovbit8_47 018A                              __ccovbit7_99 0156  
                            __ccovbit9_62 017B                              __ccovbit8_88 0161  
                            __ccovbit9_67 0176                                     i1l113 0029  
                                   i1l114 002A                                     i1l108 0014  
                                   i1l302 06B5                                     i1l312 055F  
                                   i1l160 06DE                                     i1l154 0655  
                                   i1l307 0514                                     i1l412 0665  
                                   i1l420 009B                                     i1l317 0632  
                                   i1l190 0645                                     i1l430 00C8  
                                   i1l407 0578                                     i1l415 005D  
                                   i1l416 005B                                     i1l433 02B0  
                                   i1l443 02D6                                     i1l196 06CF  
                                   i1l372 01DC                                     i1l365 01A8  
                                   i1l461 0319                                     i1l366 01FA  
                                   i1l367 01C3                                     i1l448 0671  
                                   i1l449 0674                                     i1l475 0676  
                                   i1l299 06BB                                     i1l477 0682  
                    __ccov255_start_blk12 0074                      __ccov263_start_blk22 00AC  
                    __ccov327_start_blk22 0182                      __ccov351_start_blk31 0293  
                    __ccov175_start_blk18 01DF                      __ccov343_start_blk19 027A  
                                   _TRISA 008C                                     _TRISC 008E  
                         ??_hardware_work 0075                         __ccov247_end_blk1 0052  
                       __ccov271_end_blk2 02A5                         __ccov183_end_blk2 069E  
                       __ccov335_end_blk3 025C                         __ccov239_end_blk4 0573  
                       __ccov159_end_blk4 04B8                         __ccov191_end_blk5 021A  
                       __ccov407_end_blk5 052B                         __ccov167_end_blk6 01BF  
                       __ccov319_end_blk8 0157                 ?_TMR0_SetInterruptHandler 0075  
                      __ccov40_start_blk1 000A                        __ccov32_start_blk1 05C2  
                      __ccov24_start_blk2 053C                          __end_of_TMR0_ISR 0647  
                         __end_of_get_fun 0296                          __end_of_TMR2_ISR 0657  
                         __end_of_get_wsp 019D                           __end_of_go_open 04FD  
                       __ccov352_end_blk0 039A                         __ccov184_end_blk0 06C5  
                       __ccov248_end_blk2 0057                         __ccov272_end_blk4 02AB  
                       __ccov336_end_blk5 025E                         __ccov192_end_blk6 021F  
                       __ccov408_end_blk6 052D                         __ccov168_end_blk7 01C3  
                      __ccov170_end_blk11 01CF                        __ccov234_end_blk20 0138  
                      __ccov226_end_blk12 0116                        __ccov322_end_blk14 0169  
                      __ccov330_end_blk26 0198                                     _close 04BF  
                          _WDT_Initialize 06BE                       __ccov122_start_blk1 042B  
                     __ccov106_start_blk2 0553                       __ccov130_start_blk3 04EF  
                     __ccov114_start_blk5 0632                       __ccov210_start_blk7 03ED  
                         __end_of_ms_tick 031B                         __ccov353_end_blk1 039C  
                       __ccov185_end_blk1 06C8                         __ccov249_end_blk3 005B  
                       __ccov273_end_blk5 02B0                         __ccov193_end_blk7 0221  
                       __ccov337_end_blk8 0260                         __ccov409_end_blk8 0530  
                          __pbitbssCOMMON 0380                        _SHORT_ZUMMER_DELAY 06EA  
                                   pclath 000A                                     status 0003  
                                   wtemp0 007E                         __ccov282_end_blk0 066B  
                       __ccov186_end_blk0 0200                         __ccov370_end_blk2 0331  
                       __ccov354_end_blk3 039E                         __ccov290_end_blk4 02F3  
                       __ccov274_end_blk8 02B6                         __ccov194_end_blk8 0225  
                      __ccov171_end_blk12 01D5                        __ccov227_end_blk13 011B  
                      __ccov235_end_blk23 013A                        __ccov323_end_blk16 0173  
                         _TMR2_StartTimer 06C8                        __ccov331_end_blk28 019A  
                          __pcodecov_info 0000                         __ccov283_end_blk1 0671  
                       __ccov187_end_blk1 0206                         __ccov371_end_blk3 0334  
                       __ccov355_end_blk4 03A3                         __ccov291_end_blk7 02F4  
                       __ccov275_end_blk9 02BB                        __ccov41_start_blk2 000F  
                      __ccov33_start_blk2 05C5                        __ccov25_start_blk3 0540  
                         __initialization 002E                            eeprom_set@vers 005A  
                       __ccov284_end_blk2 0674                         __ccov188_end_blk2 020B  
                       __ccov372_end_blk4 033D                         __ccov356_end_blk5 03A9  
                       __ccov292_end_blk8 02F5                              __end_of_main 0478  
                      __ccov172_end_blk13 01D6                        __ccov340_end_blk13 0270  
                      __ccov228_end_blk14 0120                        __ccov332_end_blk30 019D  
                      __ccov324_end_blk17 0178                        __ccov180_end_blk27 01FC  
                      __ccov260_end_blk19 00A1                              __end_of_open 04BF  
                     __ccov115_start_blk0 03FD                       __ccov123_start_blk2 0431  
                     __ccov107_start_blk4 0556                       __ccov131_start_blk4 04F4  
                     __ccov211_start_blk8 03F2                      __ccov201_start_blk16 0243  
                       __ccov269_end_blk0 029A                         __ccov189_end_blk3 0210  
                       __ccov285_end_blk4 0676                         __ccov373_end_blk6 033F  
                       __ccov357_end_blk7 03AE                         __ccov293_end_blk9 02FD  
                 __end_of_TMR2_Initialize 0611               ?_INTERRUPT_InterruptManager 0073  
                _TMR2_SetInterruptHandler 069E                                    ??_main 0079  
                                  ??_open 0075                         __ccov286_end_blk0 02DE  
                       __ccov390_end_blk1 0455                         __ccov358_end_blk9 03B5  
                       __ccov374_end_blk9 0340                        __ccov261_end_blk20 00A5  
                      __ccov325_end_blk20 017F                        __ccov173_end_blk14 01DC  
                      __ccov229_end_blk15 0125                        __ccov341_end_blk16 0272  
                            ?_minute_tick 0073                      __ccov360_start_blk11 03B9  
                    __ccov176_start_blk20 01E4                      __ccov344_start_blk20 027E  
                    __ccov256_start_blk13 0078                      __ccov264_start_blk23 00BA  
                    __ccov328_start_blk24 0188                      __ccov280_start_blk17 02D2  
                       __ccov287_end_blk1 02E4                         __ccov391_end_blk2 0458  
                  __end_of_WDT_Initialize 06C3                        __ccov50_start_blk2 0602  
                      __ccov42_start_blk3 0014                        __ccov34_start_blk3 05C7  
                      __ccov26_start_blk5 0542                         __ccov368_end_blk0 031E  
                       __ccov288_end_blk2 02E8                         __ccov392_end_blk3 045C  
                                  ?_close 0073                                    _ADCON0 009D  
                                  _ADCON1 009E                        __ccov254_end_blk10 0074  
                      __ccov262_end_blk21 00AC                        __ccov326_end_blk21 0182  
                      __ccov174_end_blk15 01DF                        __ccov342_end_blk18 027A  
                      __ccov350_end_blk29 0293                             __ccovbit10_12 038B  
                           __ccovbit10_72 0171                             __ccovbit12_13 038A  
                           __ccovbit11_89 0160                             __ccovbit12_90 015F  
                           __ccovbit20_76 016D                                    _ADRESH 009C  
                           __ccovbit13_91 015E                       __ccov204_start_blk0 03D1  
                                  _ADRESL 009B                       __ccov116_start_blk1 0401  
                     __ccov140_start_blk1 0615                       __ccov124_start_blk3 0436  
                     __ccov108_start_blk5 055A                       __ccov132_start_blk5 04F8  
                     __ccov220_start_blk5 00ED                             __ccovbit14_73 0170  
                                  _EEDATA 0193                             __ccovbit14_92 015D  
                     __ccov212_start_blk9 03F4                             __ccovbit22_77 016C  
                           __ccovbit15_74 016F                             __ccovbit15_93 015C  
                           __ccovbit23_78 016B                                    _EECON2 0196  
                           __ccovbit17_94 015B                             __ccovbit18_75 016E  
                           __ccovbit27_79 016A                             __ccovbit19_95 015A  
                                  _APFCON 011D                                    _ANSELA 018C  
                                  _ANSELC 018E                             __ccovbit1_102 0153  
                           __ccovbit1_120 0141                             __ccovbit1_116 0145  
                           __ccovbit1_135 0132                             __ccovbit1_145 0128  
                           __ccovbit1_155 011E                             __ccovbit2_103 0152  
                           __ccovbit2_136 0131                             __ccovbit2_153 0120  
                           __ccovbit2_146 0127                             __ccovbit3_104 0151  
                           __ccovbit3_121 0140                             __ccovbit3_123 013E  
                           __ccovbit3_117 0144                                    _BORCON 0116  
                           __ccovbit3_148 0125                             __ccovbit3_158 011B  
                           __ccovbit3_184 0101                             __ccovbit4_105 0150  
                           __ccovbit4_124 013D                             __ccovbit4_137 0130  
                           __ccovbit4_154 011F                             __ccovbit4_147 0126  
                           __ccovbit4_156 011D                             __ccovbit4_149 0124  
                           __ccovbit4_181 0104                             __ccovbit5_106 014F  
                           __ccovbit5_122 013F                             __ccovbit5_118 0143  
                           __ccovbit5_138 012F                             __ccovbit5_173 010C  
                           __ccovbit6_182 0103                             __ccovbit7_157 011C  
                           __ccovbit7_174 010B                             __ccovbit8_125 013C  
                           __ccovbit8_119 0142                             __ccovbit8_139 012E  
                           __ccovbit8_185 0100                             __ccovbit9_107 014E  
                           __ccovbit9_183 0102                                    i1l2001 065F  
                                  i1l2101 007F                                    i1l2111 00AC  
                                  i1l2103 0086                                    i1l2121 0296  
                                  i1l2113 00BA                                    i1l2105 008A  
                                  i1l2131 02B6                                    i1l2123 029A  
                                  i1l2107 00A1                                    i1l2115 00BC  
                                  i1l2141 02CB                                    i1l2133 02BB  
                                  i1l2125 02A0                                    i1l2117 00C2  
                                  i1l2109 00A5                                    i1l2053 06B2  
                                  i1l2221 02DE                                    i1l2143 02D2  
                                  i1l2127 02A5                                    i1l2119 00C5  
                                  i1l2231 02F4                                    i1l2223 02E4  
                                  i1l2145 0667                                    i1l2137 02C2  
                                  i1l2129 02AB                                    i1l2233 02F5  
                                  i1l2225 02E8                                    i1l2147 066B  
                                  i1l2139 02C7                                    i1l2091 0061  
                                  i1l2083 0049                                    i1l2235 02FD  
                                  i1l2243 030B                                    i1l2227 02EF  
                                  i1l2219 02D9                                    i1l2261 0639  
                                  i1l2093 0065                                    i1l2085 004E  
                                  i1l2245 0312                                    i1l2237 0300  
                                  i1l2229 02F3                                    i1l2255 0676  
                                  i1l2263 063F                                    i1l2095 0070  
                                  i1l2087 0052                                    i1l2247 0315  
                                  i1l2239 0308                                    i1l2511 0019  
                       __ccov369_end_blk1 031F                                    i1l2257 0635  
                                  i1l2097 0074                                    i1l2089 0057  
                       __ccov289_end_blk3 02EF                                    i1l2265 0647  
                                  i1l2513 001E                                    i1l2505 0006  
                       __ccov393_end_blk4 0471                                    i1l2259 0636  
                                  i1l2099 0078                                    i1l2267 0649  
                                  i1l2515 0024                                    i1l2507 000A  
                                  i1l2269 064F                                    i1l2509 000F  
                                  u210_20 063F                                    u210_21 063E  
                                  i1l1921 04FD                                    i1l1931 0510  
                                  i1l1923 0501                                    i1l1941 055A  
                                  i1l1933 0549                                    i1l1925 0506  
                                  i1l1919 06B8                                    i1l1943 055B  
                                  i1l1935 054D                                    i1l1927 050A  
                                  i1l1951 0627                                    u203_20 02E4  
                                  u211_20 064F                                    i1l1937 0553  
                                  i1l1929 050F                                    i1l1953 062D  
                                  i1l1961 01AC                                    u203_21 02E3  
                                  u211_21 064E                                    i1l1939 0556  
                                  i1l1971 01CF                                    i1l1963 01B4  
                                  i1l1955 019D                                    i1l1949 0623  
                                  i1l1981 01EB                                    i1l1973 01D5  
                                  i1l1965 01B8                                    i1l1957 01A1  
                                  i1l1991 056C                                    i1l1983 01EF  
                                  i1l1975 01D6                                    i1l1967 01BF  
                                  u204_20 02EF                                    i1l1993 0572  
                                  i1l1985 01F6                                    i1l1977 01DF  
                                  i1l1969 01C9                                    u204_21 02EE  
                                  i1l1995 0573                                    i1l1987 0562  
                                  i1l1979 01E4                                    i1l1989 0568  
                                  i1l1997 0657                                    i1l1999 065B  
                                  u205_20 02FD                                    u205_21 02FC  
                                  u142_20 0501                                    u150_20 01B4  
                                  u206_20 0312                                    u142_21 0500  
                                  u150_21 01B3                                    u206_21 0311  
                                  u143_20 0506                                    u151_20 01BF  
                                  u143_21 0505                                    u151_21 01BE  
                                  u208_20 0680                                    u144_20 054D  
                                  u152_20 01C9                                    u208_21 067D  
                                  u144_21 054C                                    u152_21 01C8  
                                  u145_20 0553                                    u153_20 01CF  
                                  u145_21 0552                                    u153_21 01CE  
                                  u209_24 0682                                    u146_20 0627  
                                  u154_20 01D5                                    u170_20 0065  
                                  u146_21 0626                                    u154_21 01D4  
                                  u170_21 0064                                    u155_20 01EB  
                                  u147_20 01A1                                    u171_20 0078  
                                  u155_21 01EA                                    u147_21 01A0  
                                  u171_21 0077                                    u180_20 02B6  
                                  u156_20 01F6                                    u148_20 01A7  
                                  u172_20 007F                                    u180_21 02B5  
                                  u156_21 01F5                                    u148_21 01A6  
                                  u172_21 007E                                    u181_20 02BB  
                                  u157_20 0568                                    u149_20 01AC  
                                  u173_20 0086                                    u181_21 02BA  
                                  u157_21 0567                                    u149_21 01AB  
                                  u173_21 0085                                    u182_20 02C1  
                                  u158_20 0572                                    u174_20 00A1  
                                  u254_20 000A                                    u182_21 02C0  
                                  u158_21 0571                                    u174_21 00A0  
                                  u254_21 0009                                    u183_20 02C7  
                                  u159_20 065B                                    u175_20 00AC  
                                  u167_20 0052                                    u255_20 000F  
                                  u183_21 02C6                                    u159_21 065A  
                                  u175_21 00AB                                    u167_21 0051  
                                  u255_21 000E                                    u184_20 02D2  
                                  u176_20 00C2                                    u168_20 0057  
                                  u256_20 0019                                    u184_21 02D1  
                                  u176_21 00C1                                    u168_21 0056  
                                  u256_21 0018                                    u185_20 066B  
                                  u177_20 029A                                    u169_20 0061  
                                  u257_20 001E                                    u185_21 066A  
                                  u177_21 0299                                    u169_21 0060  
                                  u257_21 001D                                    u186_20 0671  
                                  u178_20 02A0                                    u258_20 0024  
                                  u186_21 0670                                    u178_21 029F  
                                  u258_21 0023                          __ccov10_end_blk1 0689  
                                  u179_20 02AB                                    u179_21 02AA  
                        _GOOD_WSP_VOLTAGE 06D2                                    _OSCCON 0099  
                                  _WDTCON 0097                         __ccov394_end_blk6 0477  
                      __ccov255_end_blk12 0078                        __ccov263_end_blk22 00BA  
                      __ccov327_end_blk22 0188                        __ccov351_end_blk31 0296  
                      __ccov175_end_blk18 01E4                        __ccov343_end_blk19 027E  
                        __ccov11_end_blk2 068C                          __ccov12_end_blk3 068E  
                      __ccov51_start_blk3 0603                        __ccov43_start_blk4 0019  
                      __ccov35_start_blk4 05CA                        __ccov27_start_blk7 0546  
                        __end_of_get_jump 03D1                          __end_of_go_close 0427  
                       __ccov396_end_blk2 047E                        __ccov360_end_blk11 03BA  
                      __ccov176_end_blk20 01EB                        __ccov344_end_blk20 027F  
                      __ccov256_end_blk13 007F                        __ccov264_end_blk23 00BC  
                      __ccov328_end_blk24 018F                        __ccov280_end_blk17 02D6  
                     __ccov301_start_blk0 057A                       __ccov205_start_blk1 03D5  
                     __ccov117_start_blk2 0407                       __ccov141_start_blk2 061B  
                     __ccov125_start_blk4 043B                       __ccov109_start_blk6 055B  
                     __ccov221_start_blk6 00F2                       __ccov133_start_blk8 04FA  
             __end_of_MELODY_REPEAT_DELAY 06E1                      __ccov202_start_blk17 0247  
                        ?_TMR0_Initialize 0073                         __ccov389_end_blk0 0454  
                       __ccov397_end_blk3 0483                         ??_EEPROM_ReadByte 0075  
                        __end_of_fun_work 024E                          __ccov22_end_blk0 053B  
                __end_of_EEPROM_WriteByte 049E                          __end_of_sec_work 00CA  
                               ??_get_fun 0075                          __end_of_rele_off 05EA  
                               ??_get_wsp 0077                         __ccov398_end_blk4 048D  
                               ??_go_open 0075                        __ccov169_end_blk10 01C9  
                      __ccov361_end_blk12 03BD                        __ccov177_end_blk21 01EF  
                      __ccov345_end_blk21 0282                        __ccov281_end_blk22 02D9  
                      __ccov257_end_blk14 0086                        __ccov329_end_blk25 0192  
                      __ccov265_end_blk27 00C2                          __ccov31_end_blk0 05C2  
                        __ccov23_end_blk1 053C             __end_of_RELE_POWER_WORK_DELAY 06E6  
                    __ccov169_start_blk10 01C3                      __ccov361_start_blk12 03BA  
                    __ccov177_start_blk21 01EB                      __ccov345_start_blk21 027F  
                    __ccov281_start_blk22 02D6                      __ccov257_start_blk14 007F  
                    __ccov329_start_blk25 018F                      __ccov265_start_blk27 00BC  
                       __ccov399_end_blk5 0492                                 ??_ms_tick 0075  
                         ?_WDT_Initialize 0073                          __ccov40_end_blk1 000F  
                        __ccov32_end_blk1 05C5                          __ccov24_end_blk2 0540  
                      __ccov52_start_blk4 0605                        __ccov44_start_blk5 001E  
                      __ccov36_start_blk5 05CF                        __ccov28_start_blk9 0547  
                  EEPROM_WriteByte@status 0397                  ADC_GetConversion@channel 0076  
                   _HIGH_WATER_RESISTANSE 06DA                   __end_of_TMR2_StartTimer 06CC  
TMR0_SetInterruptHandler@InterruptHandler 0075  TMR2_SetInterruptHandler@InterruptHandler 0075  
                      __ccov338_end_blk10 0265                        __ccov178_end_blk22 01F6  
                      __ccov362_end_blk14 03C5                        __ccov346_end_blk23 028A  
                      __ccov258_end_blk16 008A                        __ccov266_end_blk28 00C5  
                        __ccov41_end_blk2 0014                          __ccov33_end_blk2 05C7  
                        __ccov25_end_blk3 0542                       __ccov134_start_blk0 05A8  
                     __ccov302_start_blk1 0582                       __ccov150_start_blk2 04C9  
                     __ccov206_start_blk2 03DB                       __ccov118_start_blk3 040C  
                     __ccov142_start_blk4 0620                       __ccov126_start_blk6 044E  
                     __ccov222_start_blk7 00F5                       __ccov310_start_blk7 0393  
                    __end_of_go_close_alt 05BF                         _SYSTEM_Initialize 05EA  
                        __ccov50_end_blk2 0603                          __ccov42_end_blk3 0019  
                        __ccov34_end_blk3 05CA                          __ccov26_end_blk5 0546  
                 __end_of__initialization 0046                        _AUTOROTATION_DELAY 06CC  
                      ?_SYSTEM_Initialize 0073                        __ccov195_end_blk10 0229  
                      __ccov339_end_blk11 026B                        __ccov179_end_blk23 01FA  
                      __ccov363_end_blk15 03C9                        __ccov347_end_blk24 028E  
                      __ccov259_end_blk18 009B                        __ccov267_end_blk29 00C8  
                        __ccov51_end_blk3 0605                          __ccov43_end_blk4 001E  
                        __ccov35_end_blk4 05CF                          __ccov27_end_blk7 0547  
                           _UP_RESISTANSE 06D6                          __ccov52_end_blk4 060C  
                        __ccov44_end_blk5 0024                          __ccov36_end_blk5 05D3  
                      __ccov53_start_blk5 060C                        __ccov45_start_blk6 0024  
                        __ccov28_end_blk9 0549                        __ccov37_start_blk6 05D3  
                          __pcstackCOMMON 0073                       ??_SYSTEM_Initialize 0078  
                   __end_of_zummer_switch 0685                                 ?_TMR0_ISR 0073  
                      __ccov276_end_blk10 02C2                        __ccov196_end_blk11 022F  
                      __ccov268_end_blk31 00CA                        __ccov380_end_blk23 034D  
                      __ccov364_end_blk16 03CA                        __ccov348_end_blk25 028F  
                               ?_TMR2_ISR 0073                             __end_of_close 04E0  
                        __ccov53_end_blk5 060F                          __ccov45_end_blk6 0029  
                        __ccov37_end_blk6 05D5                       __ccov127_start_blk0 04E0  
                     __ccov215_start_blk0 00CA                       __ccov143_start_blk0 05D5  
                     __ccov135_start_blk1 05AC                       __ccov303_start_blk2 0587  
                     __ccov151_start_blk3 04CD                       __ccov207_start_blk3 03DD  
                     __ccov119_start_blk4 0411                       __ccov223_start_blk8 00F7  
                    __ccov203_start_blk19 024B                          ?_TMR2_Initialize 0073  
                        __ccov70_end_blk1 06A5                          __ccov54_end_blk6 0611  
                            ?_start_alarm 0073               get_wsp@bad_measures_counter 004C  
                      __ccov197_end_blk12 0234                        __ccov277_end_blk13 02C7  
                      __ccov381_end_blk24 034F                        __ccov365_end_blk17 03CC  
                      __ccov349_end_blk26 0291                          __ccov71_end_blk0 06E0  
                        __ccov39_end_blk0 000A                          __ccov55_end_blk0 06CA  
                          _OPTION_REGbits 0095                              ?_start_setup 0073  
                    __ccov338_start_blk10 0260                      __ccov178_start_blk22 01EF  
                    __ccov362_start_blk14 03BD                      __ccov346_start_blk23 0282  
                    __ccov258_start_blk16 0086                      __ccov266_start_blk28 00C2  
                        __ccov72_end_blk0 0596                          __ccov48_end_blk0 0601  
                        __ccov56_end_blk1 06CC                        __ccov70_start_blk1 06A3  
                      __ccov54_start_blk6 060F                                   ??_close 0075  
                         __ccov1_end_blk0 05FC                                _beep_short 04FD  
               __end_of_SYSTEM_Initialize 05FE                          ??_go_close_short 0075  
                      __ccov294_end_blk10 0300                        __ccov366_end_blk20 03CE  
                      __ccov198_end_blk13 0239                        __ccov278_end_blk14 02CB  
                      __ccov382_end_blk25 0351                          __ccov65_end_blk0 0649  
                        __ccov73_end_blk1 0599                          __ccov49_end_blk1 0602  
                     __ccov312_start_blk1 0676                       __ccov128_start_blk1 04E4  
                     __ccov216_start_blk1 00D9                       __ccov144_start_blk1 05DE  
                     __ccov136_start_blk2 05B2                       __ccov152_start_blk4 04D3  
                     __ccov304_start_blk4 058E                       __ccov208_start_blk4 03E0  
                     __ccov240_start_blk5 0573                       __ccov160_start_blk5 04B8  
                     __ccov400_start_blk6 0492                       __ccov224_start_blk9 00FA  
                              __pbssBANK0 0035                           __ccov2_end_blk1 05FE  
                        __ccov90_end_blk0 06AA                          __ccov66_end_blk1 064F  
                        __ccov74_end_blk2 059D                           __ccov3_end_blk0 0691  
                      __ccov359_end_blk10 03B9                        __ccov295_end_blk11 0308  
                      __ccov375_end_blk12 0341                        __ccov199_end_blk14 023E  
                      __ccov367_end_blk22 03D1                        __ccov279_end_blk16 02D2  
                      __ccov383_end_blk26 0353                          __ccov91_end_blk1 06AC  
                        __ccov67_end_blk2 0655                          __ccov75_end_blk3 059E  
                         __ccov4_end_blk1 0692                                __pmaintext 0451  
                        __ccov92_end_blk0 06D2                        __ccov71_start_blk0 06DE  
                      __ccov39_start_blk0 0004                        __ccov55_start_blk0 06C8  
                        __ccov68_end_blk4 0657                          __ccov76_end_blk4 059F  
        __end_of_TMR0_SetInterruptHandler 06AC                           __ccov5_end_blk2 0694  
                              ??_TMR0_ISR 0073                                ??_TMR2_ISR 0075  
                         _time_rele_power 0046                        __ccov296_end_blk12 030B  
                      __ccov376_end_blk15 0342                        __ccov384_end_blk27 0354  
                              __pintentry 0004                          __ccov85_end_blk0 0636  
                        __ccov93_end_blk0 06BB                          __ccov69_end_blk0 06A3  
                        __ccov77_end_blk5 05A6                       __ccov305_start_blk0 035B  
                     __ccov129_start_blk2 04EA                       __ccov217_start_blk2 00DE  
                     __ccov145_start_blk2 05E2                       __ccov313_start_blk3 0682  
                     __ccov137_start_blk3 05B8                       __ccov153_start_blk5 04D9  
                     __ccov209_start_blk6 03E7                       __ccov401_start_blk7 0493  
                     __ccov241_start_blk8 0578                       __ccov161_start_blk9 04BC  
                          __ccovbit10_100 0155                            __ccovbit10_140 012D  
                          __ccovbit10_126 013B                            __ccovbit11_108 014D  
                          __ccovbit11_166 0113                            __ccovbit20_114 0147  
                          __ccovbit12_109 014C                            __ccovbit12_150 0123  
                          __ccovbit20_152 0121                            __ccovbit13_110 014B  
                          __ccovbit12_175 010A                            __ccovbit20_178 0107  
                          __ccovbit21_131 0136                            __ccovbit14_101 0154  
                          __ccovbit14_111 014A                            __ccovbit13_167 0112  
                          __ccovbit21_168 0111                            __ccovbit14_141 012C  
                          __ccovbit14_127 013A                            __ccovbit22_144 0129  
                          __ccovbit22_162 0117                            __ccovbit30_165 0114  
                          __ccovbit14_159 011A                            __ccovbit15_112 0149  
                          __ccovbit14_176 0109                            __ccovbit23_115 0146  
                          __ccovbit22_179 0106                      __ccov300_start_blk20 0319  
                          __ccovbit23_132 0135                            __ccovbit31_134 0133  
                          __ccovbit31_172 010D                            __ccovbit31_180 0105  
                          __ccovbit16_113 0148                            __ccovbit23_169 0110  
                          __ccovbit16_142 012B                            __ccovbit16_128 0139  
                          __ccovbit16_160 0119                            __ccovbit17_143 012A  
                          __ccovbit17_161 0118                            __ccovbit17_177 0108  
                          __ccovbit18_151 0122                            __ccovbit18_129 0138  
                          __ccovbit26_170 010F                            __ccovbit26_163 0116  
                          __ccovbit19_130 0137                           __ccov6_end_blk3 0696  
                          __ccovbit28_164 0115                            __ccovbit29_133 0134  
                          __ccovbit29_171 010E                          __ccov86_end_blk1 0639  
                        __ccov94_end_blk1 06BE                          __ccov78_end_blk6 05A8  
                       _time_rele_control 0044                           __ccov7_end_blk0 06C1  
                      __ccov297_end_blk16 0312                        __ccov377_end_blk18 0343  
                      __ccov385_end_blk28 0356                          __ccov95_end_blk0 06B5  
                        __ccov87_end_blk2 063F                                _eeprom_set 057A  
                    __ccov195_start_blk10 0225                      __ccov339_start_blk11 0265  
                    __ccov179_start_blk23 01F6                      __ccov363_start_blk15 03C5  
                    __ccov347_start_blk24 028A                      __ccov259_start_blk18 008A  
                    __ccov267_start_blk29 00C5                           __ccov8_end_blk1 06C3  
                                 _OSCTUNE 0098                          __ccov96_end_blk1 06B8  
                        __ccov88_end_blk3 0645                        __ccov72_start_blk0 0591  
                      __ccov48_start_blk0 05FE                        __ccov56_start_blk1 06CA  
                       __end_of_beep_long 0562                           __ccov9_end_blk0 0688  
                        ?_TMR2_StartTimer 0073                                 ?_get_jump 0073  
                      __ccov378_end_blk21 0344                        __ccov298_end_blk17 0315  
                      __ccov386_end_blk29 0358                                 ?_go_close 0073  
                        __ccov97_end_blk0 0501                          __ccov89_end_blk5 0647  
                     __ccov162_start_blk0 019D                       __ccov242_start_blk0 0657  
                     __ccov314_start_blk0 013A                       __ccov306_start_blk1 0387  
                     __ccov218_start_blk3 00E3                       __ccov146_start_blk3 05E5  
                     __ccov250_start_blk4 005B                       __ccov138_start_blk5 05BD  
                     __ccov402_start_blk8 0499                       __ccov154_start_blk9 04DD  
                        __ccov98_end_blk1 0506                                 ?_fun_work 0073  
                       __ccov1_start_blk0 05EA                        __ccov387_end_blk30 0359  
                      __ccov379_end_blk22 034B                        __ccov299_end_blk18 0319  
                               ?_sec_work 0073                          __ccov99_end_blk2 050A  
                               ?_rele_off 0073                      _ADC_InterruptHandler 0048  
              ??_TMR2_SetInterruptHandler 0077                        __ccov65_start_blk0 0647  
                      __ccov73_start_blk1 0596                        __ccov49_start_blk1 0601  
                           ??_beep_double 0073                        __ccov388_end_blk31 035B  
   __end_of_RELE_POWER_AUTOROTATION_DELAY 06E5             _RELE_POWER_AUTOROTATION_DELAY 06E4  
                     __ccov139_start_blk0 0611                       __ccov155_start_blk0 049E  
                     __ccov163_start_blk1 01A1                       __ccov243_start_blk1 065B  
                     __ccov315_start_blk1 013E                       __ccov307_start_blk2 038A  
                     __ccov219_start_blk4 00E8                       __ccov147_start_blk4 05E8  
                     __ccov251_start_blk6 005D                       __ccov403_start_blk9 049B  
                    __ccov213_start_blk10 03F7                  __end_of_GOOD_WSP_VOLTAGE 06D4  
                                 __ptext1 03D1                                   __ptext2 031B  
                                 __ptext3 057A                                   __ptext4 0478  
                                 __ptext5 0517                                   __ptext6 06C8  
                                 __ptext7 05EA                                   __ptext8 06BE  
                                 __ptext9 05FE                                   _get_fun 024E  
                                 _get_wsp 013A                                   _go_open 04E0  
                       __ccov2_start_blk1 05FC                     _OSCILLATOR_Initialize 068E  
                               _T2CONbits 001C                      __ccov276_start_blk10 02BB  
                    __ccov196_start_blk11 0229                      __ccov268_start_blk31 00C8  
                    __ccov380_start_blk23 034B                      __ccov364_start_blk16 03C9  
                    __ccov348_start_blk25 028E                  ??_PIN_MANAGER_Initialize 0075  
                                 _ms_tick 02D9                     __end_of_hardware_work 0396  
                      __ccov90_start_blk0 06A5                        __ccov66_start_blk1 0649  
                      __ccov74_start_blk2 0599                               ?_beep_short 0073  
                                 clrloop0 06AD                                ??_get_jump 0075  
                              ??_go_close 0075                         __end_of_rele_tick 01FC  
                    end_of_initialization 0046                       __ccov236_start_blk0 0562  
                     __ccov148_start_blk0 04BF                       __ccov156_start_blk1 04A2  
                     __ccov164_start_blk3 01A8                       __ccov244_start_blk3 065F  
                     __ccov316_start_blk3 0140                       __ccov308_start_blk3 038E  
                     __ccov252_start_blk7 0061                                ??_fun_work 0075  
                       __ccov3_start_blk0 068E                           _EEPROM_ReadByte 0517  
                              ??_sec_work 0074                                ??_rele_off 0075  
                           ??_clear_alarm 0075                             ??_ms_100_work 0073  
                      __ccov91_start_blk1 06AA                        __ccov67_start_blk2 064F  
                      __ccov75_start_blk3 059D                             ??_ms_200_work 0073  
                          _FUN_MEAS_COUNT 06E7                       __ccov333_start_blk0 024E  
                     __ccov181_start_blk0 0696                       __ccov237_start_blk1 0568  
                     __ccov149_start_blk1 04C3                       __ccov157_start_blk2 04A8  
                     __ccov405_start_blk2 0517                       __ccov165_start_blk4 01AC  
                     __ccov309_start_blk4 038F                       __ccov245_start_blk5 0665  
                     __ccov317_start_blk5 0142                       __ccov253_start_blk8 0065  
                            _go_close_alt 05A8                      __ccov214_start_blk14 03FB  
                    __ccov230_start_blk16 0125                          ??_WDT_Initialize 0075  
            __end_of_LOW_WATER_RESISTANSE 06DE                  _TMR0_SetInterruptHandler 06A5  
                               _PORTAbits 000C                                 _PORTCbits 000E  
                       ?_EEPROM_WriteByte 0075                         __end_of_stop_tone 06B8  
                     __end_of_beep_double 0635                         __end_of_switch_wm 03FD  
                       __ccov4_start_blk1 0691                               ?_eeprom_set 0073  
                      ??_EEPROM_WriteByte 0076                      __ccov197_start_blk12 022F  
                    __ccov277_start_blk13 02C2                      __ccov381_start_blk24 034D  
                    __ccov365_start_blk17 03CA                      __ccov349_start_blk26 028F  
                               _TRISAbits 008C                                 _TRISCbits 008E  
                      __ccov92_start_blk0 06CF                        __ccov68_start_blk4 0655  
                      __ccov76_start_blk4 059E                       __ccov246_start_blk0 0049  
                     __ccov270_start_blk1 029A                       __ccov334_start_blk1 0252  
                     __ccov182_start_blk1 069A                       __ccov238_start_blk3 056C  
                     __ccov158_start_blk3 04AC                       __ccov406_start_blk3 051D  
                     __ccov190_start_blk4 0210                       __ccov166_start_blk5 01B4  
                     __ccov318_start_blk6 014A                        EEPROM_WriteByte@dt 0075  
                              _start_tone 06B8                         __ccov5_start_blk2 0692  
                              get_wsp@res 0059                    __end_of_FUN_MEAS_COUNT 06E8  
                      __ccov85_start_blk0 0635                        __ccov93_start_blk0 06B8  
                      __ccov69_start_blk0 069E                        __ccov77_start_blk5 059F  
    __end_of_TMR2_DefaultInterruptHandler 06E0              _TMR2_DefaultInterruptHandler 06DE  
                             __ccovbit1_1 0396                               __ccovbit1_3 0394  
                             __ccovbit1_7 0390                               __ccovbit3_2 0395  
                             __ccovbit3_4 0393                               __ccovbit2_8 038F  
                             __ccovbit3_9 038E                               __ccovbit6_6 0391  
                             __ccovbit9_5 0392                       __end_of_clear_alarm 06C8  
                     __ccov247_start_blk1 004E                       __ccov271_start_blk2 02A0  
                     __ccov183_start_blk2 069C                       __ccov335_start_blk3 0254  
                     __ccov239_start_blk4 0572                       __ccov159_start_blk4 04B2  
                     __ccov191_start_blk5 0215                       __ccov407_start_blk5 0524  
                     __ccov167_start_blk6 01B8                       __ccov319_start_blk8 0155  
                    __ccov231_start_blk17 012A                            _ADC_Initialize 0685  
                  ?_OSCILLATOR_Initialize 0073                             __pbitbssBANK0 0100  
                     __end_of_ms_100_work 0676                       __end_of_ms_200_work 02D9  
                       __ccov6_start_blk3 0694                             ??_go_open_alt 0075  
                     start_initialization 002E                      __ccov294_start_blk10 02FD  
                    __ccov366_start_blk20 03CC                      __ccov198_start_blk13 0234  
                    __ccov278_start_blk14 02C7                      __ccov382_start_blk25 034F  
                       __ccov46_end_blk10 002A                     _RELE_POWER_WORK_DELAY 06E5  
                           ??_sec_30_work 0073                        __ccov86_start_blk1 0636  
                      __ccov94_start_blk1 06BB                        __ccov78_start_blk6 05A6  
                 __end_of_EEPROM_ReadByte 0530                       __ccov352_start_blk0 0396  
                     __ccov184_start_blk0 06C3                       __ccov248_start_blk2 0052  
                     __ccov272_start_blk4 02A5                       __ccov336_start_blk5 025C  
                     __ccov192_start_blk6 021A                       __ccov408_start_blk6 052B  
                     __ccov168_start_blk7 01BF                         __ccov47_end_blk12 002D  
                       __ccov7_start_blk0 06BE                       __ccov46_start_blk10 0029  
                        _beep_short_count 007D                        __ccov95_start_blk0 06B2  
                      __ccov87_start_blk2 0639                               _beep_double 0623  
                  __end_of_ADC_Initialize 068E                       __ccov353_start_blk1 039A  
                     __ccov185_start_blk1 06C5                       __ccov249_start_blk3 0057  
                     __ccov273_start_blk5 02AB                       __ccov193_start_blk7 021F  
                     __ccov337_start_blk8 025E                       __ccov409_start_blk8 052D  
           ?_TMR2_DefaultInterruptHandler 0073                      __ccov320_start_blk11 0157  
                    __ccov232_start_blk18 012B                         __ccov8_start_blk1 06C1  
                       _AUTOROTATION_DAYS 06D8                               __pbssCOMMON 0079  
                               ___latbits 0000                             __pcstackBANK0 0059  
                    __ccov359_start_blk10 03B5                      __ccov295_start_blk11 0300  
                    __ccov375_start_blk12 0340                      __ccov199_start_blk14 0239  
                    __ccov367_start_blk22 03CE                      __ccov279_start_blk16 02CB  
                    __ccov383_start_blk26 0351                        __ccov96_start_blk1 06B5  
                      __ccov88_start_blk3 063F                       __end_of_go_open_alt 0623  
                            sec_work@iled 004D                               ?_start_tone 0073  
                     __ccov282_start_blk0 0667                       __ccov186_start_blk0 01FC  
                     __ccov370_start_blk2 031F                       __ccov354_start_blk3 039C  
                     __ccov290_start_blk4 02EF                       __ccov274_start_blk8 02B0  
                     __ccov194_start_blk8 0221                                 _beep_long 0549  
                     __end_of_sec_30_work 0667                      _LOW_WATER_RESISTANSE 06DC  
                   _TMR0_InterruptHandler 0054                                 __pnvBANK0 0054  
                       __ccov9_start_blk0 0685                               _clear_alarm 06C3  
                  _PIN_MANAGER_Initialize 05BF                       __ccov47_start_blk12 002A  
                             _ms_100_work 0667                        __ccov97_start_blk0 04FD  
                      __ccov89_start_blk5 0645                               _ms_200_work 0296  
                         ?_ADC_Initialize 0073                       __ccov283_start_blk1 066B  
                     __ccov187_start_blk1 0200                       __ccov371_start_blk3 0331  
                     __ccov355_start_blk4 039E                       __ccov291_start_blk7 02F3  
                     __ccov275_start_blk9 02B6              ??_INTERRUPT_InterruptManager 0075  
                    __ccov225_start_blk11 0102                      __ccov321_start_blk13 0159  
                    __ccov233_start_blk19 012E                 __end_of_AUTOROTATION_DAYS 06DA  
                                ?_get_fun 0073                                  ?_get_wsp 0073  
                                ?_go_open 0073                             ??_minute_tick 0073  
                                ?_ms_tick 0073                      __ccov296_start_blk12 0308  
                    __ccov376_start_blk15 0341                      __ccov384_start_blk27 0353  
                            ??_beep_short 0073                            _WSP_MEAS_COUNT 06E8  
                      __ccov98_start_blk1 0501                          ?_EEPROM_ReadByte 0073  
                               _sec_count 0053                       __ccov284_start_blk2 0671  
                     __ccov188_start_blk2 0206                       __ccov372_start_blk4 0334  
                     __ccov356_start_blk5 03A3                       __ccov292_start_blk8 02F4  
                       ??_TMR0_Initialize 0077                                ?_beep_long 0073  
                                _LATAbits 010C                                  _LATCbits 010E  
                               _rele_tick 019D                                 clear_ram0 06AC  
                                _PIE1bits 0091                                  _RELE_GAP 06E3  
              ??_TMR0_SetInterruptHandler 0077                                  _PIR1bits 0011  
                               _time_meas 0050                          _time_moving_wait 0051  
                                _TMR0_ISR 0635                                 _time_tone 0040  
                      __ccov99_start_blk2 0506                                  _TMR2_ISR 0647  
                           _zummer_switch 0676                        __end_of_beep_short 0517  
                     __ccov269_start_blk0 0296                       __ccov189_start_blk3 020B  
                     __ccov285_start_blk4 0674                       __ccov373_start_blk6 033D  
                     __ccov357_start_blk7 03A9                       __ccov293_start_blk9 02F5  
                         _beep_long_count 004F                                _ADCON0bits 009D  
                    __ccov170_start_blk11 01C9                      __ccov234_start_blk20 0132  
                    __ccov226_start_blk12 0111                      __ccov322_start_blk14 0163  
                    __ccov330_start_blk26 0192                              ??_eeprom_set 0059  
          ??_TMR2_DefaultInterruptHandler 0073                               _go_open_alt 0611  
               ?_TMR2_SetInterruptHandler 0075                    __end_of_WSP_MEAS_COUNT 06E9  
                               _stop_tone 06B2                                 _switch_wm 03D1  
                    __ccov297_start_blk16 030B                      __ccov377_start_blk18 0342  
                    __ccov385_start_blk28 0354                               _sec_30_work 0657  
                         ms_tick@ms_count 003A                       __end_of_minute_tick 057A  
                     __ccov286_start_blk0 02D9                       __ccov390_start_blk1 0454  
                     __ccov358_start_blk9 03AE                       __ccov374_start_blk9 033F  
                       _beep_double_count 004E                         ??_TMR2_Initialize 0077  
                              ?_rele_tick 0073                     __end_of_UP_RESISTANSE 06D8  
                     _MELODY_REPEAT_DELAY 06E0                         _ADC_GetConversion 0530  
                         _JUMP_MEAS_COUNT 06E6                        __end_of_eeprom_set 0591  
                          ?_zummer_switch 0073                   ??_OSCILLATOR_Initialize 0075  
                      ?_ADC_GetConversion 0073                       __ccov287_start_blk1 02DE  
                     __ccov391_start_blk2 0455                             ??_start_alarm 0075  
              __end_of_SHORT_ZUMMER_DELAY 06EB                      __ccov171_start_blk12 01CF  
                    __ccov227_start_blk13 0116                      __ccov235_start_blk23 0138  
                    __ccov323_start_blk16 0169                      __ccov331_start_blk28 0198  
                              _ANSELAbits 018C                                _ANSELCbits 018E  
                     ??_ADC_GetConversion 0075                             ??_start_setup 0079  
                              ?_stop_tone 0073                             _time_rele_gap 0042  
                              ?_switch_wm 0073                      __ccov378_start_blk21 0343  
                    __ccov298_start_blk17 0312                      __ccov386_start_blk29 0356  
                                __ptext10 069E                                  __ptext11 0591  
                                __ptext20 0530                                  __ptext12 06A5  
                                __ptext21 0396                                  __ptext13 05BF  
                                __ptext30 00CA                                  __ptext22 024E  
                                __ptext14 068E                                  __ptext31 04E0  
                                __ptext23 01FC                                  __ptext15 0685  
                                __ptext40 019D                                  __ptext32 0427  
                                __ptext24 049E                                  __ptext16 035B  
                                __ptext41 0562                                  __ptext25 0611  
                                __ptext17 013A                                  __ptext50 0676  
                                __ptext42 0296                                  __ptext34 0647  
                                __ptext26 04BF                                  __ptext18 0696  
                                __ptext43 0623                                  __ptext35 06DE  
                                __ptext27 05D5                                  __ptext19 06C3  
                                __ptext44 04FD                                  __ptext36 02D9  
                                __ptext28 05A8                                  __ptext45 0549  
                                __ptext37 06B2                                  __ptext29 03FD  
                                __ptext46 06B8                                  __ptext38 0049  
                                __ptext47 0667                                  __ptext39 0657  
                                __ptext48 0635                                  __ptext49 06CF  
                                _get_jump 0396                                  _go_close 03FD  
                         _BAD_WSP_VOLTAGE 06D4                       __ccov368_start_blk0 031B  
                     __ccov288_start_blk2 02E4                       __ccov392_start_blk3 0458  
                           _time_rotation 0035                               ??_beep_long 0073  
                                _fun_work 01FC      __end_of_TMR0_DefaultInterruptHandler 06D2  
            _TMR0_DefaultInterruptHandler 06CF                                  _sec_work 0049  
               __end_of_ADC_GetConversion 0549                                  _rele_off 05D5  
                       _MOVING_WAIT_DELAY 06E1                              ?_beep_double 0073  
                                int$flags 007E                         ??_TMR2_StartTimer 0075  
      __end_of_INTERRUPT_InterruptManager 002D                _INTERRUPT_InterruptManager 0004  
                     __ccov369_start_blk1 031E                       __ccov289_start_blk3 02E8  
                     __ccov393_start_blk4 045C                            ms_tick@s_count 0038  
                    __ccov172_start_blk13 01D5                      __ccov340_start_blk13 026B  
                    __ccov228_start_blk14 011B                      __ccov332_start_blk30 019A  
                    __ccov324_start_blk17 0173                      __ccov180_start_blk27 01FA  
                    __ccov260_start_blk19 009B                      get_jump@jump_counter 004A  
                             _minute_tick 0562                                _INTCONbits 000B  
                      __ccov10_start_blk1 0688             __end_of_HIGH_WATER_RESISTANSE 06DC  
                          __pstringtext10 06DC                            __pstringtext11 06E3  
                          __pstringtext12 06E4                            __pstringtext13 06E5  
                          __pstringtext14 06E6                            __pstringtext15 06E7  
                          __pstringtext16 06E8                            __pstringtext17 06E9  
                          __pstringtext18 06EA                       __ccov100_start_blk4 050A  
                    __ccov387_start_blk30 0358                      __ccov379_start_blk22 0344  
                    __ccov299_start_blk18 0315                             _hardware_work 035B  
                     __end_of_start_alarm 069E                       __end_of_start_setup 035B  
                                intlevel1 0000                              ??_start_tone 0073  
                     __ccov394_start_blk6 0471                   __end_of_JUMP_MEAS_COUNT 06E7  
                 ?_PIN_MANAGER_Initialize 0073                               ??_rele_tick 0073  
               __end_of_MOVING_WAIT_DELAY 06E2                         _LONG_ZUMMER_DELAY 06E9  
                     EEPROM_ReadByte@addr 0077                        __ccov11_start_blk2 0689  
                        ??_ADC_Initialize 0075                              ?_clear_alarm 0073  
                          _go_close_short 0427             ?_TMR0_DefaultInterruptHandler 0073  
                         ??_zummer_switch 0073                         __ccov100_end_blk4 050F  
                      __ccov200_end_blk15 0243                       __ccov101_start_blk5 050F  
                            ?_ms_100_work 0073                              ?_ms_200_work 0073  
                       __ccov101_end_blk5 0510                         __ccov102_end_blk6 0514  
                       __ccov110_end_blk8 0562                             __pstringtext1 06CC  
                           __pstringtext2 06D2                             __pstringtext3 06D4  
                           __pstringtext4 06D6                             __pstringtext5 06D8  
                           __pstringtext6 06E0                             __pstringtext7 06E1  
                           __pstringtext8 06E2                             __pstringtext9 06DA  
                      __ccov201_end_blk16 0247                        __end_of_start_tone 06BE  
                              _OPTION_REG 0095                         _time_zummer_short 003E  
                    __ccov261_start_blk20 00A1                      __ccov325_start_blk20 0178  
                    __ccov173_start_blk14 01D6                      __ccov229_start_blk15 0120  
                    __ccov341_start_blk16 0270       __end_of_FRIMWARE_VERSION_EEPROM_ADR 06E3  
             _FRIMWARE_VERSION_EEPROM_ADR 06E2                               _time_melody 0052  
                       _autorotation_work 00CA                         __ccov111_end_blk0 0627  
                       __ccov103_end_blk8 0517                           _TMR0_Initialize 0591  
              __end_of_AUTOROTATION_DELAY 06CF                        __ccov12_start_blk3 068C  
                 __end_of_BAD_WSP_VOLTAGE 06D6                        ?_autorotation_work 0073  
                             ??_stop_tone 0073                               ??_switch_wm 0075  
                       __ccov104_end_blk0 054D                         __ccov112_end_blk1 062D  
                          ?_hardware_work 0073                         __ccov120_end_blk6 0427  
                      __ccov202_end_blk17 024B                       __ccov102_start_blk6 0510  
                     __ccov110_start_blk8 055F                      __ccov388_start_blk31 0359  
                       __ccov121_end_blk0 042B                         __ccov105_end_blk1 0553  
                       __ccov113_end_blk3 0632                          _time_zummer_long 003C  
          __end_of_PIN_MANAGER_Initialize 05D5                       ??_autorotation_work 0075  
               __end_of_LONG_ZUMMER_DELAY 06EA                          _EEPROM_WriteByte 0478  
                       __ccov122_end_blk1 0431                         __ccov106_end_blk2 0556  
                       __ccov130_end_blk3 04F4                         __ccov114_end_blk5 0635  
                       __ccov210_end_blk7 03F2                        __ccov203_end_blk19 024E  
                     __ccov396_start_blk2 0478                    __end_of_go_close_short 0451  
                   _TMR2_InterruptHandler 0056                         __ccov115_end_blk0 0401  
                       __ccov123_end_blk2 0436                         __ccov107_end_blk4 055A  
                       __ccov131_end_blk4 04F8                         __ccov211_end_blk8 03F4  
